
core_main.elf:     file format elf32-littleriscv


Disassembly of section .text:

00000000 <__start>:
       0:	200c0117          	auipc	sp,0x200c0
       4:	ff810113          	addi	sp,sp,-8 # 200bfff8 <__kernel_stack>
       8:	00019197          	auipc	gp,0x19
       c:	f4818193          	addi	gp,gp,-184 # 18f50 <__erodata>
      10:	20000217          	auipc	tp,0x20000
      14:	ff020213          	addi	tp,tp,-16 # 20000000 <__data_start__>
      18:	20001297          	auipc	t0,0x20001
      1c:	8e828293          	addi	t0,t0,-1816 # 20000900 <default_num_contexts>
      20:	404282b3          	sub	t0,t0,tp
      24:	00028e63          	beqz	t0,40 <L_loop0_done>

00000028 <L_loop0>:
      28:	0001a303          	lw	t1,0(gp)
      2c:	00622023          	sw	t1,0(tp) # 0 <__start>
      30:	00418193          	addi	gp,gp,4
      34:	00420213          	addi	tp,tp,4 # 4 <__start+0x4>
      38:	ffc28293          	addi	t0,t0,-4
      3c:	fe0296e3          	bnez	t0,28 <L_loop0>

00000040 <L_loop0_done>:
      40:	20001197          	auipc	gp,0x20001
      44:	8c018193          	addi	gp,gp,-1856 # 20000900 <default_num_contexts>
      48:	20001217          	auipc	tp,0x20001
      4c:	94820213          	addi	tp,tp,-1720 # 20000990 <stop_time_val>
      50:	00000293          	li	t0,0
      54:	40320233          	sub	tp,tp,gp
      58:	00020a63          	beqz	tp,6c <L_loop1_done>

0000005c <L_loop1>:
      5c:	0051a023          	sw	t0,0(gp)
      60:	00418193          	addi	gp,gp,4
      64:	ffc20213          	addi	tp,tp,-4 # fffffffc <__kernel_stack+0xdff40004>
      68:	fe021ae3          	bnez	tp,5c <L_loop1>

0000006c <L_loop1_done>:
      6c:	00000197          	auipc	gp,0x0
      70:	0d418193          	addi	gp,gp,212 # 140 <trap_handler>
      74:	30519073          	csrw	mtvec,gp
      78:	00000197          	auipc	gp,0x0
      7c:	14818193          	addi	gp,gp,328 # 1c0 <vector_table>
      80:	04018193          	addi	gp,gp,64
      84:	30719073          	csrw	mtvt,gp
      88:	effff7b7          	lui	a5,0xeffff
      8c:	00020837          	lui	a6,0x20
      90:	0107a023          	sw	a6,0(a5) # effff000 <__kernel_stack+0xcff3f008>
      94:	00c00893          	li	a7,12
      98:	0117a223          	sw	a7,4(a5)
      9c:	00040837          	lui	a6,0x40
      a0:	00c00893          	li	a7,12
      a4:	0107a423          	sw	a6,8(a5)
      a8:	0117a623          	sw	a7,12(a5)
      ac:	00050837          	lui	a6,0x50
      b0:	01000893          	li	a7,16
      b4:	0107a823          	sw	a6,16(a5)
      b8:	0117aa23          	sw	a7,20(a5)
      bc:	400117b7          	lui	a5,0x40011
      c0:	0ff00813          	li	a6,255
      c4:	0107a023          	sw	a6,0(a5) # 40011000 <__kernel_stack+0x1ff51008>
      c8:	00300813          	li	a6,3
      cc:	0107a423          	sw	a6,8(a5)
      d0:	0047a803          	lw	a6,4(a5)
      d4:	08800193          	li	gp,136
      d8:	30019073          	csrw	mstatus,gp
      dc:	000021b7          	lui	gp,0x2
      e0:	3001a073          	csrs	mstatus,gp
      e4:	000011b7          	lui	gp,0x1
      e8:	03f18193          	addi	gp,gp,63 # 103f <crc16+0xf3>
      ec:	7c119073          	csrw	mhcr,gp
      f0:	000041b7          	lui	gp,0x4
      f4:	00c18193          	addi	gp,gp,12 # 400c <core_state_transition+0xbc>
      f8:	7c519073          	csrw	mhint,gp

000000fc <__to_main>:
      fc:	358060ef          	jal	ra,6454 <main>

00000100 <__exit>:
     100:	0000100f          	fence.i
     104:	0ff0000f          	fence
     108:	60010237          	lui	tp,0x60010
     10c:	ff820213          	addi	tp,tp,-8 # 6000fff8 <__kernel_stack+0x3ff50000>
     110:	0ff00193          	li	gp,255
     114:	00419193          	slli	gp,gp,0x4
     118:	00f18193          	addi	gp,gp,15
     11c:	00322023          	sw	gp,0(tp) # 0 <__start>

00000120 <__fail>:
     120:	0000100f          	fence.i
     124:	0ff0000f          	fence
     128:	60010237          	lui	tp,0x60010
     12c:	ff820213          	addi	tp,tp,-8 # 6000fff8 <__kernel_stack+0x3ff50000>
     130:	0ee00193          	li	gp,238
     134:	00419193          	slli	gp,gp,0x4
     138:	00e18193          	addi	gp,gp,14
     13c:	00322023          	sw	gp,0(tp) # 0 <__start>

00000140 <trap_handler>:
     140:	0080006f          	j	148 <__synchronous_exception>
     144:	fddff06f          	j	120 <__fail>

00000148 <__synchronous_exception>:
     148:	fed12e23          	sw	a3,-4(sp)
     14c:	fee12c23          	sw	a4,-8(sp)
     150:	fef12a23          	sw	a5,-12(sp)
     154:	34202773          	csrr	a4,mcause
     158:	0ff77793          	andi	a5,a4,255
     15c:	01b75713          	srli	a4,a4,0x1b
     160:	01077713          	andi	a4,a4,16
     164:	00f70733          	add	a4,a4,a5
     168:	00271713          	slli	a4,a4,0x2
     16c:	00000797          	auipc	a5,0x0
     170:	05478793          	addi	a5,a5,84 # 1c0 <vector_table>
     174:	00f707b3          	add	a5,a4,a5
     178:	0007a703          	lw	a4,0(a5)
     17c:	ffc12683          	lw	a3,-4(sp)
     180:	ff412783          	lw	a5,-12(sp)
     184:	00070067          	jr	a4
     188:	00000013          	nop
     18c:	00000013          	nop
     190:	00000013          	nop
     194:	00000013          	nop
     198:	00000013          	nop
     19c:	00000013          	nop
     1a0:	00000013          	nop
     1a4:	00000013          	nop
     1a8:	00000013          	nop
     1ac:	00000013          	nop
     1b0:	00000013          	nop
     1b4:	00000013          	nop
     1b8:	00000013          	nop
     1bc:	00000013          	nop

000001c0 <vector_table>:
     1c0:	05c0                	addi	s0,sp,708
     1c2:	0000                	unimp
     1c4:	05c0                	addi	s0,sp,708
     1c6:	0000                	unimp
     1c8:	05c0                	addi	s0,sp,708
     1ca:	0000                	unimp
     1cc:	05c0                	addi	s0,sp,708
     1ce:	0000                	unimp
     1d0:	05c0                	addi	s0,sp,708
     1d2:	0000                	unimp
     1d4:	05c0                	addi	s0,sp,708
     1d6:	0000                	unimp
     1d8:	05c0                	addi	s0,sp,708
     1da:	0000                	unimp
     1dc:	05c0                	addi	s0,sp,708
     1de:	0000                	unimp
     1e0:	05c0                	addi	s0,sp,708
     1e2:	0000                	unimp
     1e4:	05c0                	addi	s0,sp,708
     1e6:	0000                	unimp
     1e8:	05c0                	addi	s0,sp,708
     1ea:	0000                	unimp
     1ec:	05c0                	addi	s0,sp,708
     1ee:	0000                	unimp
     1f0:	05c0                	addi	s0,sp,708
     1f2:	0000                	unimp
     1f4:	05c0                	addi	s0,sp,708
     1f6:	0000                	unimp
     1f8:	05c0                	addi	s0,sp,708
     1fa:	0000                	unimp
     1fc:	05c0                	addi	s0,sp,708
     1fe:	0000                	unimp
     200:	05c0                	addi	s0,sp,708
     202:	0000                	unimp
     204:	05c0                	addi	s0,sp,708
     206:	0000                	unimp
     208:	05c0                	addi	s0,sp,708
     20a:	0000                	unimp
     20c:	05c0                	addi	s0,sp,708
     20e:	0000                	unimp
     210:	05c0                	addi	s0,sp,708
     212:	0000                	unimp
     214:	05c0                	addi	s0,sp,708
     216:	0000                	unimp
     218:	05c0                	addi	s0,sp,708
     21a:	0000                	unimp
     21c:	05c0                	addi	s0,sp,708
     21e:	0000                	unimp
     220:	05c0                	addi	s0,sp,708
     222:	0000                	unimp
     224:	05c0                	addi	s0,sp,708
     226:	0000                	unimp
     228:	05c0                	addi	s0,sp,708
     22a:	0000                	unimp
     22c:	05c0                	addi	s0,sp,708
     22e:	0000                	unimp
     230:	05c0                	addi	s0,sp,708
     232:	0000                	unimp
     234:	05c0                	addi	s0,sp,708
     236:	0000                	unimp
     238:	05c0                	addi	s0,sp,708
     23a:	0000                	unimp
     23c:	05c0                	addi	s0,sp,708
     23e:	0000                	unimp
     240:	05c0                	addi	s0,sp,708
     242:	0000                	unimp
     244:	05c0                	addi	s0,sp,708
     246:	0000                	unimp
     248:	05c0                	addi	s0,sp,708
     24a:	0000                	unimp
     24c:	05c0                	addi	s0,sp,708
     24e:	0000                	unimp
     250:	05c0                	addi	s0,sp,708
     252:	0000                	unimp
     254:	05c0                	addi	s0,sp,708
     256:	0000                	unimp
     258:	05c0                	addi	s0,sp,708
     25a:	0000                	unimp
     25c:	05c0                	addi	s0,sp,708
     25e:	0000                	unimp
     260:	05c0                	addi	s0,sp,708
     262:	0000                	unimp
     264:	05c0                	addi	s0,sp,708
     266:	0000                	unimp
     268:	05c0                	addi	s0,sp,708
     26a:	0000                	unimp
     26c:	05c0                	addi	s0,sp,708
     26e:	0000                	unimp
     270:	05c0                	addi	s0,sp,708
     272:	0000                	unimp
     274:	05c0                	addi	s0,sp,708
     276:	0000                	unimp
     278:	05c0                	addi	s0,sp,708
     27a:	0000                	unimp
     27c:	05c0                	addi	s0,sp,708
     27e:	0000                	unimp
     280:	05c0                	addi	s0,sp,708
     282:	0000                	unimp
     284:	05c0                	addi	s0,sp,708
     286:	0000                	unimp
     288:	05c0                	addi	s0,sp,708
     28a:	0000                	unimp
     28c:	05c0                	addi	s0,sp,708
     28e:	0000                	unimp
     290:	05c0                	addi	s0,sp,708
     292:	0000                	unimp
     294:	05c0                	addi	s0,sp,708
     296:	0000                	unimp
     298:	05c0                	addi	s0,sp,708
     29a:	0000                	unimp
     29c:	05c0                	addi	s0,sp,708
     29e:	0000                	unimp
     2a0:	05c0                	addi	s0,sp,708
     2a2:	0000                	unimp
     2a4:	05c0                	addi	s0,sp,708
     2a6:	0000                	unimp
     2a8:	05c0                	addi	s0,sp,708
     2aa:	0000                	unimp
     2ac:	05c0                	addi	s0,sp,708
     2ae:	0000                	unimp
     2b0:	05c0                	addi	s0,sp,708
     2b2:	0000                	unimp
     2b4:	05c0                	addi	s0,sp,708
     2b6:	0000                	unimp
     2b8:	05c0                	addi	s0,sp,708
     2ba:	0000                	unimp
     2bc:	05c0                	addi	s0,sp,708
     2be:	0000                	unimp
     2c0:	05c0                	addi	s0,sp,708
     2c2:	0000                	unimp
     2c4:	05c0                	addi	s0,sp,708
     2c6:	0000                	unimp
     2c8:	05c0                	addi	s0,sp,708
     2ca:	0000                	unimp
     2cc:	05c0                	addi	s0,sp,708
     2ce:	0000                	unimp
     2d0:	05c0                	addi	s0,sp,708
     2d2:	0000                	unimp
     2d4:	05c0                	addi	s0,sp,708
     2d6:	0000                	unimp
     2d8:	05c0                	addi	s0,sp,708
     2da:	0000                	unimp
     2dc:	05c0                	addi	s0,sp,708
     2de:	0000                	unimp
     2e0:	05c0                	addi	s0,sp,708
     2e2:	0000                	unimp
     2e4:	05c0                	addi	s0,sp,708
     2e6:	0000                	unimp
     2e8:	05c0                	addi	s0,sp,708
     2ea:	0000                	unimp
     2ec:	05c0                	addi	s0,sp,708
     2ee:	0000                	unimp
     2f0:	05c0                	addi	s0,sp,708
     2f2:	0000                	unimp
     2f4:	05c0                	addi	s0,sp,708
     2f6:	0000                	unimp
     2f8:	05c0                	addi	s0,sp,708
     2fa:	0000                	unimp
     2fc:	05c0                	addi	s0,sp,708
     2fe:	0000                	unimp
     300:	05c0                	addi	s0,sp,708
     302:	0000                	unimp
     304:	05c0                	addi	s0,sp,708
     306:	0000                	unimp
     308:	05c0                	addi	s0,sp,708
     30a:	0000                	unimp
     30c:	05c0                	addi	s0,sp,708
     30e:	0000                	unimp
     310:	05c0                	addi	s0,sp,708
     312:	0000                	unimp
     314:	05c0                	addi	s0,sp,708
     316:	0000                	unimp
     318:	05c0                	addi	s0,sp,708
     31a:	0000                	unimp
     31c:	05c0                	addi	s0,sp,708
     31e:	0000                	unimp
     320:	05c0                	addi	s0,sp,708
     322:	0000                	unimp
     324:	05c0                	addi	s0,sp,708
     326:	0000                	unimp
     328:	05c0                	addi	s0,sp,708
     32a:	0000                	unimp
     32c:	05c0                	addi	s0,sp,708
     32e:	0000                	unimp
     330:	05c0                	addi	s0,sp,708
     332:	0000                	unimp
     334:	05c0                	addi	s0,sp,708
     336:	0000                	unimp
     338:	05c0                	addi	s0,sp,708
     33a:	0000                	unimp
     33c:	05c0                	addi	s0,sp,708
     33e:	0000                	unimp
     340:	05c0                	addi	s0,sp,708
     342:	0000                	unimp
     344:	05c0                	addi	s0,sp,708
     346:	0000                	unimp
     348:	05c0                	addi	s0,sp,708
     34a:	0000                	unimp
     34c:	05c0                	addi	s0,sp,708
     34e:	0000                	unimp
     350:	05c0                	addi	s0,sp,708
     352:	0000                	unimp
     354:	05c0                	addi	s0,sp,708
     356:	0000                	unimp
     358:	05c0                	addi	s0,sp,708
     35a:	0000                	unimp
     35c:	05c0                	addi	s0,sp,708
     35e:	0000                	unimp
     360:	05c0                	addi	s0,sp,708
     362:	0000                	unimp
     364:	05c0                	addi	s0,sp,708
     366:	0000                	unimp
     368:	05c0                	addi	s0,sp,708
     36a:	0000                	unimp
     36c:	05c0                	addi	s0,sp,708
     36e:	0000                	unimp
     370:	05c0                	addi	s0,sp,708
     372:	0000                	unimp
     374:	05c0                	addi	s0,sp,708
     376:	0000                	unimp
     378:	05c0                	addi	s0,sp,708
     37a:	0000                	unimp
     37c:	05c0                	addi	s0,sp,708
     37e:	0000                	unimp
     380:	05c0                	addi	s0,sp,708
     382:	0000                	unimp
     384:	05c0                	addi	s0,sp,708
     386:	0000                	unimp
     388:	05c0                	addi	s0,sp,708
     38a:	0000                	unimp
     38c:	05c0                	addi	s0,sp,708
     38e:	0000                	unimp
     390:	05c0                	addi	s0,sp,708
     392:	0000                	unimp
     394:	05c0                	addi	s0,sp,708
     396:	0000                	unimp
     398:	05c0                	addi	s0,sp,708
     39a:	0000                	unimp
     39c:	05c0                	addi	s0,sp,708
     39e:	0000                	unimp
     3a0:	05c0                	addi	s0,sp,708
     3a2:	0000                	unimp
     3a4:	05c0                	addi	s0,sp,708
     3a6:	0000                	unimp
     3a8:	05c0                	addi	s0,sp,708
     3aa:	0000                	unimp
     3ac:	05c0                	addi	s0,sp,708
     3ae:	0000                	unimp
     3b0:	05c0                	addi	s0,sp,708
     3b2:	0000                	unimp
     3b4:	05c0                	addi	s0,sp,708
     3b6:	0000                	unimp
     3b8:	05c0                	addi	s0,sp,708
     3ba:	0000                	unimp
     3bc:	05c0                	addi	s0,sp,708
     3be:	0000                	unimp
     3c0:	05c0                	addi	s0,sp,708
     3c2:	0000                	unimp
     3c4:	05c0                	addi	s0,sp,708
     3c6:	0000                	unimp
     3c8:	05c0                	addi	s0,sp,708
     3ca:	0000                	unimp
     3cc:	05c0                	addi	s0,sp,708
     3ce:	0000                	unimp
     3d0:	05c0                	addi	s0,sp,708
     3d2:	0000                	unimp
     3d4:	05c0                	addi	s0,sp,708
     3d6:	0000                	unimp
     3d8:	05c0                	addi	s0,sp,708
     3da:	0000                	unimp
     3dc:	05c0                	addi	s0,sp,708
     3de:	0000                	unimp
     3e0:	05c0                	addi	s0,sp,708
     3e2:	0000                	unimp
     3e4:	05c0                	addi	s0,sp,708
     3e6:	0000                	unimp
     3e8:	05c0                	addi	s0,sp,708
     3ea:	0000                	unimp
     3ec:	05c0                	addi	s0,sp,708
     3ee:	0000                	unimp
     3f0:	05c0                	addi	s0,sp,708
     3f2:	0000                	unimp
     3f4:	05c0                	addi	s0,sp,708
     3f6:	0000                	unimp
     3f8:	05c0                	addi	s0,sp,708
     3fa:	0000                	unimp
     3fc:	05c0                	addi	s0,sp,708
     3fe:	0000                	unimp
     400:	05c0                	addi	s0,sp,708
     402:	0000                	unimp
     404:	05c0                	addi	s0,sp,708
     406:	0000                	unimp
     408:	05c0                	addi	s0,sp,708
     40a:	0000                	unimp
     40c:	05c0                	addi	s0,sp,708
     40e:	0000                	unimp
     410:	05c0                	addi	s0,sp,708
     412:	0000                	unimp
     414:	05c0                	addi	s0,sp,708
     416:	0000                	unimp
     418:	05c0                	addi	s0,sp,708
     41a:	0000                	unimp
     41c:	05c0                	addi	s0,sp,708
     41e:	0000                	unimp
     420:	05c0                	addi	s0,sp,708
     422:	0000                	unimp
     424:	05c0                	addi	s0,sp,708
     426:	0000                	unimp
     428:	05c0                	addi	s0,sp,708
     42a:	0000                	unimp
     42c:	05c0                	addi	s0,sp,708
     42e:	0000                	unimp
     430:	05c0                	addi	s0,sp,708
     432:	0000                	unimp
     434:	05c0                	addi	s0,sp,708
     436:	0000                	unimp
     438:	05c0                	addi	s0,sp,708
     43a:	0000                	unimp
     43c:	05c0                	addi	s0,sp,708
     43e:	0000                	unimp
     440:	05c0                	addi	s0,sp,708
     442:	0000                	unimp
     444:	05c0                	addi	s0,sp,708
     446:	0000                	unimp
     448:	05c0                	addi	s0,sp,708
     44a:	0000                	unimp
     44c:	05c0                	addi	s0,sp,708
     44e:	0000                	unimp
     450:	05c0                	addi	s0,sp,708
     452:	0000                	unimp
     454:	05c0                	addi	s0,sp,708
     456:	0000                	unimp
     458:	05c0                	addi	s0,sp,708
     45a:	0000                	unimp
     45c:	05c0                	addi	s0,sp,708
     45e:	0000                	unimp
     460:	05c0                	addi	s0,sp,708
     462:	0000                	unimp
     464:	05c0                	addi	s0,sp,708
     466:	0000                	unimp
     468:	05c0                	addi	s0,sp,708
     46a:	0000                	unimp
     46c:	05c0                	addi	s0,sp,708
     46e:	0000                	unimp
     470:	05c0                	addi	s0,sp,708
     472:	0000                	unimp
     474:	05c0                	addi	s0,sp,708
     476:	0000                	unimp
     478:	05c0                	addi	s0,sp,708
     47a:	0000                	unimp
     47c:	05c0                	addi	s0,sp,708
     47e:	0000                	unimp
     480:	05c0                	addi	s0,sp,708
     482:	0000                	unimp
     484:	05c0                	addi	s0,sp,708
     486:	0000                	unimp
     488:	05c0                	addi	s0,sp,708
     48a:	0000                	unimp
     48c:	05c0                	addi	s0,sp,708
     48e:	0000                	unimp
     490:	05c0                	addi	s0,sp,708
     492:	0000                	unimp
     494:	05c0                	addi	s0,sp,708
     496:	0000                	unimp
     498:	05c0                	addi	s0,sp,708
     49a:	0000                	unimp
     49c:	05c0                	addi	s0,sp,708
     49e:	0000                	unimp
     4a0:	05c0                	addi	s0,sp,708
     4a2:	0000                	unimp
     4a4:	05c0                	addi	s0,sp,708
     4a6:	0000                	unimp
     4a8:	05c0                	addi	s0,sp,708
     4aa:	0000                	unimp
     4ac:	05c0                	addi	s0,sp,708
     4ae:	0000                	unimp
     4b0:	05c0                	addi	s0,sp,708
     4b2:	0000                	unimp
     4b4:	05c0                	addi	s0,sp,708
     4b6:	0000                	unimp
     4b8:	05c0                	addi	s0,sp,708
     4ba:	0000                	unimp
     4bc:	05c0                	addi	s0,sp,708
     4be:	0000                	unimp
     4c0:	05c0                	addi	s0,sp,708
     4c2:	0000                	unimp
     4c4:	05c0                	addi	s0,sp,708
     4c6:	0000                	unimp
     4c8:	05c0                	addi	s0,sp,708
     4ca:	0000                	unimp
     4cc:	05c0                	addi	s0,sp,708
     4ce:	0000                	unimp
     4d0:	05c0                	addi	s0,sp,708
     4d2:	0000                	unimp
     4d4:	05c0                	addi	s0,sp,708
     4d6:	0000                	unimp
     4d8:	05c0                	addi	s0,sp,708
     4da:	0000                	unimp
     4dc:	05c0                	addi	s0,sp,708
     4de:	0000                	unimp
     4e0:	05c0                	addi	s0,sp,708
     4e2:	0000                	unimp
     4e4:	05c0                	addi	s0,sp,708
     4e6:	0000                	unimp
     4e8:	05c0                	addi	s0,sp,708
     4ea:	0000                	unimp
     4ec:	05c0                	addi	s0,sp,708
     4ee:	0000                	unimp
     4f0:	05c0                	addi	s0,sp,708
     4f2:	0000                	unimp
     4f4:	05c0                	addi	s0,sp,708
     4f6:	0000                	unimp
     4f8:	05c0                	addi	s0,sp,708
     4fa:	0000                	unimp
     4fc:	05c0                	addi	s0,sp,708
     4fe:	0000                	unimp
     500:	05c0                	addi	s0,sp,708
     502:	0000                	unimp
     504:	05c0                	addi	s0,sp,708
     506:	0000                	unimp
     508:	05c0                	addi	s0,sp,708
     50a:	0000                	unimp
     50c:	05c0                	addi	s0,sp,708
     50e:	0000                	unimp
     510:	05c0                	addi	s0,sp,708
     512:	0000                	unimp
     514:	05c0                	addi	s0,sp,708
     516:	0000                	unimp
     518:	05c0                	addi	s0,sp,708
     51a:	0000                	unimp
     51c:	05c0                	addi	s0,sp,708
     51e:	0000                	unimp
     520:	05c0                	addi	s0,sp,708
     522:	0000                	unimp
     524:	05c0                	addi	s0,sp,708
     526:	0000                	unimp
     528:	05c0                	addi	s0,sp,708
     52a:	0000                	unimp
     52c:	05c0                	addi	s0,sp,708
     52e:	0000                	unimp
     530:	05c0                	addi	s0,sp,708
     532:	0000                	unimp
     534:	05c0                	addi	s0,sp,708
     536:	0000                	unimp
     538:	05c0                	addi	s0,sp,708
     53a:	0000                	unimp
     53c:	05c0                	addi	s0,sp,708
     53e:	0000                	unimp
     540:	05c0                	addi	s0,sp,708
     542:	0000                	unimp
     544:	05c0                	addi	s0,sp,708
     546:	0000                	unimp
     548:	05c0                	addi	s0,sp,708
     54a:	0000                	unimp
     54c:	05c0                	addi	s0,sp,708
     54e:	0000                	unimp
     550:	05c0                	addi	s0,sp,708
     552:	0000                	unimp
     554:	05c0                	addi	s0,sp,708
     556:	0000                	unimp
     558:	05c0                	addi	s0,sp,708
     55a:	0000                	unimp
     55c:	05c0                	addi	s0,sp,708
     55e:	0000                	unimp
     560:	05c0                	addi	s0,sp,708
     562:	0000                	unimp
     564:	05c0                	addi	s0,sp,708
     566:	0000                	unimp
     568:	05c0                	addi	s0,sp,708
     56a:	0000                	unimp
     56c:	05c0                	addi	s0,sp,708
     56e:	0000                	unimp
     570:	05c0                	addi	s0,sp,708
     572:	0000                	unimp
     574:	05c0                	addi	s0,sp,708
     576:	0000                	unimp
     578:	05c0                	addi	s0,sp,708
     57a:	0000                	unimp
     57c:	05c0                	addi	s0,sp,708
     57e:	0000                	unimp
     580:	05c0                	addi	s0,sp,708
     582:	0000                	unimp
     584:	05c0                	addi	s0,sp,708
     586:	0000                	unimp
     588:	05c0                	addi	s0,sp,708
     58a:	0000                	unimp
     58c:	05c0                	addi	s0,sp,708
     58e:	0000                	unimp
     590:	05c0                	addi	s0,sp,708
     592:	0000                	unimp
     594:	05c0                	addi	s0,sp,708
     596:	0000                	unimp
     598:	05c0                	addi	s0,sp,708
     59a:	0000                	unimp
     59c:	05c0                	addi	s0,sp,708
     59e:	0000                	unimp
     5a0:	05c0                	addi	s0,sp,708
     5a2:	0000                	unimp
     5a4:	05c0                	addi	s0,sp,708
     5a6:	0000                	unimp
     5a8:	05c0                	addi	s0,sp,708
     5aa:	0000                	unimp
     5ac:	05c0                	addi	s0,sp,708
     5ae:	0000                	unimp
     5b0:	05c0                	addi	s0,sp,708
     5b2:	0000                	unimp
     5b4:	05c0                	addi	s0,sp,708
     5b6:	0000                	unimp
     5b8:	05c0                	addi	s0,sp,708
     5ba:	0000                	unimp
     5bc:	05c0                	addi	s0,sp,708
	...

000005c0 <__dummy>:
     5c0:	b61ff06f          	j	120 <__fail>
	...

00000600 <get_seed_32>:
     600:	00500793          	li	a5,5
     604:	04a7ec63          	bltu	a5,a0,65c <get_seed_32+0x5c>
     608:	000182b7          	lui	t0,0x18
     60c:	00251513          	slli	a0,a0,0x2
     610:	5d028313          	addi	t1,t0,1488 # 185d0 <__errno+0xe>
     614:	006503b3          	add	t2,a0,t1
     618:	0003a583          	lw	a1,0(t2)
     61c:	00058067          	jr	a1
     620:	20001637          	lui	a2,0x20001
     624:	99862503          	lw	a0,-1640(a2) # 20000998 <seed5_volatile>
     628:	00008067          	ret
     62c:	200018b7          	lui	a7,0x20001
     630:	9a08a503          	lw	a0,-1632(a7) # 200009a0 <seed1_volatile>
     634:	00008067          	ret
     638:	20001837          	lui	a6,0x20001
     63c:	99c82503          	lw	a0,-1636(a6) # 2000099c <seed2_volatile>
     640:	00008067          	ret
     644:	20001737          	lui	a4,0x20001
     648:	90872503          	lw	a0,-1784(a4) # 20000908 <seed3_volatile>
     64c:	00008067          	ret
     650:	200016b7          	lui	a3,0x20001
     654:	9046a503          	lw	a0,-1788(a3) # 20000904 <seed4_volatile>
     658:	00008067          	ret
     65c:	00000513          	li	a0,0
     660:	00008067          	ret

00000664 <crcu8>:
     664:	00b547b3          	xor	a5,a0,a1
     668:	0017f293          	andi	t0,a5,1
     66c:	00155713          	srli	a4,a0,0x1
     670:	10029e63          	bnez	t0,78c <crcu8+0x128>
     674:	0015d813          	srli	a6,a1,0x1
     678:	00e84e33          	xor	t3,a6,a4
     67c:	001e7e93          	andi	t4,t3,1
     680:	00255893          	srli	a7,a0,0x2
     684:	00185293          	srli	t0,a6,0x1
     688:	000e8c63          	beqz	t4,6a0 <crcu8+0x3c>
     68c:	ffffaf37          	lui	t5,0xffffa
     690:	001f0f93          	addi	t6,t5,1 # ffffa001 <__kernel_stack+0xdff3a009>
     694:	01f2c733          	xor	a4,t0,t6
     698:	01071793          	slli	a5,a4,0x10
     69c:	0107d293          	srli	t0,a5,0x10
     6a0:	0112c5b3          	xor	a1,t0,a7
     6a4:	0015f393          	andi	t2,a1,1
     6a8:	00355313          	srli	t1,a0,0x3
     6ac:	0012de13          	srli	t3,t0,0x1
     6b0:	00038c63          	beqz	t2,6c8 <crcu8+0x64>
     6b4:	ffffa637          	lui	a2,0xffffa
     6b8:	00160693          	addi	a3,a2,1 # ffffa001 <__kernel_stack+0xdff3a009>
     6bc:	00de4833          	xor	a6,t3,a3
     6c0:	01081893          	slli	a7,a6,0x10
     6c4:	0108de13          	srli	t3,a7,0x10
     6c8:	006e4f33          	xor	t5,t3,t1
     6cc:	001f7f93          	andi	t6,t5,1
     6d0:	00455e93          	srli	t4,a0,0x4
     6d4:	001e5593          	srli	a1,t3,0x1
     6d8:	000f8c63          	beqz	t6,6f0 <crcu8+0x8c>
     6dc:	ffffa737          	lui	a4,0xffffa
     6e0:	00170293          	addi	t0,a4,1 # ffffa001 <__kernel_stack+0xdff3a009>
     6e4:	0055c7b3          	xor	a5,a1,t0
     6e8:	01079313          	slli	t1,a5,0x10
     6ec:	01035593          	srli	a1,t1,0x10
     6f0:	01d5c633          	xor	a2,a1,t4
     6f4:	00167693          	andi	a3,a2,1
     6f8:	00555393          	srli	t2,a0,0x5
     6fc:	0015df13          	srli	t5,a1,0x1
     700:	00068c63          	beqz	a3,718 <crcu8+0xb4>
     704:	ffffa837          	lui	a6,0xffffa
     708:	00180893          	addi	a7,a6,1 # ffffa001 <__kernel_stack+0xdff3a009>
     70c:	011f4e33          	xor	t3,t5,a7
     710:	010e1e93          	slli	t4,t3,0x10
     714:	010edf13          	srli	t5,t4,0x10
     718:	007f4733          	xor	a4,t5,t2
     71c:	00177293          	andi	t0,a4,1
     720:	00655f93          	srli	t6,a0,0x6
     724:	001f5613          	srli	a2,t5,0x1
     728:	00028c63          	beqz	t0,740 <crcu8+0xdc>
     72c:	ffffa337          	lui	t1,0xffffa
     730:	00130593          	addi	a1,t1,1 # ffffa001 <__kernel_stack+0xdff3a009>
     734:	00b647b3          	xor	a5,a2,a1
     738:	01079393          	slli	t2,a5,0x10
     73c:	0103d613          	srli	a2,t2,0x10
     740:	00755813          	srli	a6,a0,0x7
     744:	01f64533          	xor	a0,a2,t6
     748:	00157693          	andi	a3,a0,1
     74c:	00165f93          	srli	t6,a2,0x1
     750:	00068c63          	beqz	a3,768 <crcu8+0x104>
     754:	ffffa8b7          	lui	a7,0xffffa
     758:	00188e13          	addi	t3,a7,1 # ffffa001 <__kernel_stack+0xdff3a009>
     75c:	01cfceb3          	xor	t4,t6,t3
     760:	010e9f13          	slli	t5,t4,0x10
     764:	010f5f93          	srli	t6,t5,0x10
     768:	001ff713          	andi	a4,t6,1
     76c:	001fd513          	srli	a0,t6,0x1
     770:	01070c63          	beq	a4,a6,788 <crcu8+0x124>
     774:	ffffa337          	lui	t1,0xffffa
     778:	00130593          	addi	a1,t1,1 # ffffa001 <__kernel_stack+0xdff3a009>
     77c:	00b547b3          	xor	a5,a0,a1
     780:	01079393          	slli	t2,a5,0x10
     784:	0103d513          	srli	a0,t2,0x10
     788:	00008067          	ret
     78c:	0015d313          	srli	t1,a1,0x1
     790:	ffffa5b7          	lui	a1,0xffffa
     794:	00158393          	addi	t2,a1,1 # ffffa001 <__kernel_stack+0xdff3a009>
     798:	00734633          	xor	a2,t1,t2
     79c:	01061693          	slli	a3,a2,0x10
     7a0:	0106d813          	srli	a6,a3,0x10
     7a4:	ed5ff06f          	j	678 <crcu8+0x14>

000007a8 <crcu16>:
     7a8:	00a5c6b3          	xor	a3,a1,a0
     7ac:	0ff57793          	andi	a5,a0,255
     7b0:	0016f293          	andi	t0,a3,1
     7b4:	0017d713          	srli	a4,a5,0x1
     7b8:	0015d893          	srli	a7,a1,0x1
     7bc:	00028c63          	beqz	t0,7d4 <crcu16+0x2c>
     7c0:	ffffa337          	lui	t1,0xffffa
     7c4:	00130393          	addi	t2,t1,1 # ffffa001 <__kernel_stack+0xdff3a009>
     7c8:	0078c5b3          	xor	a1,a7,t2
     7cc:	01059613          	slli	a2,a1,0x10
     7d0:	01065893          	srli	a7,a2,0x10
     7d4:	00e8ceb3          	xor	t4,a7,a4
     7d8:	001eff13          	andi	t5,t4,1
     7dc:	0027de13          	srli	t3,a5,0x2
     7e0:	0018d813          	srli	a6,a7,0x1
     7e4:	000f0c63          	beqz	t5,7fc <crcu16+0x54>
     7e8:	ffffafb7          	lui	t6,0xffffa
     7ec:	001f8713          	addi	a4,t6,1 # ffffa001 <__kernel_stack+0xdff3a009>
     7f0:	00e846b3          	xor	a3,a6,a4
     7f4:	01069293          	slli	t0,a3,0x10
     7f8:	0102d813          	srli	a6,t0,0x10
     7fc:	01c843b3          	xor	t2,a6,t3
     800:	0013f613          	andi	a2,t2,1
     804:	0037d313          	srli	t1,a5,0x3
     808:	00185f13          	srli	t5,a6,0x1
     80c:	00060c63          	beqz	a2,824 <crcu16+0x7c>
     810:	ffffa8b7          	lui	a7,0xffffa
     814:	00188e13          	addi	t3,a7,1 # ffffa001 <__kernel_stack+0xdff3a009>
     818:	01cf45b3          	xor	a1,t5,t3
     81c:	01059e93          	slli	t4,a1,0x10
     820:	010edf13          	srli	t5,t4,0x10
     824:	006f4733          	xor	a4,t5,t1
     828:	00177693          	andi	a3,a4,1
     82c:	0047df93          	srli	t6,a5,0x4
     830:	001f5613          	srli	a2,t5,0x1
     834:	00068c63          	beqz	a3,84c <crcu16+0xa4>
     838:	ffffa2b7          	lui	t0,0xffffa
     83c:	00128813          	addi	a6,t0,1 # ffffa001 <__kernel_stack+0xdff3a009>
     840:	01064333          	xor	t1,a2,a6
     844:	01031393          	slli	t2,t1,0x10
     848:	0103d613          	srli	a2,t2,0x10
     84c:	01f64e33          	xor	t3,a2,t6
     850:	001e7e93          	andi	t4,t3,1
     854:	0057d893          	srli	a7,a5,0x5
     858:	00165293          	srli	t0,a2,0x1
     85c:	000e8c63          	beqz	t4,874 <crcu16+0xcc>
     860:	ffffaf37          	lui	t5,0xffffa
     864:	001f0f93          	addi	t6,t5,1 # ffffa001 <__kernel_stack+0xdff3a009>
     868:	01f2c5b3          	xor	a1,t0,t6
     86c:	01059713          	slli	a4,a1,0x10
     870:	01075293          	srli	t0,a4,0x10
     874:	0112c833          	xor	a6,t0,a7
     878:	00187313          	andi	t1,a6,1
     87c:	0067d693          	srli	a3,a5,0x6
     880:	0012de93          	srli	t4,t0,0x1
     884:	00030c63          	beqz	t1,89c <crcu16+0xf4>
     888:	ffffa3b7          	lui	t2,0xffffa
     88c:	00138893          	addi	a7,t2,1 # ffffa001 <__kernel_stack+0xdff3a009>
     890:	011ec633          	xor	a2,t4,a7
     894:	01061e13          	slli	t3,a2,0x10
     898:	010e5e93          	srli	t4,t3,0x10
     89c:	0077df13          	srli	t5,a5,0x7
     8a0:	00dec7b3          	xor	a5,t4,a3
     8a4:	0017ff93          	andi	t6,a5,1
     8a8:	001ed813          	srli	a6,t4,0x1
     8ac:	000f8c63          	beqz	t6,8c4 <crcu16+0x11c>
     8b0:	ffffa5b7          	lui	a1,0xffffa
     8b4:	00158713          	addi	a4,a1,1 # ffffa001 <__kernel_stack+0xdff3a009>
     8b8:	00e842b3          	xor	t0,a6,a4
     8bc:	01029693          	slli	a3,t0,0x10
     8c0:	0106d813          	srli	a6,a3,0x10
     8c4:	00187313          	andi	t1,a6,1
     8c8:	00185e93          	srli	t4,a6,0x1
     8cc:	15e31663          	bne	t1,t5,a18 <crcu16+0x270>
     8d0:	00855f13          	srli	t5,a0,0x8
     8d4:	01df47b3          	xor	a5,t5,t4
     8d8:	0017f593          	andi	a1,a5,1
     8dc:	000f0f93          	mv	t6,t5
     8e0:	00955513          	srli	a0,a0,0x9
     8e4:	001ed313          	srli	t1,t4,0x1
     8e8:	00058c63          	beqz	a1,900 <crcu16+0x158>
     8ec:	ffffa737          	lui	a4,0xffffa
     8f0:	00170293          	addi	t0,a4,1 # ffffa001 <__kernel_stack+0xdff3a009>
     8f4:	005346b3          	xor	a3,t1,t0
     8f8:	01069813          	slli	a6,a3,0x10
     8fc:	01085313          	srli	t1,a6,0x10
     900:	00a348b3          	xor	a7,t1,a0
     904:	0018f613          	andi	a2,a7,1
     908:	002fd393          	srli	t2,t6,0x2
     90c:	00135793          	srli	a5,t1,0x1
     910:	00060c63          	beqz	a2,928 <crcu16+0x180>
     914:	ffffae37          	lui	t3,0xffffa
     918:	001e0e93          	addi	t4,t3,1 # ffffa001 <__kernel_stack+0xdff3a009>
     91c:	01d7cf33          	xor	t5,a5,t4
     920:	010f1513          	slli	a0,t5,0x10
     924:	01055793          	srli	a5,a0,0x10
     928:	0077c733          	xor	a4,a5,t2
     92c:	00177293          	andi	t0,a4,1
     930:	003fd593          	srli	a1,t6,0x3
     934:	0017d893          	srli	a7,a5,0x1
     938:	00028c63          	beqz	t0,950 <crcu16+0x1a8>
     93c:	ffffa6b7          	lui	a3,0xffffa
     940:	00168813          	addi	a6,a3,1 # ffffa001 <__kernel_stack+0xdff3a009>
     944:	0108c333          	xor	t1,a7,a6
     948:	01031393          	slli	t2,t1,0x10
     94c:	0103d893          	srli	a7,t2,0x10
     950:	00b8c633          	xor	a2,a7,a1
     954:	00167e93          	andi	t4,a2,1
     958:	004fde13          	srli	t3,t6,0x4
     95c:	0018d713          	srli	a4,a7,0x1
     960:	000e8c63          	beqz	t4,978 <crcu16+0x1d0>
     964:	ffffaf37          	lui	t5,0xffffa
     968:	001f0513          	addi	a0,t5,1 # ffffa001 <__kernel_stack+0xdff3a009>
     96c:	00a747b3          	xor	a5,a4,a0
     970:	01079593          	slli	a1,a5,0x10
     974:	0105d713          	srli	a4,a1,0x10
     978:	01c746b3          	xor	a3,a4,t3
     97c:	0016f813          	andi	a6,a3,1
     980:	005fd293          	srli	t0,t6,0x5
     984:	00175e93          	srli	t4,a4,0x1
     988:	00080c63          	beqz	a6,9a0 <crcu16+0x1f8>
     98c:	ffffa337          	lui	t1,0xffffa
     990:	00130393          	addi	t2,t1,1 # ffffa001 <__kernel_stack+0xdff3a009>
     994:	007ec8b3          	xor	a7,t4,t2
     998:	01089e13          	slli	t3,a7,0x10
     99c:	010e5e93          	srli	t4,t3,0x10
     9a0:	005ec633          	xor	a2,t4,t0
     9a4:	00167513          	andi	a0,a2,1
     9a8:	006fdf13          	srli	t5,t6,0x6
     9ac:	001ed813          	srli	a6,t4,0x1
     9b0:	00050c63          	beqz	a0,9c8 <crcu16+0x220>
     9b4:	ffffa5b7          	lui	a1,0xffffa
     9b8:	00158713          	addi	a4,a1,1 # ffffa001 <__kernel_stack+0xdff3a009>
     9bc:	00e847b3          	xor	a5,a6,a4
     9c0:	01079293          	slli	t0,a5,0x10
     9c4:	0102d813          	srli	a6,t0,0x10
     9c8:	01e846b3          	xor	a3,a6,t5
     9cc:	0016f313          	andi	t1,a3,1
     9d0:	007fdf93          	srli	t6,t6,0x7
     9d4:	00185f13          	srli	t5,a6,0x1
     9d8:	00030c63          	beqz	t1,9f0 <crcu16+0x248>
     9dc:	ffffa3b7          	lui	t2,0xffffa
     9e0:	00138893          	addi	a7,t2,1 # ffffa001 <__kernel_stack+0xdff3a009>
     9e4:	011f4e33          	xor	t3,t5,a7
     9e8:	010e1e93          	slli	t4,t3,0x10
     9ec:	010edf13          	srli	t5,t4,0x10
     9f0:	001f7613          	andi	a2,t5,1
     9f4:	001f5513          	srli	a0,t5,0x1
     9f8:	01f60e63          	beq	a2,t6,a14 <crcu16+0x26c>
     9fc:	00050593          	mv	a1,a0
     a00:	ffffa537          	lui	a0,0xffffa
     a04:	00150713          	addi	a4,a0,1 # ffffa001 <__kernel_stack+0xdff3a009>
     a08:	00e5c7b3          	xor	a5,a1,a4
     a0c:	01079293          	slli	t0,a5,0x10
     a10:	0102d513          	srli	a0,t0,0x10
     a14:	00008067          	ret
     a18:	ffffa3b7          	lui	t2,0xffffa
     a1c:	00138893          	addi	a7,t2,1 # ffffa001 <__kernel_stack+0xdff3a009>
     a20:	011ec633          	xor	a2,t4,a7
     a24:	01061e13          	slli	t3,a2,0x10
     a28:	010e5e93          	srli	t4,t3,0x10
     a2c:	ea5ff06f          	j	8d0 <crcu16+0x128>

00000a30 <crcu32>:
     a30:	00a5c633          	xor	a2,a1,a0
     a34:	01051713          	slli	a4,a0,0x10
     a38:	0ff57793          	andi	a5,a0,255
     a3c:	00167313          	andi	t1,a2,1
     a40:	01075293          	srli	t0,a4,0x10
     a44:	0017d693          	srli	a3,a5,0x1
     a48:	0015de93          	srli	t4,a1,0x1
     a4c:	00030c63          	beqz	t1,a64 <crcu32+0x34>
     a50:	ffffa3b7          	lui	t2,0xffffa
     a54:	00138593          	addi	a1,t2,1 # ffffa001 <__kernel_stack+0xdff3a009>
     a58:	00bec8b3          	xor	a7,t4,a1
     a5c:	01089e13          	slli	t3,a7,0x10
     a60:	010e5e93          	srli	t4,t3,0x10
     a64:	00decfb3          	xor	t6,t4,a3
     a68:	001ff713          	andi	a4,t6,1
     a6c:	0027df13          	srli	t5,a5,0x2
     a70:	001ed393          	srli	t2,t4,0x1
     a74:	00070c63          	beqz	a4,a8c <crcu32+0x5c>
     a78:	ffffa6b7          	lui	a3,0xffffa
     a7c:	00168613          	addi	a2,a3,1 # ffffa001 <__kernel_stack+0xdff3a009>
     a80:	00c3c333          	xor	t1,t2,a2
     a84:	01031813          	slli	a6,t1,0x10
     a88:	01085393          	srli	t2,a6,0x10
     a8c:	01e3c8b3          	xor	a7,t2,t5
     a90:	0018fe13          	andi	t3,a7,1
     a94:	0037d593          	srli	a1,a5,0x3
     a98:	0013d313          	srli	t1,t2,0x1
     a9c:	000e0c63          	beqz	t3,ab4 <crcu32+0x84>
     aa0:	ffffaeb7          	lui	t4,0xffffa
     aa4:	001e8f13          	addi	t5,t4,1 # ffffa001 <__kernel_stack+0xdff3a009>
     aa8:	01e34fb3          	xor	t6,t1,t5
     aac:	010f9713          	slli	a4,t6,0x10
     ab0:	01075313          	srli	t1,a4,0x10
     ab4:	00b346b3          	xor	a3,t1,a1
     ab8:	0016f813          	andi	a6,a3,1
     abc:	0047d613          	srli	a2,a5,0x4
     ac0:	00135e93          	srli	t4,t1,0x1
     ac4:	00080c63          	beqz	a6,adc <crcu32+0xac>
     ac8:	ffffa3b7          	lui	t2,0xffffa
     acc:	00138893          	addi	a7,t2,1 # ffffa001 <__kernel_stack+0xdff3a009>
     ad0:	011ec5b3          	xor	a1,t4,a7
     ad4:	01059e13          	slli	t3,a1,0x10
     ad8:	010e5e93          	srli	t4,t3,0x10
     adc:	00cecfb3          	xor	t6,t4,a2
     ae0:	001ff713          	andi	a4,t6,1
     ae4:	0057df13          	srli	t5,a5,0x5
     ae8:	001ed393          	srli	t2,t4,0x1
     aec:	00070c63          	beqz	a4,b04 <crcu32+0xd4>
     af0:	ffffa337          	lui	t1,0xffffa
     af4:	00130613          	addi	a2,t1,1 # ffffa001 <__kernel_stack+0xdff3a009>
     af8:	00c3c6b3          	xor	a3,t2,a2
     afc:	01069813          	slli	a6,a3,0x10
     b00:	01085393          	srli	t2,a6,0x10
     b04:	01e3c5b3          	xor	a1,t2,t5
     b08:	0015fe13          	andi	t3,a1,1
     b0c:	0067d893          	srli	a7,a5,0x6
     b10:	0013d313          	srli	t1,t2,0x1
     b14:	000e0c63          	beqz	t3,b2c <crcu32+0xfc>
     b18:	ffffaeb7          	lui	t4,0xffffa
     b1c:	001e8f13          	addi	t5,t4,1 # ffffa001 <__kernel_stack+0xdff3a009>
     b20:	01e34fb3          	xor	t6,t1,t5
     b24:	010f9713          	slli	a4,t6,0x10
     b28:	01075313          	srli	t1,a4,0x10
     b2c:	0077d693          	srli	a3,a5,0x7
     b30:	011347b3          	xor	a5,t1,a7
     b34:	0017f613          	andi	a2,a5,1
     b38:	00135e13          	srli	t3,t1,0x1
     b3c:	00060c63          	beqz	a2,b54 <crcu32+0x124>
     b40:	ffffa837          	lui	a6,0xffffa
     b44:	00180393          	addi	t2,a6,1 # ffffa001 <__kernel_stack+0xdff3a009>
     b48:	007e48b3          	xor	a7,t3,t2
     b4c:	01089593          	slli	a1,a7,0x10
     b50:	0105de13          	srli	t3,a1,0x10
     b54:	001e7e93          	andi	t4,t3,1
     b58:	001e5793          	srli	a5,t3,0x1
     b5c:	3cde9c63          	bne	t4,a3,f34 <crcu32+0x504>
     b60:	0082d613          	srli	a2,t0,0x8
     b64:	00c7c833          	xor	a6,a5,a2
     b68:	00187393          	andi	t2,a6,1
     b6c:	00060693          	mv	a3,a2
     b70:	0092d293          	srli	t0,t0,0x9
     b74:	0017df13          	srli	t5,a5,0x1
     b78:	00038c63          	beqz	t2,b90 <crcu32+0x160>
     b7c:	ffffa8b7          	lui	a7,0xffffa
     b80:	00188593          	addi	a1,a7,1 # ffffa001 <__kernel_stack+0xdff3a009>
     b84:	00bf4e33          	xor	t3,t5,a1
     b88:	010e1e93          	slli	t4,t3,0x10
     b8c:	010edf13          	srli	t5,t4,0x10
     b90:	005f4733          	xor	a4,t5,t0
     b94:	00177313          	andi	t1,a4,1
     b98:	0026df93          	srli	t6,a3,0x2
     b9c:	001f5393          	srli	t2,t5,0x1
     ba0:	00030c63          	beqz	t1,bb8 <crcu32+0x188>
     ba4:	ffffa637          	lui	a2,0xffffa
     ba8:	00160293          	addi	t0,a2,1 # ffffa001 <__kernel_stack+0xdff3a009>
     bac:	0053c7b3          	xor	a5,t2,t0
     bb0:	01079813          	slli	a6,a5,0x10
     bb4:	01085393          	srli	t2,a6,0x10
     bb8:	01f3c5b3          	xor	a1,t2,t6
     bbc:	0015fe13          	andi	t3,a1,1
     bc0:	0036d893          	srli	a7,a3,0x3
     bc4:	0013d313          	srli	t1,t2,0x1
     bc8:	000e0c63          	beqz	t3,be0 <crcu32+0x1b0>
     bcc:	ffffaeb7          	lui	t4,0xffffa
     bd0:	001e8f13          	addi	t5,t4,1 # ffffa001 <__kernel_stack+0xdff3a009>
     bd4:	01e34fb3          	xor	t6,t1,t5
     bd8:	010f9713          	slli	a4,t6,0x10
     bdc:	01075313          	srli	t1,a4,0x10
     be0:	01134633          	xor	a2,t1,a7
     be4:	00167813          	andi	a6,a2,1
     be8:	0046d293          	srli	t0,a3,0x4
     bec:	00135e13          	srli	t3,t1,0x1
     bf0:	00080c63          	beqz	a6,c08 <crcu32+0x1d8>
     bf4:	ffffa3b7          	lui	t2,0xffffa
     bf8:	00138893          	addi	a7,t2,1 # ffffa001 <__kernel_stack+0xdff3a009>
     bfc:	011e47b3          	xor	a5,t3,a7
     c00:	01079593          	slli	a1,a5,0x10
     c04:	0105de13          	srli	t3,a1,0x10
     c08:	005e4f33          	xor	t5,t3,t0
     c0c:	001f7f93          	andi	t6,t5,1
     c10:	0056de93          	srli	t4,a3,0x5
     c14:	001e5813          	srli	a6,t3,0x1
     c18:	000f8c63          	beqz	t6,c30 <crcu32+0x200>
     c1c:	ffffa737          	lui	a4,0xffffa
     c20:	00170313          	addi	t1,a4,1 # ffffa001 <__kernel_stack+0xdff3a009>
     c24:	006842b3          	xor	t0,a6,t1
     c28:	01029613          	slli	a2,t0,0x10
     c2c:	01065813          	srli	a6,a2,0x10
     c30:	01d848b3          	xor	a7,a6,t4
     c34:	0018f593          	andi	a1,a7,1
     c38:	0066d393          	srli	t2,a3,0x6
     c3c:	00185f93          	srli	t6,a6,0x1
     c40:	00058c63          	beqz	a1,c58 <crcu32+0x228>
     c44:	ffffae37          	lui	t3,0xffffa
     c48:	001e0e93          	addi	t4,t3,1 # ffffa001 <__kernel_stack+0xdff3a009>
     c4c:	01dfc7b3          	xor	a5,t6,t4
     c50:	01079f13          	slli	t5,a5,0x10
     c54:	010f5f93          	srli	t6,t5,0x10
     c58:	007fc733          	xor	a4,t6,t2
     c5c:	00177313          	andi	t1,a4,1
     c60:	0076d693          	srli	a3,a3,0x7
     c64:	001fd893          	srli	a7,t6,0x1
     c68:	00030c63          	beqz	t1,c80 <crcu32+0x250>
     c6c:	ffffa2b7          	lui	t0,0xffffa
     c70:	00128613          	addi	a2,t0,1 # ffffa001 <__kernel_stack+0xdff3a009>
     c74:	00c8c833          	xor	a6,a7,a2
     c78:	01081393          	slli	t2,a6,0x10
     c7c:	0103d893          	srli	a7,t2,0x10
     c80:	0018f593          	andi	a1,a7,1
     c84:	0018d713          	srli	a4,a7,0x1
     c88:	28d59a63          	bne	a1,a3,f1c <crcu32+0x4ec>
     c8c:	01055693          	srli	a3,a0,0x10
     c90:	00d74633          	xor	a2,a4,a3
     c94:	0ff6f313          	andi	t1,a3,255
     c98:	00167813          	andi	a6,a2,1
     c9c:	00068513          	mv	a0,a3
     ca0:	00135293          	srli	t0,t1,0x1
     ca4:	00175e93          	srli	t4,a4,0x1
     ca8:	00080c63          	beqz	a6,cc0 <crcu32+0x290>
     cac:	ffffa3b7          	lui	t2,0xffffa
     cb0:	00138893          	addi	a7,t2,1 # ffffa001 <__kernel_stack+0xdff3a009>
     cb4:	011ec5b3          	xor	a1,t4,a7
     cb8:	01059e13          	slli	t3,a1,0x10
     cbc:	010e5e93          	srli	t4,t3,0x10
     cc0:	005ecf33          	xor	t5,t4,t0
     cc4:	001f7f93          	andi	t6,t5,1
     cc8:	00235793          	srli	a5,t1,0x2
     ccc:	001ed813          	srli	a6,t4,0x1
     cd0:	000f8c63          	beqz	t6,ce8 <crcu32+0x2b8>
     cd4:	ffffa6b7          	lui	a3,0xffffa
     cd8:	00168293          	addi	t0,a3,1 # ffffa001 <__kernel_stack+0xdff3a009>
     cdc:	00584733          	xor	a4,a6,t0
     ce0:	01071613          	slli	a2,a4,0x10
     ce4:	01065813          	srli	a6,a2,0x10
     ce8:	00f848b3          	xor	a7,a6,a5
     cec:	0018f593          	andi	a1,a7,1
     cf0:	00335393          	srli	t2,t1,0x3
     cf4:	00185f93          	srli	t6,a6,0x1
     cf8:	00058c63          	beqz	a1,d10 <crcu32+0x2e0>
     cfc:	ffffae37          	lui	t3,0xffffa
     d00:	001e0e93          	addi	t4,t3,1 # ffffa001 <__kernel_stack+0xdff3a009>
     d04:	01dfc7b3          	xor	a5,t6,t4
     d08:	01079f13          	slli	t5,a5,0x10
     d0c:	010f5f93          	srli	t6,t5,0x10
     d10:	007fc6b3          	xor	a3,t6,t2
     d14:	0016f613          	andi	a2,a3,1
     d18:	00435293          	srli	t0,t1,0x4
     d1c:	001fd593          	srli	a1,t6,0x1
     d20:	00060c63          	beqz	a2,d38 <crcu32+0x308>
     d24:	ffffa837          	lui	a6,0xffffa
     d28:	00180393          	addi	t2,a6,1 # ffffa001 <__kernel_stack+0xdff3a009>
     d2c:	0075c733          	xor	a4,a1,t2
     d30:	01071893          	slli	a7,a4,0x10
     d34:	0108d593          	srli	a1,a7,0x10
     d38:	0055ceb3          	xor	t4,a1,t0
     d3c:	001ef793          	andi	a5,t4,1
     d40:	00535e13          	srli	t3,t1,0x5
     d44:	0015d813          	srli	a6,a1,0x1
     d48:	00078c63          	beqz	a5,d60 <crcu32+0x330>
     d4c:	ffffaf37          	lui	t5,0xffffa
     d50:	001f0f93          	addi	t6,t5,1 # ffffa001 <__kernel_stack+0xdff3a009>
     d54:	01f842b3          	xor	t0,a6,t6
     d58:	01029693          	slli	a3,t0,0x10
     d5c:	0106d813          	srli	a6,a3,0x10
     d60:	01c843b3          	xor	t2,a6,t3
     d64:	0013f893          	andi	a7,t2,1
     d68:	00635613          	srli	a2,t1,0x6
     d6c:	00185f13          	srli	t5,a6,0x1
     d70:	00088c63          	beqz	a7,d88 <crcu32+0x358>
     d74:	ffffa5b7          	lui	a1,0xffffa
     d78:	00158e13          	addi	t3,a1,1 # ffffa001 <__kernel_stack+0xdff3a009>
     d7c:	01cf4733          	xor	a4,t5,t3
     d80:	01071e93          	slli	t4,a4,0x10
     d84:	010edf13          	srli	t5,t4,0x10
     d88:	00cf47b3          	xor	a5,t5,a2
     d8c:	0017ff93          	andi	t6,a5,1
     d90:	00735313          	srli	t1,t1,0x7
     d94:	001f5393          	srli	t2,t5,0x1
     d98:	000f8c63          	beqz	t6,db0 <crcu32+0x380>
     d9c:	ffffa2b7          	lui	t0,0xffffa
     da0:	00128693          	addi	a3,t0,1 # ffffa001 <__kernel_stack+0xdff3a009>
     da4:	00d3c833          	xor	a6,t2,a3
     da8:	01081613          	slli	a2,a6,0x10
     dac:	01065393          	srli	t2,a2,0x10
     db0:	0013f893          	andi	a7,t2,1
     db4:	0013df13          	srli	t5,t2,0x1
     db8:	14689663          	bne	a7,t1,f04 <crcu32+0x4d4>
     dbc:	00855313          	srli	t1,a0,0x8
     dc0:	01e347b3          	xor	a5,t1,t5
     dc4:	0017f293          	andi	t0,a5,1
     dc8:	00030f93          	mv	t6,t1
     dcc:	00955513          	srli	a0,a0,0x9
     dd0:	001f5893          	srli	a7,t5,0x1
     dd4:	00028c63          	beqz	t0,dec <crcu32+0x3bc>
     dd8:	ffffa6b7          	lui	a3,0xffffa
     ddc:	00168813          	addi	a6,a3,1 # ffffa001 <__kernel_stack+0xdff3a009>
     de0:	0108c633          	xor	a2,a7,a6
     de4:	01061393          	slli	t2,a2,0x10
     de8:	0103d893          	srli	a7,t2,0x10
     dec:	01154e33          	xor	t3,a0,a7
     df0:	001e7713          	andi	a4,t3,1
     df4:	002fd593          	srli	a1,t6,0x2
     df8:	0018d793          	srli	a5,a7,0x1
     dfc:	00070c63          	beqz	a4,e14 <crcu32+0x3e4>
     e00:	ffffaeb7          	lui	t4,0xffffa
     e04:	001e8f13          	addi	t5,t4,1 # ffffa001 <__kernel_stack+0xdff3a009>
     e08:	01e7c333          	xor	t1,a5,t5
     e0c:	01031513          	slli	a0,t1,0x10
     e10:	01055793          	srli	a5,a0,0x10
     e14:	00f5c6b3          	xor	a3,a1,a5
     e18:	0016f813          	andi	a6,a3,1
     e1c:	003fd293          	srli	t0,t6,0x3
     e20:	0017de13          	srli	t3,a5,0x1
     e24:	00080c63          	beqz	a6,e3c <crcu32+0x40c>
     e28:	ffffa637          	lui	a2,0xffffa
     e2c:	00160393          	addi	t2,a2,1 # ffffa001 <__kernel_stack+0xdff3a009>
     e30:	007e48b3          	xor	a7,t3,t2
     e34:	01089593          	slli	a1,a7,0x10
     e38:	0105de13          	srli	t3,a1,0x10
     e3c:	005e4eb3          	xor	t4,t3,t0
     e40:	001eff13          	andi	t5,t4,1
     e44:	004fd713          	srli	a4,t6,0x4
     e48:	001e5813          	srli	a6,t3,0x1
     e4c:	000f0c63          	beqz	t5,e64 <crcu32+0x434>
     e50:	ffffa337          	lui	t1,0xffffa
     e54:	00130513          	addi	a0,t1,1 # ffffa001 <__kernel_stack+0xdff3a009>
     e58:	00a847b3          	xor	a5,a6,a0
     e5c:	01079293          	slli	t0,a5,0x10
     e60:	0102d813          	srli	a6,t0,0x10
     e64:	00e846b3          	xor	a3,a6,a4
     e68:	0016f393          	andi	t2,a3,1
     e6c:	005fd613          	srli	a2,t6,0x5
     e70:	00185e93          	srli	t4,a6,0x1
     e74:	00038c63          	beqz	t2,e8c <crcu32+0x45c>
     e78:	ffffa8b7          	lui	a7,0xffffa
     e7c:	00188593          	addi	a1,a7,1 # ffffa001 <__kernel_stack+0xdff3a009>
     e80:	00bece33          	xor	t3,t4,a1
     e84:	010e1713          	slli	a4,t3,0x10
     e88:	01075e93          	srli	t4,a4,0x10
     e8c:	00cec333          	xor	t1,t4,a2
     e90:	00137513          	andi	a0,t1,1
     e94:	006fdf13          	srli	t5,t6,0x6
     e98:	001ed393          	srli	t2,t4,0x1
     e9c:	00050c63          	beqz	a0,eb4 <crcu32+0x484>
     ea0:	ffffa2b7          	lui	t0,0xffffa
     ea4:	00128813          	addi	a6,t0,1 # ffffa001 <__kernel_stack+0xdff3a009>
     ea8:	0103c7b3          	xor	a5,t2,a6
     eac:	01079613          	slli	a2,a5,0x10
     eb0:	01065393          	srli	t2,a2,0x10
     eb4:	01e3c6b3          	xor	a3,t2,t5
     eb8:	0016f893          	andi	a7,a3,1
     ebc:	007fdf93          	srli	t6,t6,0x7
     ec0:	0013df13          	srli	t5,t2,0x1
     ec4:	00088c63          	beqz	a7,edc <crcu32+0x4ac>
     ec8:	ffffa5b7          	lui	a1,0xffffa
     ecc:	00158e13          	addi	t3,a1,1 # ffffa001 <__kernel_stack+0xdff3a009>
     ed0:	01cf4733          	xor	a4,t5,t3
     ed4:	01071e93          	slli	t4,a4,0x10
     ed8:	010edf13          	srli	t5,t4,0x10
     edc:	001f7313          	andi	t1,t5,1
     ee0:	001f5513          	srli	a0,t5,0x1
     ee4:	01f30e63          	beq	t1,t6,f00 <crcu32+0x4d0>
     ee8:	00050293          	mv	t0,a0
     eec:	ffffa537          	lui	a0,0xffffa
     ef0:	00150813          	addi	a6,a0,1 # ffffa001 <__kernel_stack+0xdff3a009>
     ef4:	0102c7b3          	xor	a5,t0,a6
     ef8:	01079613          	slli	a2,a5,0x10
     efc:	01065513          	srli	a0,a2,0x10
     f00:	00008067          	ret
     f04:	ffffa5b7          	lui	a1,0xffffa
     f08:	00158e13          	addi	t3,a1,1 # ffffa001 <__kernel_stack+0xdff3a009>
     f0c:	01cf4733          	xor	a4,t5,t3
     f10:	01071e93          	slli	t4,a4,0x10
     f14:	010edf13          	srli	t5,t4,0x10
     f18:	ea5ff06f          	j	dbc <crcu32+0x38c>
     f1c:	ffffaeb7          	lui	t4,0xffffa
     f20:	001e8793          	addi	a5,t4,1 # ffffa001 <__kernel_stack+0xdff3a009>
     f24:	00f74f33          	xor	t5,a4,a5
     f28:	010f1f93          	slli	t6,t5,0x10
     f2c:	010fd713          	srli	a4,t6,0x10
     f30:	d5dff06f          	j	c8c <crcu32+0x25c>
     f34:	ffffaf37          	lui	t5,0xffffa
     f38:	001f0f93          	addi	t6,t5,1 # ffffa001 <__kernel_stack+0xdff3a009>
     f3c:	01f7c733          	xor	a4,a5,t6
     f40:	01071313          	slli	t1,a4,0x10
     f44:	01035793          	srli	a5,t1,0x10
     f48:	c19ff06f          	j	b60 <crcu32+0x130>

00000f4c <crc16>:
     f4c:	01051713          	slli	a4,a0,0x10
     f50:	0ff57793          	andi	a5,a0,255
     f54:	00a5c533          	xor	a0,a1,a0
     f58:	00157313          	andi	t1,a0,1
     f5c:	01075293          	srli	t0,a4,0x10
     f60:	0017d693          	srli	a3,a5,0x1
     f64:	0015de13          	srli	t3,a1,0x1
     f68:	00030c63          	beqz	t1,f80 <crc16+0x34>
     f6c:	ffffa637          	lui	a2,0xffffa
     f70:	00160393          	addi	t2,a2,1 # ffffa001 <__kernel_stack+0xdff3a009>
     f74:	007e45b3          	xor	a1,t3,t2
     f78:	01059813          	slli	a6,a1,0x10
     f7c:	01085e13          	srli	t3,a6,0x10
     f80:	00de4f33          	xor	t5,t3,a3
     f84:	001f7f93          	andi	t6,t5,1
     f88:	0027de93          	srli	t4,a5,0x2
     f8c:	001e5893          	srli	a7,t3,0x1
     f90:	000f8c63          	beqz	t6,fa8 <crc16+0x5c>
     f94:	ffffa737          	lui	a4,0xffffa
     f98:	00170693          	addi	a3,a4,1 # ffffa001 <__kernel_stack+0xdff3a009>
     f9c:	00d8c533          	xor	a0,a7,a3
     fa0:	01051313          	slli	t1,a0,0x10
     fa4:	01035893          	srli	a7,t1,0x10
     fa8:	01d8c633          	xor	a2,a7,t4
     fac:	00167593          	andi	a1,a2,1
     fb0:	0037d393          	srli	t2,a5,0x3
     fb4:	0018df93          	srli	t6,a7,0x1
     fb8:	00058c63          	beqz	a1,fd0 <crc16+0x84>
     fbc:	ffffa837          	lui	a6,0xffffa
     fc0:	00180e13          	addi	t3,a6,1 # ffffa001 <__kernel_stack+0xdff3a009>
     fc4:	01cfceb3          	xor	t4,t6,t3
     fc8:	010e9f13          	slli	t5,t4,0x10
     fcc:	010f5f93          	srli	t6,t5,0x10
     fd0:	007fc6b3          	xor	a3,t6,t2
     fd4:	0016f513          	andi	a0,a3,1
     fd8:	0047d713          	srli	a4,a5,0x4
     fdc:	001fd593          	srli	a1,t6,0x1
     fe0:	00050c63          	beqz	a0,ff8 <crc16+0xac>
     fe4:	ffffa337          	lui	t1,0xffffa
     fe8:	00130893          	addi	a7,t1,1 # ffffa001 <__kernel_stack+0xdff3a009>
     fec:	0115c3b3          	xor	t2,a1,a7
     ff0:	01039613          	slli	a2,t2,0x10
     ff4:	01065593          	srli	a1,a2,0x10
     ff8:	00e5ce33          	xor	t3,a1,a4
     ffc:	001e7e93          	andi	t4,t3,1
    1000:	0057d813          	srli	a6,a5,0x5
    1004:	0015d513          	srli	a0,a1,0x1
    1008:	000e8c63          	beqz	t4,1020 <crc16+0xd4>
    100c:	ffffaf37          	lui	t5,0xffffa
    1010:	001f0f93          	addi	t6,t5,1 # ffffa001 <__kernel_stack+0xdff3a009>
    1014:	01f54733          	xor	a4,a0,t6
    1018:	01071693          	slli	a3,a4,0x10
    101c:	0106d513          	srli	a0,a3,0x10
    1020:	010548b3          	xor	a7,a0,a6
    1024:	0018f393          	andi	t2,a7,1
    1028:	0067d313          	srli	t1,a5,0x6
    102c:	00155e93          	srli	t4,a0,0x1
    1030:	00038c63          	beqz	t2,1048 <crc16+0xfc>
    1034:	ffffa637          	lui	a2,0xffffa
    1038:	00160813          	addi	a6,a2,1 # ffffa001 <__kernel_stack+0xdff3a009>
    103c:	010ec5b3          	xor	a1,t4,a6
    1040:	01059e13          	slli	t3,a1,0x10
    1044:	010e5e93          	srli	t4,t3,0x10
    1048:	0077df13          	srli	t5,a5,0x7
    104c:	006ec7b3          	xor	a5,t4,t1
    1050:	0017ff93          	andi	t6,a5,1
    1054:	001ed893          	srli	a7,t4,0x1
    1058:	000f8c63          	beqz	t6,1070 <crc16+0x124>
    105c:	ffffa737          	lui	a4,0xffffa
    1060:	00170693          	addi	a3,a4,1 # ffffa001 <__kernel_stack+0xdff3a009>
    1064:	00d8c533          	xor	a0,a7,a3
    1068:	01051313          	slli	t1,a0,0x10
    106c:	01035893          	srli	a7,t1,0x10
    1070:	0018f393          	andi	t2,a7,1
    1074:	0018de93          	srli	t4,a7,0x1
    1078:	15e39663          	bne	t2,t5,11c4 <crc16+0x278>
    107c:	0082df13          	srli	t5,t0,0x8
    1080:	01df47b3          	xor	a5,t5,t4
    1084:	0017f713          	andi	a4,a5,1
    1088:	000f0f93          	mv	t6,t5
    108c:	0092d293          	srli	t0,t0,0x9
    1090:	001ed393          	srli	t2,t4,0x1
    1094:	00070c63          	beqz	a4,10ac <crc16+0x160>
    1098:	ffffa6b7          	lui	a3,0xffffa
    109c:	00168513          	addi	a0,a3,1 # ffffa001 <__kernel_stack+0xdff3a009>
    10a0:	00a3c333          	xor	t1,t2,a0
    10a4:	01031893          	slli	a7,t1,0x10
    10a8:	0108d393          	srli	t2,a7,0x10
    10ac:	0053c633          	xor	a2,t2,t0
    10b0:	00167593          	andi	a1,a2,1
    10b4:	002fd813          	srli	a6,t6,0x2
    10b8:	0013d793          	srli	a5,t2,0x1
    10bc:	00058c63          	beqz	a1,10d4 <crc16+0x188>
    10c0:	ffffae37          	lui	t3,0xffffa
    10c4:	001e0e93          	addi	t4,t3,1 # ffffa001 <__kernel_stack+0xdff3a009>
    10c8:	01d7cf33          	xor	t5,a5,t4
    10cc:	010f1293          	slli	t0,t5,0x10
    10d0:	0102d793          	srli	a5,t0,0x10
    10d4:	0107c733          	xor	a4,a5,a6
    10d8:	00177513          	andi	a0,a4,1
    10dc:	003fd693          	srli	a3,t6,0x3
    10e0:	0017d593          	srli	a1,a5,0x1
    10e4:	00050c63          	beqz	a0,10fc <crc16+0x1b0>
    10e8:	ffffa337          	lui	t1,0xffffa
    10ec:	00130893          	addi	a7,t1,1 # ffffa001 <__kernel_stack+0xdff3a009>
    10f0:	0115c3b3          	xor	t2,a1,a7
    10f4:	01039813          	slli	a6,t2,0x10
    10f8:	01085593          	srli	a1,a6,0x10
    10fc:	00d5c633          	xor	a2,a1,a3
    1100:	00167e93          	andi	t4,a2,1
    1104:	004fde13          	srli	t3,t6,0x4
    1108:	0015d513          	srli	a0,a1,0x1
    110c:	000e8c63          	beqz	t4,1124 <crc16+0x1d8>
    1110:	ffffaf37          	lui	t5,0xffffa
    1114:	001f0293          	addi	t0,t5,1 # ffffa001 <__kernel_stack+0xdff3a009>
    1118:	005547b3          	xor	a5,a0,t0
    111c:	01079693          	slli	a3,a5,0x10
    1120:	0106d513          	srli	a0,a3,0x10
    1124:	01c54733          	xor	a4,a0,t3
    1128:	00177893          	andi	a7,a4,1
    112c:	005fd313          	srli	t1,t6,0x5
    1130:	00155e93          	srli	t4,a0,0x1
    1134:	00088c63          	beqz	a7,114c <crc16+0x200>
    1138:	ffffa3b7          	lui	t2,0xffffa
    113c:	00138813          	addi	a6,t2,1 # ffffa001 <__kernel_stack+0xdff3a009>
    1140:	010ec5b3          	xor	a1,t4,a6
    1144:	01059e13          	slli	t3,a1,0x10
    1148:	010e5e93          	srli	t4,t3,0x10
    114c:	006ec633          	xor	a2,t4,t1
    1150:	00167293          	andi	t0,a2,1
    1154:	006fdf13          	srli	t5,t6,0x6
    1158:	001ed893          	srli	a7,t4,0x1
    115c:	00028c63          	beqz	t0,1174 <crc16+0x228>
    1160:	ffffa6b7          	lui	a3,0xffffa
    1164:	00168513          	addi	a0,a3,1 # ffffa001 <__kernel_stack+0xdff3a009>
    1168:	00a8c7b3          	xor	a5,a7,a0
    116c:	01079313          	slli	t1,a5,0x10
    1170:	01035893          	srli	a7,t1,0x10
    1174:	01e8c733          	xor	a4,a7,t5
    1178:	00177393          	andi	t2,a4,1
    117c:	007fdf93          	srli	t6,t6,0x7
    1180:	0018df13          	srli	t5,a7,0x1
    1184:	00038c63          	beqz	t2,119c <crc16+0x250>
    1188:	ffffa837          	lui	a6,0xffffa
    118c:	00180593          	addi	a1,a6,1 # ffffa001 <__kernel_stack+0xdff3a009>
    1190:	00bf4e33          	xor	t3,t5,a1
    1194:	010e1e93          	slli	t4,t3,0x10
    1198:	010edf13          	srli	t5,t4,0x10
    119c:	001f7613          	andi	a2,t5,1
    11a0:	001f5513          	srli	a0,t5,0x1
    11a4:	01f60e63          	beq	a2,t6,11c0 <crc16+0x274>
    11a8:	ffffa6b7          	lui	a3,0xffffa
    11ac:	00050293          	mv	t0,a0
    11b0:	00168513          	addi	a0,a3,1 # ffffa001 <__kernel_stack+0xdff3a009>
    11b4:	00a2c7b3          	xor	a5,t0,a0
    11b8:	01079313          	slli	t1,a5,0x10
    11bc:	01035513          	srli	a0,t1,0x10
    11c0:	00008067          	ret
    11c4:	ffffa637          	lui	a2,0xffffa
    11c8:	00160813          	addi	a6,a2,1 # ffffa001 <__kernel_stack+0xdff3a009>
    11cc:	010ec5b3          	xor	a1,t4,a6
    11d0:	01059e13          	slli	t3,a1,0x10
    11d4:	010e5e93          	srli	t4,t3,0x10
    11d8:	ea5ff06f          	j	107c <crc16+0x130>

000011dc <check_data_types>:
    11dc:	00000513          	li	a0,0
    11e0:	00008067          	ret

000011e4 <ecvt>:
    11e4:	f9010113          	addi	sp,sp,-112
    11e8:	06812423          	sw	s0,104(sp)
    11ec:	06912223          	sw	s1,100(sp)
    11f0:	07212023          	sw	s2,96(sp)
    11f4:	05312e23          	sw	s3,92(sp)
    11f8:	06112623          	sw	ra,108(sp)
    11fc:	05412c23          	sw	s4,88(sp)
    1200:	05512a23          	sw	s5,84(sp)
    1204:	05612823          	sw	s6,80(sp)
    1208:	05712623          	sw	s7,76(sp)
    120c:	05812423          	sw	s8,72(sp)
    1210:	05912223          	sw	s9,68(sp)
    1214:	05a12023          	sw	s10,64(sp)
    1218:	03b12e23          	sw	s11,60(sp)
    121c:	04e00293          	li	t0,78
    1220:	00050493          	mv	s1,a0
    1224:	00058413          	mv	s0,a1
    1228:	00068993          	mv	s3,a3
    122c:	00070913          	mv	s2,a4
    1230:	00c2c863          	blt	t0,a2,1240 <ecvt+0x5c>
    1234:	fff64793          	not	a5,a2
    1238:	41f7d093          	srai	ra,a5,0x1f
    123c:	001672b3          	and	t0,a2,ra
    1240:	00000613          	li	a2,0
    1244:	00000693          	li	a3,0
    1248:	00048513          	mv	a0,s1
    124c:	00040593          	mv	a1,s0
    1250:	00512a23          	sw	t0,20(sp)
    1254:	458150ef          	jal	ra,166ac <__ledf2>
    1258:	74054863          	bltz	a0,19a8 <ecvt+0x7c4>
    125c:	00092023          	sw	zero,0(s2)
    1260:	02010613          	addi	a2,sp,32
    1264:	00048513          	mv	a0,s1
    1268:	00040593          	mv	a1,s0
    126c:	53c130ef          	jal	ra,147a8 <modf>
    1270:	02012803          	lw	a6,32(sp)
    1274:	02412883          	lw	a7,36(sp)
    1278:	00050413          	mv	s0,a0
    127c:	00058493          	mv	s1,a1
    1280:	00000613          	li	a2,0
    1284:	00000693          	li	a3,0
    1288:	00080513          	mv	a0,a6
    128c:	00088593          	mv	a1,a7
    1290:	01012023          	sw	a6,0(sp)
    1294:	01112223          	sw	a7,4(sp)
    1298:	2ba150ef          	jal	ra,16552 <__eqdf2>
    129c:	4e050263          	beqz	a0,1780 <ecvt+0x59c>
    12a0:	00019eb7          	lui	t4,0x19
    12a4:	00019f37          	lui	t5,0x19
    12a8:	20001e37          	lui	t3,0x20001
    12ac:	f50eaa03          	lw	s4,-176(t4) # 18f50 <__erodata>
    12b0:	f54eaa83          	lw	s5,-172(t4)
    12b4:	f58f2b03          	lw	s6,-168(t5) # 18f58 <__erodata+0x8>
    12b8:	f5cf2b83          	lw	s7,-164(t5)
    12bc:	918e0c93          	addi	s9,t3,-1768 # 20000918 <CVTBUF>
    12c0:	01d12e23          	sw	t4,28(sp)
    12c4:	00412f03          	lw	t5,4(sp)
    12c8:	00012e83          	lw	t4,0(sp)
    12cc:	050c8c13          	addi	s8,s9,80
    12d0:	01c12c23          	sw	t3,24(sp)
    12d4:	000c0d93          	mv	s11,s8
    12d8:	000e8513          	mv	a0,t4
    12dc:	000f0593          	mv	a1,t5
    12e0:	000a8693          	mv	a3,s5
    12e4:	000a0613          	mv	a2,s4
    12e8:	3df140ef          	jal	ra,15ec6 <__divdf3>
    12ec:	02010613          	addi	a2,sp,32
    12f0:	4b8130ef          	jal	ra,147a8 <modf>
    12f4:	000b0613          	mv	a2,s6
    12f8:	000b8693          	mv	a3,s7
    12fc:	02a12423          	sw	a0,40(sp)
    1300:	02b12623          	sw	a1,44(sp)
    1304:	30a140ef          	jal	ra,1560e <__adddf3>
    1308:	000a0613          	mv	a2,s4
    130c:	000a8693          	mv	a3,s5
    1310:	452150ef          	jal	ra,16762 <__muldf3>
    1314:	2b8160ef          	jal	ra,175cc <__fixdfsi>
    1318:	02012303          	lw	t1,32(sp)
    131c:	02412383          	lw	t2,36(sp)
    1320:	03050293          	addi	t0,a0,48
    1324:	fffd8d93          	addi	s11,s11,-1
    1328:	0ff2fd13          	andi	s10,t0,255
    132c:	00038593          	mv	a1,t2
    1330:	01ad8023          	sb	s10,0(s11)
    1334:	00000613          	li	a2,0
    1338:	00000693          	li	a3,0
    133c:	00030513          	mv	a0,t1
    1340:	01b12023          	sw	s11,0(sp)
    1344:	00612423          	sw	t1,8(sp)
    1348:	00712623          	sw	t2,12(sp)
    134c:	206150ef          	jal	ra,16552 <__eqdf2>
    1350:	00812583          	lw	a1,8(sp)
    1354:	00c12803          	lw	a6,12(sp)
    1358:	41bc0933          	sub	s2,s8,s11
    135c:	08050663          	beqz	a0,13e8 <ecvt+0x204>
    1360:	000a8693          	mv	a3,s5
    1364:	000a0613          	mv	a2,s4
    1368:	00058513          	mv	a0,a1
    136c:	00080593          	mv	a1,a6
    1370:	357140ef          	jal	ra,15ec6 <__divdf3>
    1374:	02010613          	addi	a2,sp,32
    1378:	430130ef          	jal	ra,147a8 <modf>
    137c:	000b0613          	mv	a2,s6
    1380:	000b8693          	mv	a3,s7
    1384:	02a12423          	sw	a0,40(sp)
    1388:	02b12623          	sw	a1,44(sp)
    138c:	282140ef          	jal	ra,1560e <__adddf3>
    1390:	000a0613          	mv	a2,s4
    1394:	000a8693          	mv	a3,s5
    1398:	3ca150ef          	jal	ra,16762 <__muldf3>
    139c:	230160ef          	jal	ra,175cc <__fixdfsi>
    13a0:	02012703          	lw	a4,32(sp)
    13a4:	02412e03          	lw	t3,36(sp)
    13a8:	03050513          	addi	a0,a0,48
    13ac:	fffd8d93          	addi	s11,s11,-1
    13b0:	0ff57d13          	andi	s10,a0,255
    13b4:	01ad8023          	sb	s10,0(s11)
    13b8:	00000613          	li	a2,0
    13bc:	00000693          	li	a3,0
    13c0:	00070513          	mv	a0,a4
    13c4:	000e0593          	mv	a1,t3
    13c8:	01b12023          	sw	s11,0(sp)
    13cc:	00e12423          	sw	a4,8(sp)
    13d0:	01c12623          	sw	t3,12(sp)
    13d4:	17e150ef          	jal	ra,16552 <__eqdf2>
    13d8:	00812e83          	lw	t4,8(sp)
    13dc:	00c12f03          	lw	t5,12(sp)
    13e0:	41bc0933          	sub	s2,s8,s11
    13e4:	ee051ae3          	bnez	a0,12d8 <ecvt+0xf4>
    13e8:	598dfc63          	bgeu	s11,s8,1980 <ecvt+0x79c>
    13ec:	fffdca13          	not	s4,s11
    13f0:	014c0ab3          	add	s5,s8,s4
    13f4:	007afb93          	andi	s7,s5,7
    13f8:	000c8813          	mv	a6,s9
    13fc:	0e0b8a63          	beqz	s7,14f0 <ecvt+0x30c>
    1400:	001d8d93          	addi	s11,s11,1
    1404:	01ac8023          	sb	s10,0(s9)
    1408:	00100f93          	li	t6,1
    140c:	001c8813          	addi	a6,s9,1
    1410:	000dcd03          	lbu	s10,0(s11)
    1414:	0dfb8e63          	beq	s7,t6,14f0 <ecvt+0x30c>
    1418:	00200793          	li	a5,2
    141c:	06fb8a63          	beq	s7,a5,1490 <ecvt+0x2ac>
    1420:	00300293          	li	t0,3
    1424:	045b8e63          	beq	s7,t0,1480 <ecvt+0x29c>
    1428:	00400313          	li	t1,4
    142c:	046b8263          	beq	s7,t1,1470 <ecvt+0x28c>
    1430:	00500393          	li	t2,5
    1434:	027b8663          	beq	s7,t2,1460 <ecvt+0x27c>
    1438:	00600593          	li	a1,6
    143c:	00bb8a63          	beq	s7,a1,1450 <ecvt+0x26c>
    1440:	01ac80a3          	sb	s10,1(s9)
    1444:	001dcd03          	lbu	s10,1(s11)
    1448:	002c8813          	addi	a6,s9,2
    144c:	001d8d93          	addi	s11,s11,1
    1450:	01a80023          	sb	s10,0(a6)
    1454:	001dcd03          	lbu	s10,1(s11)
    1458:	00180813          	addi	a6,a6,1
    145c:	001d8d93          	addi	s11,s11,1
    1460:	01a80023          	sb	s10,0(a6)
    1464:	001dcd03          	lbu	s10,1(s11)
    1468:	00180813          	addi	a6,a6,1
    146c:	001d8d93          	addi	s11,s11,1
    1470:	01a80023          	sb	s10,0(a6)
    1474:	001dcd03          	lbu	s10,1(s11)
    1478:	00180813          	addi	a6,a6,1
    147c:	001d8d93          	addi	s11,s11,1
    1480:	01a80023          	sb	s10,0(a6)
    1484:	001dcd03          	lbu	s10,1(s11)
    1488:	00180813          	addi	a6,a6,1
    148c:	001d8d93          	addi	s11,s11,1
    1490:	001d8d93          	addi	s11,s11,1
    1494:	01a80023          	sb	s10,0(a6)
    1498:	000dcd03          	lbu	s10,0(s11)
    149c:	001d8713          	addi	a4,s11,1
    14a0:	00180813          	addi	a6,a6,1
    14a4:	01a80023          	sb	s10,0(a6)
    14a8:	04ec0a63          	beq	s8,a4,14fc <ecvt+0x318>
    14ac:	001dcb03          	lbu	s6,1(s11)
    14b0:	00880813          	addi	a6,a6,8
    14b4:	008d8d93          	addi	s11,s11,8
    14b8:	ff680ca3          	sb	s6,-7(a6)
    14bc:	ffadcf03          	lbu	t5,-6(s11)
    14c0:	ffe80d23          	sb	t5,-6(a6)
    14c4:	ffbdc083          	lbu	ra,-5(s11)
    14c8:	fe180da3          	sb	ra,-5(a6)
    14cc:	ffcdc683          	lbu	a3,-4(s11)
    14d0:	fed80e23          	sb	a3,-4(a6)
    14d4:	ffddcf83          	lbu	t6,-3(s11)
    14d8:	fff80ea3          	sb	t6,-3(a6)
    14dc:	ffedcb83          	lbu	s7,-2(s11)
    14e0:	ff780f23          	sb	s7,-2(a6)
    14e4:	fffdc283          	lbu	t0,-1(s11)
    14e8:	fe580fa3          	sb	t0,-1(a6)
    14ec:	000dcd03          	lbu	s10,0(s11)
    14f0:	001d8713          	addi	a4,s11,1
    14f4:	01a80023          	sb	s10,0(a6)
    14f8:	faec1ae3          	bne	s8,a4,14ac <ecvt+0x2c8>
    14fc:	00012603          	lw	a2,0(sp)
    1500:	01412503          	lw	a0,20(sp)
    1504:	0129a023          	sw	s2,0(s3)
    1508:	40cc0db3          	sub	s11,s8,a2
    150c:	00ac8b33          	add	s6,s9,a0
    1510:	01bc8db3          	add	s11,s9,s11
    1514:	4b9b6463          	bltu	s6,s9,19bc <ecvt+0x7d8>
    1518:	1bbb6c63          	bltu	s6,s11,16d0 <ecvt+0x4ec>
    151c:	1b8dfa63          	bgeu	s11,s8,16d0 <ecvt+0x4ec>
    1520:	01c12d03          	lw	s10,28(sp)
    1524:	41bb0e33          	sub	t3,s6,s11
    1528:	003e7913          	andi	s2,t3,3
    152c:	f50d2a03          	lw	s4,-176(s10)
    1530:	f54d2a83          	lw	s5,-172(s10)
    1534:	08090c63          	beqz	s2,15cc <ecvt+0x3e8>
    1538:	000a8693          	mv	a3,s5
    153c:	000a0613          	mv	a2,s4
    1540:	00040513          	mv	a0,s0
    1544:	00048593          	mv	a1,s1
    1548:	21a150ef          	jal	ra,16762 <__muldf3>
    154c:	02810613          	addi	a2,sp,40
    1550:	258130ef          	jal	ra,147a8 <modf>
    1554:	00050413          	mv	s0,a0
    1558:	00058493          	mv	s1,a1
    155c:	02812503          	lw	a0,40(sp)
    1560:	02c12583          	lw	a1,44(sp)
    1564:	001d8d93          	addi	s11,s11,1
    1568:	064160ef          	jal	ra,175cc <__fixdfsi>
    156c:	03050e93          	addi	t4,a0,48
    1570:	ffdd8fa3          	sb	t4,-1(s11)
    1574:	15bb6e63          	bltu	s6,s11,16d0 <ecvt+0x4ec>
    1578:	158dfc63          	bgeu	s11,s8,16d0 <ecvt+0x4ec>
    157c:	00100f13          	li	t5,1
    1580:	05e90663          	beq	s2,t5,15cc <ecvt+0x3e8>
    1584:	00200093          	li	ra,2
    1588:	48191a63          	bne	s2,ra,1a1c <ecvt+0x838>
    158c:	000a8693          	mv	a3,s5
    1590:	000a0613          	mv	a2,s4
    1594:	00040513          	mv	a0,s0
    1598:	00048593          	mv	a1,s1
    159c:	1c6150ef          	jal	ra,16762 <__muldf3>
    15a0:	02810613          	addi	a2,sp,40
    15a4:	204130ef          	jal	ra,147a8 <modf>
    15a8:	00050413          	mv	s0,a0
    15ac:	00058493          	mv	s1,a1
    15b0:	02812503          	lw	a0,40(sp)
    15b4:	02c12583          	lw	a1,44(sp)
    15b8:	001d8d93          	addi	s11,s11,1
    15bc:	010160ef          	jal	ra,175cc <__fixdfsi>
    15c0:	03050b93          	addi	s7,a0,48
    15c4:	ff7d8fa3          	sb	s7,-1(s11)
    15c8:	118df463          	bgeu	s11,s8,16d0 <ecvt+0x4ec>
    15cc:	000a8693          	mv	a3,s5
    15d0:	000a0613          	mv	a2,s4
    15d4:	00040513          	mv	a0,s0
    15d8:	00048593          	mv	a1,s1
    15dc:	186150ef          	jal	ra,16762 <__muldf3>
    15e0:	02810613          	addi	a2,sp,40
    15e4:	1c4130ef          	jal	ra,147a8 <modf>
    15e8:	00050493          	mv	s1,a0
    15ec:	00058413          	mv	s0,a1
    15f0:	02812503          	lw	a0,40(sp)
    15f4:	02c12583          	lw	a1,44(sp)
    15f8:	001d8d13          	addi	s10,s11,1
    15fc:	7d1150ef          	jal	ra,175cc <__fixdfsi>
    1600:	03050f93          	addi	t6,a0,48
    1604:	01fd8023          	sb	t6,0(s11)
    1608:	0dab6463          	bltu	s6,s10,16d0 <ecvt+0x4ec>
    160c:	0d8d7263          	bgeu	s10,s8,16d0 <ecvt+0x4ec>
    1610:	000a8693          	mv	a3,s5
    1614:	00048513          	mv	a0,s1
    1618:	000a0613          	mv	a2,s4
    161c:	00040593          	mv	a1,s0
    1620:	142150ef          	jal	ra,16762 <__muldf3>
    1624:	02810613          	addi	a2,sp,40
    1628:	180130ef          	jal	ra,147a8 <modf>
    162c:	00050913          	mv	s2,a0
    1630:	00058b93          	mv	s7,a1
    1634:	02812503          	lw	a0,40(sp)
    1638:	02c12583          	lw	a1,44(sp)
    163c:	002d8493          	addi	s1,s11,2
    1640:	78d150ef          	jal	ra,175cc <__fixdfsi>
    1644:	03050293          	addi	t0,a0,48
    1648:	fe548fa3          	sb	t0,-1(s1)
    164c:	0984f263          	bgeu	s1,s8,16d0 <ecvt+0x4ec>
    1650:	000a8693          	mv	a3,s5
    1654:	000a0613          	mv	a2,s4
    1658:	00090513          	mv	a0,s2
    165c:	000b8593          	mv	a1,s7
    1660:	102150ef          	jal	ra,16762 <__muldf3>
    1664:	02810613          	addi	a2,sp,40
    1668:	140130ef          	jal	ra,147a8 <modf>
    166c:	00050d13          	mv	s10,a0
    1670:	00058913          	mv	s2,a1
    1674:	02812503          	lw	a0,40(sp)
    1678:	02c12583          	lw	a1,44(sp)
    167c:	003d8413          	addi	s0,s11,3
    1680:	74d150ef          	jal	ra,175cc <__fixdfsi>
    1684:	03050313          	addi	t1,a0,48
    1688:	fe640fa3          	sb	t1,-1(s0)
    168c:	05847263          	bgeu	s0,s8,16d0 <ecvt+0x4ec>
    1690:	000a8693          	mv	a3,s5
    1694:	000a0613          	mv	a2,s4
    1698:	000d0513          	mv	a0,s10
    169c:	00090593          	mv	a1,s2
    16a0:	0c2150ef          	jal	ra,16762 <__muldf3>
    16a4:	02810613          	addi	a2,sp,40
    16a8:	100130ef          	jal	ra,147a8 <modf>
    16ac:	00050413          	mv	s0,a0
    16b0:	00058493          	mv	s1,a1
    16b4:	02812503          	lw	a0,40(sp)
    16b8:	02c12583          	lw	a1,44(sp)
    16bc:	004d8d93          	addi	s11,s11,4
    16c0:	70d150ef          	jal	ra,175cc <__fixdfsi>
    16c4:	03050b93          	addi	s7,a0,48
    16c8:	ff7d8fa3          	sb	s7,-1(s11)
    16cc:	f18de0e3          	bltu	s11,s8,15cc <ecvt+0x3e8>
    16d0:	2f8b7a63          	bgeu	s6,s8,19c4 <ecvt+0x7e0>
    16d4:	000b4c03          	lbu	s8,0(s6)
    16d8:	03900813          	li	a6,57
    16dc:	005c0393          	addi	t2,s8,5
    16e0:	0ff3f593          	andi	a1,t2,255
    16e4:	02b87c63          	bgeu	a6,a1,171c <ecvt+0x538>
    16e8:	00bb0023          	sb	a1,0(s6)
    16ec:	000b0893          	mv	a7,s6
    16f0:	03000d93          	li	s11,48
    16f4:	03100613          	li	a2,49
    16f8:	03900513          	li	a0,57
    16fc:	071cf463          	bgeu	s9,a7,1764 <ecvt+0x580>
    1700:	fff8ce03          	lbu	t3,-1(a7)
    1704:	01b88023          	sb	s11,0(a7)
    1708:	fff88893          	addi	a7,a7,-1
    170c:	001e0e93          	addi	t4,t3,1
    1710:	0ffefa93          	andi	s5,t4,255
    1714:	01588023          	sb	s5,0(a7)
    1718:	ff5562e3          	bltu	a0,s5,16fc <ecvt+0x518>
    171c:	000b0023          	sb	zero,0(s6)
    1720:	01812983          	lw	s3,24(sp)
    1724:	06c12083          	lw	ra,108(sp)
    1728:	06812403          	lw	s0,104(sp)
    172c:	06412483          	lw	s1,100(sp)
    1730:	06012903          	lw	s2,96(sp)
    1734:	05812a03          	lw	s4,88(sp)
    1738:	05412a83          	lw	s5,84(sp)
    173c:	05012b03          	lw	s6,80(sp)
    1740:	04c12b83          	lw	s7,76(sp)
    1744:	04812c03          	lw	s8,72(sp)
    1748:	04412c83          	lw	s9,68(sp)
    174c:	04012d03          	lw	s10,64(sp)
    1750:	03c12d83          	lw	s11,60(sp)
    1754:	91898513          	addi	a0,s3,-1768
    1758:	05c12983          	lw	s3,92(sp)
    175c:	07010113          	addi	sp,sp,112
    1760:	00008067          	ret
    1764:	00c88023          	sb	a2,0(a7)
    1768:	0009a703          	lw	a4,0(s3)
    176c:	00170a13          	addi	s4,a4,1
    1770:	0149a023          	sw	s4,0(s3)
    1774:	0008ca83          	lbu	s5,0(a7)
    1778:	f95562e3          	bltu	a0,s5,16fc <ecvt+0x518>
    177c:	fa1ff06f          	j	171c <ecvt+0x538>
    1780:	00000613          	li	a2,0
    1784:	00000693          	li	a3,0
    1788:	00040513          	mv	a0,s0
    178c:	00048593          	mv	a1,s1
    1790:	667140ef          	jal	ra,165f6 <__gedf2>
    1794:	22a05c63          	blez	a0,19cc <ecvt+0x7e8>
    1798:	00019b37          	lui	s6,0x19
    179c:	f50b2603          	lw	a2,-176(s6) # 18f50 <__erodata>
    17a0:	f54b2683          	lw	a3,-172(s6)
    17a4:	00040513          	mv	a0,s0
    17a8:	00048593          	mv	a1,s1
    17ac:	7b7140ef          	jal	ra,16762 <__muldf3>
    17b0:	000196b7          	lui	a3,0x19
    17b4:	f606aa03          	lw	s4,-160(a3) # 18f60 <__erodata+0x10>
    17b8:	f646aa83          	lw	s5,-156(a3)
    17bc:	00050c13          	mv	s8,a0
    17c0:	000a0613          	mv	a2,s4
    17c4:	000a8693          	mv	a3,s5
    17c8:	00058c93          	mv	s9,a1
    17cc:	6e1140ef          	jal	ra,166ac <__ledf2>
    17d0:	00000913          	li	s2,0
    17d4:	18055c63          	bgez	a0,196c <ecvt+0x788>
    17d8:	f54b2b83          	lw	s7,-172(s6)
    17dc:	f50b2d83          	lw	s11,-176(s6)
    17e0:	000d8613          	mv	a2,s11
    17e4:	000b8693          	mv	a3,s7
    17e8:	000c0513          	mv	a0,s8
    17ec:	000c8593          	mv	a1,s9
    17f0:	773140ef          	jal	ra,16762 <__muldf3>
    17f4:	fff90913          	addi	s2,s2,-1
    17f8:	000a0613          	mv	a2,s4
    17fc:	000a8693          	mv	a3,s5
    1800:	000c0413          	mv	s0,s8
    1804:	000c8493          	mv	s1,s9
    1808:	00090d13          	mv	s10,s2
    180c:	00050c13          	mv	s8,a0
    1810:	00058c93          	mv	s9,a1
    1814:	699140ef          	jal	ra,166ac <__ledf2>
    1818:	14055a63          	bgez	a0,196c <ecvt+0x788>
    181c:	000d8613          	mv	a2,s11
    1820:	000b8693          	mv	a3,s7
    1824:	000c0513          	mv	a0,s8
    1828:	000c8593          	mv	a1,s9
    182c:	737140ef          	jal	ra,16762 <__muldf3>
    1830:	000a0613          	mv	a2,s4
    1834:	000a8693          	mv	a3,s5
    1838:	000c0413          	mv	s0,s8
    183c:	000c8493          	mv	s1,s9
    1840:	fff90913          	addi	s2,s2,-1
    1844:	00050c13          	mv	s8,a0
    1848:	00058c93          	mv	s9,a1
    184c:	661140ef          	jal	ra,166ac <__ledf2>
    1850:	10055e63          	bgez	a0,196c <ecvt+0x788>
    1854:	000d8613          	mv	a2,s11
    1858:	000b8693          	mv	a3,s7
    185c:	000c0513          	mv	a0,s8
    1860:	000c8593          	mv	a1,s9
    1864:	6ff140ef          	jal	ra,16762 <__muldf3>
    1868:	000a0613          	mv	a2,s4
    186c:	000a8693          	mv	a3,s5
    1870:	000c0413          	mv	s0,s8
    1874:	000c8493          	mv	s1,s9
    1878:	ffed0913          	addi	s2,s10,-2
    187c:	00050c13          	mv	s8,a0
    1880:	00058c93          	mv	s9,a1
    1884:	629140ef          	jal	ra,166ac <__ledf2>
    1888:	0e055263          	bgez	a0,196c <ecvt+0x788>
    188c:	000d8613          	mv	a2,s11
    1890:	000b8693          	mv	a3,s7
    1894:	000c0513          	mv	a0,s8
    1898:	000c8593          	mv	a1,s9
    189c:	6c7140ef          	jal	ra,16762 <__muldf3>
    18a0:	000a0613          	mv	a2,s4
    18a4:	000a8693          	mv	a3,s5
    18a8:	000c0413          	mv	s0,s8
    18ac:	000c8493          	mv	s1,s9
    18b0:	ffdd0913          	addi	s2,s10,-3
    18b4:	00050c13          	mv	s8,a0
    18b8:	00058c93          	mv	s9,a1
    18bc:	5f1140ef          	jal	ra,166ac <__ledf2>
    18c0:	0a055663          	bgez	a0,196c <ecvt+0x788>
    18c4:	000d8613          	mv	a2,s11
    18c8:	000b8693          	mv	a3,s7
    18cc:	000c0513          	mv	a0,s8
    18d0:	000c8593          	mv	a1,s9
    18d4:	68f140ef          	jal	ra,16762 <__muldf3>
    18d8:	000a0613          	mv	a2,s4
    18dc:	000a8693          	mv	a3,s5
    18e0:	000c0413          	mv	s0,s8
    18e4:	000c8493          	mv	s1,s9
    18e8:	ffcd0913          	addi	s2,s10,-4
    18ec:	00050c13          	mv	s8,a0
    18f0:	00058c93          	mv	s9,a1
    18f4:	5b9140ef          	jal	ra,166ac <__ledf2>
    18f8:	06055a63          	bgez	a0,196c <ecvt+0x788>
    18fc:	000d8613          	mv	a2,s11
    1900:	000b8693          	mv	a3,s7
    1904:	000c0513          	mv	a0,s8
    1908:	000c8593          	mv	a1,s9
    190c:	657140ef          	jal	ra,16762 <__muldf3>
    1910:	000a0613          	mv	a2,s4
    1914:	000a8693          	mv	a3,s5
    1918:	000c0413          	mv	s0,s8
    191c:	000c8493          	mv	s1,s9
    1920:	ffbd0913          	addi	s2,s10,-5
    1924:	00050c13          	mv	s8,a0
    1928:	00058c93          	mv	s9,a1
    192c:	581140ef          	jal	ra,166ac <__ledf2>
    1930:	02055e63          	bgez	a0,196c <ecvt+0x788>
    1934:	000d8613          	mv	a2,s11
    1938:	000b8693          	mv	a3,s7
    193c:	000c0513          	mv	a0,s8
    1940:	000c8593          	mv	a1,s9
    1944:	61f140ef          	jal	ra,16762 <__muldf3>
    1948:	000a0613          	mv	a2,s4
    194c:	000a8693          	mv	a3,s5
    1950:	000c0413          	mv	s0,s8
    1954:	000c8493          	mv	s1,s9
    1958:	ffad0913          	addi	s2,s10,-6
    195c:	00050c13          	mv	s8,a0
    1960:	00058c93          	mv	s9,a1
    1964:	549140ef          	jal	ra,166ac <__ledf2>
    1968:	06054c63          	bltz	a0,19e0 <ecvt+0x7fc>
    196c:	20001737          	lui	a4,0x20001
    1970:	03912623          	sw	s9,44(sp)
    1974:	03812423          	sw	s8,40(sp)
    1978:	00e12c23          	sw	a4,24(sp)
    197c:	91870c93          	addi	s9,a4,-1768 # 20000918 <CVTBUF>
    1980:	01412083          	lw	ra,20(sp)
    1984:	0129a023          	sw	s2,0(s3)
    1988:	001c8b33          	add	s6,s9,ra
    198c:	039b6863          	bltu	s6,s9,19bc <ecvt+0x7d8>
    1990:	200016b7          	lui	a3,0x20001
    1994:	00019937          	lui	s2,0x19
    1998:	000c8d93          	mv	s11,s9
    199c:	96868c13          	addi	s8,a3,-1688 # 20000968 <__malloc_current_mallinfo>
    19a0:	01212e23          	sw	s2,28(sp)
    19a4:	b7dff06f          	j	1520 <ecvt+0x33c>
    19a8:	00100313          	li	t1,1
    19ac:	800003b7          	lui	t2,0x80000
    19b0:	00692023          	sw	t1,0(s2) # 19000 <_global_impure_ptr+0x4>
    19b4:	0083c433          	xor	s0,t2,s0
    19b8:	8a9ff06f          	j	1260 <ecvt+0x7c>
    19bc:	000c8023          	sb	zero,0(s9)
    19c0:	d61ff06f          	j	1720 <ecvt+0x53c>
    19c4:	040c87a3          	sb	zero,79(s9)
    19c8:	d59ff06f          	j	1720 <ecvt+0x53c>
    19cc:	20001637          	lui	a2,0x20001
    19d0:	00000913          	li	s2,0
    19d4:	00c12c23          	sw	a2,24(sp)
    19d8:	91860c93          	addi	s9,a2,-1768 # 20000918 <CVTBUF>
    19dc:	fa5ff06f          	j	1980 <ecvt+0x79c>
    19e0:	000d8613          	mv	a2,s11
    19e4:	000b8693          	mv	a3,s7
    19e8:	000c0513          	mv	a0,s8
    19ec:	000c8593          	mv	a1,s9
    19f0:	573140ef          	jal	ra,16762 <__muldf3>
    19f4:	000a0613          	mv	a2,s4
    19f8:	000a8693          	mv	a3,s5
    19fc:	000c0413          	mv	s0,s8
    1a00:	000c8493          	mv	s1,s9
    1a04:	ff9d0913          	addi	s2,s10,-7
    1a08:	00050c13          	mv	s8,a0
    1a0c:	00058c93          	mv	s9,a1
    1a10:	49d140ef          	jal	ra,166ac <__ledf2>
    1a14:	dc0546e3          	bltz	a0,17e0 <ecvt+0x5fc>
    1a18:	f55ff06f          	j	196c <ecvt+0x788>
    1a1c:	000a8693          	mv	a3,s5
    1a20:	000a0613          	mv	a2,s4
    1a24:	00040513          	mv	a0,s0
    1a28:	00048593          	mv	a1,s1
    1a2c:	537140ef          	jal	ra,16762 <__muldf3>
    1a30:	02810613          	addi	a2,sp,40
    1a34:	575120ef          	jal	ra,147a8 <modf>
    1a38:	00050413          	mv	s0,a0
    1a3c:	00058493          	mv	s1,a1
    1a40:	02812503          	lw	a0,40(sp)
    1a44:	02c12583          	lw	a1,44(sp)
    1a48:	001d8d93          	addi	s11,s11,1
    1a4c:	381150ef          	jal	ra,175cc <__fixdfsi>
    1a50:	03050693          	addi	a3,a0,48
    1a54:	fedd8fa3          	sb	a3,-1(s11)
    1a58:	b38deae3          	bltu	s11,s8,158c <ecvt+0x3a8>
    1a5c:	c75ff06f          	j	16d0 <ecvt+0x4ec>

00001a60 <ecvtbuf>:
    1a60:	f9010113          	addi	sp,sp,-112
    1a64:	06812423          	sw	s0,104(sp)
    1a68:	06912223          	sw	s1,100(sp)
    1a6c:	07212023          	sw	s2,96(sp)
    1a70:	05312e23          	sw	s3,92(sp)
    1a74:	05912223          	sw	s9,68(sp)
    1a78:	06112623          	sw	ra,108(sp)
    1a7c:	05412c23          	sw	s4,88(sp)
    1a80:	05512a23          	sw	s5,84(sp)
    1a84:	05612823          	sw	s6,80(sp)
    1a88:	05712623          	sw	s7,76(sp)
    1a8c:	05812423          	sw	s8,72(sp)
    1a90:	05a12023          	sw	s10,64(sp)
    1a94:	03b12e23          	sw	s11,60(sp)
    1a98:	04e00293          	li	t0,78
    1a9c:	00050913          	mv	s2,a0
    1aa0:	00058413          	mv	s0,a1
    1aa4:	00068c93          	mv	s9,a3
    1aa8:	00070993          	mv	s3,a4
    1aac:	00078493          	mv	s1,a5
    1ab0:	00c2c863          	blt	t0,a2,1ac0 <ecvtbuf+0x60>
    1ab4:	fff64793          	not	a5,a2
    1ab8:	41f7d093          	srai	ra,a5,0x1f
    1abc:	001672b3          	and	t0,a2,ra
    1ac0:	00000613          	li	a2,0
    1ac4:	00000693          	li	a3,0
    1ac8:	00090513          	mv	a0,s2
    1acc:	00040593          	mv	a1,s0
    1ad0:	00512e23          	sw	t0,28(sp)
    1ad4:	3d9140ef          	jal	ra,166ac <__ledf2>
    1ad8:	74054663          	bltz	a0,2224 <ecvtbuf+0x7c4>
    1adc:	0009a023          	sw	zero,0(s3)
    1ae0:	02010613          	addi	a2,sp,32
    1ae4:	00090513          	mv	a0,s2
    1ae8:	00040593          	mv	a1,s0
    1aec:	4bd120ef          	jal	ra,147a8 <modf>
    1af0:	02012803          	lw	a6,32(sp)
    1af4:	02412883          	lw	a7,36(sp)
    1af8:	00050913          	mv	s2,a0
    1afc:	00058993          	mv	s3,a1
    1b00:	00000613          	li	a2,0
    1b04:	00000693          	li	a3,0
    1b08:	00080513          	mv	a0,a6
    1b0c:	00088593          	mv	a1,a7
    1b10:	05048c13          	addi	s8,s1,80
    1b14:	01012423          	sw	a6,8(sp)
    1b18:	01112623          	sw	a7,12(sp)
    1b1c:	237140ef          	jal	ra,16552 <__eqdf2>
    1b20:	4c050e63          	beqz	a0,1ffc <ecvtbuf+0x59c>
    1b24:	000197b7          	lui	a5,0x19
    1b28:	000190b7          	lui	ra,0x19
    1b2c:	f507aa03          	lw	s4,-176(a5) # 18f50 <__erodata>
    1b30:	f547aa83          	lw	s5,-172(a5)
    1b34:	f580ab03          	lw	s6,-168(ra) # 18f58 <__erodata+0x8>
    1b38:	f5c0ab83          	lw	s7,-164(ra)
    1b3c:	00812303          	lw	t1,8(sp)
    1b40:	00c12383          	lw	t2,12(sp)
    1b44:	000c0d13          	mv	s10,s8
    1b48:	00030513          	mv	a0,t1
    1b4c:	00038593          	mv	a1,t2
    1b50:	000a8693          	mv	a3,s5
    1b54:	000a0613          	mv	a2,s4
    1b58:	36e140ef          	jal	ra,15ec6 <__divdf3>
    1b5c:	02010613          	addi	a2,sp,32
    1b60:	449120ef          	jal	ra,147a8 <modf>
    1b64:	000b0613          	mv	a2,s6
    1b68:	000b8693          	mv	a3,s7
    1b6c:	02a12423          	sw	a0,40(sp)
    1b70:	02b12623          	sw	a1,44(sp)
    1b74:	29b130ef          	jal	ra,1560e <__adddf3>
    1b78:	000a0613          	mv	a2,s4
    1b7c:	000a8693          	mv	a3,s5
    1b80:	3e3140ef          	jal	ra,16762 <__muldf3>
    1b84:	249150ef          	jal	ra,175cc <__fixdfsi>
    1b88:	02012803          	lw	a6,32(sp)
    1b8c:	02412883          	lw	a7,36(sp)
    1b90:	fffd0d13          	addi	s10,s10,-1
    1b94:	03050393          	addi	t2,a0,48
    1b98:	05000513          	li	a0,80
    1b9c:	41a505b3          	sub	a1,a0,s10
    1ba0:	0ff3fd93          	andi	s11,t2,255
    1ba4:	01bd0023          	sb	s11,0(s10)
    1ba8:	00958433          	add	s0,a1,s1
    1bac:	00000613          	li	a2,0
    1bb0:	00000693          	li	a3,0
    1bb4:	00080513          	mv	a0,a6
    1bb8:	00088593          	mv	a1,a7
    1bbc:	01a12423          	sw	s10,8(sp)
    1bc0:	01012823          	sw	a6,16(sp)
    1bc4:	01112a23          	sw	a7,20(sp)
    1bc8:	18b140ef          	jal	ra,16552 <__eqdf2>
    1bcc:	01012703          	lw	a4,16(sp)
    1bd0:	01412e03          	lw	t3,20(sp)
    1bd4:	08050a63          	beqz	a0,1c68 <ecvtbuf+0x208>
    1bd8:	00070513          	mv	a0,a4
    1bdc:	000e0593          	mv	a1,t3
    1be0:	000a8693          	mv	a3,s5
    1be4:	000a0613          	mv	a2,s4
    1be8:	2de140ef          	jal	ra,15ec6 <__divdf3>
    1bec:	02010613          	addi	a2,sp,32
    1bf0:	3b9120ef          	jal	ra,147a8 <modf>
    1bf4:	000b0613          	mv	a2,s6
    1bf8:	000b8693          	mv	a3,s7
    1bfc:	02a12423          	sw	a0,40(sp)
    1c00:	02b12623          	sw	a1,44(sp)
    1c04:	20b130ef          	jal	ra,1560e <__adddf3>
    1c08:	000a0613          	mv	a2,s4
    1c0c:	000a8693          	mv	a3,s5
    1c10:	353140ef          	jal	ra,16762 <__muldf3>
    1c14:	1b9150ef          	jal	ra,175cc <__fixdfsi>
    1c18:	02012783          	lw	a5,32(sp)
    1c1c:	02412283          	lw	t0,36(sp)
    1c20:	03050e93          	addi	t4,a0,48
    1c24:	fffd0d13          	addi	s10,s10,-1
    1c28:	0ffefd93          	andi	s11,t4,255
    1c2c:	05000f13          	li	t5,80
    1c30:	41af0fb3          	sub	t6,t5,s10
    1c34:	01bd0023          	sb	s11,0(s10)
    1c38:	00000613          	li	a2,0
    1c3c:	00000693          	li	a3,0
    1c40:	00078513          	mv	a0,a5
    1c44:	00028593          	mv	a1,t0
    1c48:	01a12423          	sw	s10,8(sp)
    1c4c:	009f8433          	add	s0,t6,s1
    1c50:	00f12823          	sw	a5,16(sp)
    1c54:	00512a23          	sw	t0,20(sp)
    1c58:	0fb140ef          	jal	ra,16552 <__eqdf2>
    1c5c:	01012303          	lw	t1,16(sp)
    1c60:	01412383          	lw	t2,20(sp)
    1c64:	ee0512e3          	bnez	a0,1b48 <ecvtbuf+0xe8>
    1c68:	5b8d7063          	bgeu	s10,s8,2208 <ecvtbuf+0x7a8>
    1c6c:	418d0ab3          	sub	s5,s10,s8
    1c70:	fffac093          	not	ra,s5
    1c74:	0070fb93          	andi	s7,ra,7
    1c78:	00048693          	mv	a3,s1
    1c7c:	0e0b8a63          	beqz	s7,1d70 <ecvtbuf+0x310>
    1c80:	001d0d13          	addi	s10,s10,1
    1c84:	01b48023          	sb	s11,0(s1)
    1c88:	00100513          	li	a0,1
    1c8c:	00148693          	addi	a3,s1,1
    1c90:	000d4d83          	lbu	s11,0(s10)
    1c94:	0cab8e63          	beq	s7,a0,1d70 <ecvtbuf+0x310>
    1c98:	00200593          	li	a1,2
    1c9c:	06bb8a63          	beq	s7,a1,1d10 <ecvtbuf+0x2b0>
    1ca0:	00300813          	li	a6,3
    1ca4:	050b8e63          	beq	s7,a6,1d00 <ecvtbuf+0x2a0>
    1ca8:	00400893          	li	a7,4
    1cac:	051b8263          	beq	s7,a7,1cf0 <ecvtbuf+0x290>
    1cb0:	00500713          	li	a4,5
    1cb4:	02eb8663          	beq	s7,a4,1ce0 <ecvtbuf+0x280>
    1cb8:	00600e13          	li	t3,6
    1cbc:	01cb8a63          	beq	s7,t3,1cd0 <ecvtbuf+0x270>
    1cc0:	01b480a3          	sb	s11,1(s1)
    1cc4:	001d4d83          	lbu	s11,1(s10)
    1cc8:	00248693          	addi	a3,s1,2
    1ccc:	001d0d13          	addi	s10,s10,1
    1cd0:	01b68023          	sb	s11,0(a3)
    1cd4:	001d4d83          	lbu	s11,1(s10)
    1cd8:	00168693          	addi	a3,a3,1
    1cdc:	001d0d13          	addi	s10,s10,1
    1ce0:	01b68023          	sb	s11,0(a3)
    1ce4:	001d4d83          	lbu	s11,1(s10)
    1ce8:	00168693          	addi	a3,a3,1
    1cec:	001d0d13          	addi	s10,s10,1
    1cf0:	01b68023          	sb	s11,0(a3)
    1cf4:	001d4d83          	lbu	s11,1(s10)
    1cf8:	00168693          	addi	a3,a3,1
    1cfc:	001d0d13          	addi	s10,s10,1
    1d00:	01b68023          	sb	s11,0(a3)
    1d04:	001d4d83          	lbu	s11,1(s10)
    1d08:	00168693          	addi	a3,a3,1
    1d0c:	001d0d13          	addi	s10,s10,1
    1d10:	001d0d13          	addi	s10,s10,1
    1d14:	01b68023          	sb	s11,0(a3)
    1d18:	000d4d83          	lbu	s11,0(s10)
    1d1c:	001d0713          	addi	a4,s10,1
    1d20:	00168693          	addi	a3,a3,1
    1d24:	01b68023          	sb	s11,0(a3)
    1d28:	04ec0a63          	beq	s8,a4,1d7c <ecvtbuf+0x31c>
    1d2c:	001d4b03          	lbu	s6,1(s10)
    1d30:	00868693          	addi	a3,a3,8
    1d34:	008d0d13          	addi	s10,s10,8
    1d38:	ff668ca3          	sb	s6,-7(a3)
    1d3c:	ffad4283          	lbu	t0,-6(s10)
    1d40:	fe568d23          	sb	t0,-6(a3)
    1d44:	ffbd4303          	lbu	t1,-5(s10)
    1d48:	fe668da3          	sb	t1,-5(a3)
    1d4c:	ffcd4383          	lbu	t2,-4(s10)
    1d50:	fe768e23          	sb	t2,-4(a3)
    1d54:	ffdd4503          	lbu	a0,-3(s10)
    1d58:	fea68ea3          	sb	a0,-3(a3)
    1d5c:	ffed4583          	lbu	a1,-2(s10)
    1d60:	feb68f23          	sb	a1,-2(a3)
    1d64:	fffd4d83          	lbu	s11,-1(s10)
    1d68:	ffb68fa3          	sb	s11,-1(a3)
    1d6c:	000d4d83          	lbu	s11,0(s10)
    1d70:	001d0713          	addi	a4,s10,1
    1d74:	01b68023          	sb	s11,0(a3)
    1d78:	faec1ae3          	bne	s8,a4,1d2c <ecvtbuf+0x2cc>
    1d7c:	00812d03          	lw	s10,8(sp)
    1d80:	01c12d83          	lw	s11,28(sp)
    1d84:	008ca023          	sw	s0,0(s9)
    1d88:	41ac0eb3          	sub	t4,s8,s10
    1d8c:	01b48b33          	add	s6,s1,s11
    1d90:	01d48d33          	add	s10,s1,t4
    1d94:	489b6463          	bltu	s6,s1,221c <ecvtbuf+0x7bc>
    1d98:	1bab6c63          	bltu	s6,s10,1f50 <ecvtbuf+0x4f0>
    1d9c:	1b8d7a63          	bgeu	s10,s8,1f50 <ecvtbuf+0x4f0>
    1da0:	41ab0f33          	sub	t5,s6,s10
    1da4:	00019437          	lui	s0,0x19
    1da8:	003f7b93          	andi	s7,t5,3
    1dac:	f5042a03          	lw	s4,-176(s0) # 18f50 <__erodata>
    1db0:	f5442a83          	lw	s5,-172(s0)
    1db4:	080b8c63          	beqz	s7,1e4c <ecvtbuf+0x3ec>
    1db8:	000a8693          	mv	a3,s5
    1dbc:	000a0613          	mv	a2,s4
    1dc0:	00090513          	mv	a0,s2
    1dc4:	00098593          	mv	a1,s3
    1dc8:	19b140ef          	jal	ra,16762 <__muldf3>
    1dcc:	02810613          	addi	a2,sp,40
    1dd0:	1d9120ef          	jal	ra,147a8 <modf>
    1dd4:	00050913          	mv	s2,a0
    1dd8:	00058993          	mv	s3,a1
    1ddc:	02812503          	lw	a0,40(sp)
    1de0:	02c12583          	lw	a1,44(sp)
    1de4:	001d0d13          	addi	s10,s10,1
    1de8:	7e4150ef          	jal	ra,175cc <__fixdfsi>
    1dec:	03050f93          	addi	t6,a0,48
    1df0:	fffd0fa3          	sb	t6,-1(s10)
    1df4:	15ab6e63          	bltu	s6,s10,1f50 <ecvtbuf+0x4f0>
    1df8:	15ac0c63          	beq	s8,s10,1f50 <ecvtbuf+0x4f0>
    1dfc:	00100793          	li	a5,1
    1e00:	04fb8663          	beq	s7,a5,1e4c <ecvtbuf+0x3ec>
    1e04:	00200293          	li	t0,2
    1e08:	465b9c63          	bne	s7,t0,2280 <ecvtbuf+0x820>
    1e0c:	000a8693          	mv	a3,s5
    1e10:	000a0613          	mv	a2,s4
    1e14:	00090513          	mv	a0,s2
    1e18:	00098593          	mv	a1,s3
    1e1c:	147140ef          	jal	ra,16762 <__muldf3>
    1e20:	02810613          	addi	a2,sp,40
    1e24:	185120ef          	jal	ra,147a8 <modf>
    1e28:	00050913          	mv	s2,a0
    1e2c:	00058993          	mv	s3,a1
    1e30:	02812503          	lw	a0,40(sp)
    1e34:	02c12583          	lw	a1,44(sp)
    1e38:	001d0d13          	addi	s10,s10,1
    1e3c:	790150ef          	jal	ra,175cc <__fixdfsi>
    1e40:	03050393          	addi	t2,a0,48
    1e44:	fe7d0fa3          	sb	t2,-1(s10)
    1e48:	11ac0463          	beq	s8,s10,1f50 <ecvtbuf+0x4f0>
    1e4c:	000a8693          	mv	a3,s5
    1e50:	000a0613          	mv	a2,s4
    1e54:	00090513          	mv	a0,s2
    1e58:	00098593          	mv	a1,s3
    1e5c:	107140ef          	jal	ra,16762 <__muldf3>
    1e60:	02810613          	addi	a2,sp,40
    1e64:	145120ef          	jal	ra,147a8 <modf>
    1e68:	00050993          	mv	s3,a0
    1e6c:	00058913          	mv	s2,a1
    1e70:	02812503          	lw	a0,40(sp)
    1e74:	02c12583          	lw	a1,44(sp)
    1e78:	001d0d93          	addi	s11,s10,1
    1e7c:	750150ef          	jal	ra,175cc <__fixdfsi>
    1e80:	03050513          	addi	a0,a0,48
    1e84:	00ad0023          	sb	a0,0(s10)
    1e88:	0dbb6463          	bltu	s6,s11,1f50 <ecvtbuf+0x4f0>
    1e8c:	0dbc0263          	beq	s8,s11,1f50 <ecvtbuf+0x4f0>
    1e90:	000a8693          	mv	a3,s5
    1e94:	000a0613          	mv	a2,s4
    1e98:	00098513          	mv	a0,s3
    1e9c:	00090593          	mv	a1,s2
    1ea0:	0c3140ef          	jal	ra,16762 <__muldf3>
    1ea4:	02810613          	addi	a2,sp,40
    1ea8:	101120ef          	jal	ra,147a8 <modf>
    1eac:	00050b93          	mv	s7,a0
    1eb0:	00058993          	mv	s3,a1
    1eb4:	02812503          	lw	a0,40(sp)
    1eb8:	02c12583          	lw	a1,44(sp)
    1ebc:	002d0413          	addi	s0,s10,2
    1ec0:	70c150ef          	jal	ra,175cc <__fixdfsi>
    1ec4:	03050593          	addi	a1,a0,48
    1ec8:	feb40fa3          	sb	a1,-1(s0)
    1ecc:	088c0263          	beq	s8,s0,1f50 <ecvtbuf+0x4f0>
    1ed0:	000a8693          	mv	a3,s5
    1ed4:	000b8513          	mv	a0,s7
    1ed8:	000a0613          	mv	a2,s4
    1edc:	00098593          	mv	a1,s3
    1ee0:	083140ef          	jal	ra,16762 <__muldf3>
    1ee4:	02810613          	addi	a2,sp,40
    1ee8:	0c1120ef          	jal	ra,147a8 <modf>
    1eec:	00050d93          	mv	s11,a0
    1ef0:	00058913          	mv	s2,a1
    1ef4:	02812503          	lw	a0,40(sp)
    1ef8:	02c12583          	lw	a1,44(sp)
    1efc:	003d0b93          	addi	s7,s10,3
    1f00:	6cc150ef          	jal	ra,175cc <__fixdfsi>
    1f04:	03050813          	addi	a6,a0,48
    1f08:	ff0b8fa3          	sb	a6,-1(s7)
    1f0c:	057c0263          	beq	s8,s7,1f50 <ecvtbuf+0x4f0>
    1f10:	000a8693          	mv	a3,s5
    1f14:	000a0613          	mv	a2,s4
    1f18:	00090593          	mv	a1,s2
    1f1c:	000d8513          	mv	a0,s11
    1f20:	043140ef          	jal	ra,16762 <__muldf3>
    1f24:	02810613          	addi	a2,sp,40
    1f28:	081120ef          	jal	ra,147a8 <modf>
    1f2c:	00050913          	mv	s2,a0
    1f30:	00058993          	mv	s3,a1
    1f34:	02812503          	lw	a0,40(sp)
    1f38:	02c12583          	lw	a1,44(sp)
    1f3c:	004d0d13          	addi	s10,s10,4
    1f40:	68c150ef          	jal	ra,175cc <__fixdfsi>
    1f44:	03050393          	addi	t2,a0,48
    1f48:	fe7d0fa3          	sb	t2,-1(s10)
    1f4c:	f1ac10e3          	bne	s8,s10,1e4c <ecvtbuf+0x3ec>
    1f50:	2f8b7463          	bgeu	s6,s8,2238 <ecvtbuf+0x7d8>
    1f54:	000b4c03          	lbu	s8,0(s6)
    1f58:	03900693          	li	a3,57
    1f5c:	005c0093          	addi	ra,s8,5
    1f60:	0ff0fe13          	andi	t3,ra,255
    1f64:	03c6fc63          	bgeu	a3,t3,1f9c <ecvtbuf+0x53c>
    1f68:	01cb0023          	sb	t3,0(s6)
    1f6c:	000b0d13          	mv	s10,s6
    1f70:	03000e93          	li	t4,48
    1f74:	03100613          	li	a2,49
    1f78:	03900a13          	li	s4,57
    1f7c:	07a4f263          	bgeu	s1,s10,1fe0 <ecvtbuf+0x580>
    1f80:	fffd4f83          	lbu	t6,-1(s10)
    1f84:	01dd0023          	sb	t4,0(s10)
    1f88:	fffd0d13          	addi	s10,s10,-1
    1f8c:	001f8793          	addi	a5,t6,1
    1f90:	0ff7ff13          	andi	t5,a5,255
    1f94:	01ed0023          	sb	t5,0(s10)
    1f98:	ffea62e3          	bltu	s4,t5,1f7c <ecvtbuf+0x51c>
    1f9c:	000b0023          	sb	zero,0(s6)
    1fa0:	06c12083          	lw	ra,108(sp)
    1fa4:	06812403          	lw	s0,104(sp)
    1fa8:	06012903          	lw	s2,96(sp)
    1fac:	05c12983          	lw	s3,92(sp)
    1fb0:	05812a03          	lw	s4,88(sp)
    1fb4:	05412a83          	lw	s5,84(sp)
    1fb8:	05012b03          	lw	s6,80(sp)
    1fbc:	04c12b83          	lw	s7,76(sp)
    1fc0:	04812c03          	lw	s8,72(sp)
    1fc4:	04412c83          	lw	s9,68(sp)
    1fc8:	04012d03          	lw	s10,64(sp)
    1fcc:	03c12d83          	lw	s11,60(sp)
    1fd0:	00048513          	mv	a0,s1
    1fd4:	06412483          	lw	s1,100(sp)
    1fd8:	07010113          	addi	sp,sp,112
    1fdc:	00008067          	ret
    1fe0:	00cd0023          	sb	a2,0(s10)
    1fe4:	000ca703          	lw	a4,0(s9)
    1fe8:	00170a93          	addi	s5,a4,1
    1fec:	015ca023          	sw	s5,0(s9)
    1ff0:	000d4f03          	lbu	t5,0(s10)
    1ff4:	f9ea64e3          	bltu	s4,t5,1f7c <ecvtbuf+0x51c>
    1ff8:	fa5ff06f          	j	1f9c <ecvtbuf+0x53c>
    1ffc:	00000613          	li	a2,0
    2000:	00000693          	li	a3,0
    2004:	00090513          	mv	a0,s2
    2008:	00098593          	mv	a1,s3
    200c:	5ea140ef          	jal	ra,165f6 <__gedf2>
    2010:	00000413          	li	s0,0
    2014:	1ea05a63          	blez	a0,2208 <ecvtbuf+0x7a8>
    2018:	00019b37          	lui	s6,0x19
    201c:	f50b2603          	lw	a2,-176(s6) # 18f50 <__erodata>
    2020:	f54b2683          	lw	a3,-172(s6)
    2024:	00090513          	mv	a0,s2
    2028:	00098593          	mv	a1,s3
    202c:	736140ef          	jal	ra,16762 <__muldf3>
    2030:	00019737          	lui	a4,0x19
    2034:	f6072a03          	lw	s4,-160(a4) # 18f60 <__erodata+0x10>
    2038:	f6472a83          	lw	s5,-156(a4)
    203c:	00050d93          	mv	s11,a0
    2040:	000a0613          	mv	a2,s4
    2044:	000a8693          	mv	a3,s5
    2048:	00058d13          	mv	s10,a1
    204c:	660140ef          	jal	ra,166ac <__ledf2>
    2050:	00000413          	li	s0,0
    2054:	1a055663          	bgez	a0,2200 <ecvtbuf+0x7a0>
    2058:	f54b2b83          	lw	s7,-172(s6)
    205c:	f50b2b03          	lw	s6,-176(s6)
    2060:	000b0613          	mv	a2,s6
    2064:	000b8693          	mv	a3,s7
    2068:	000d8513          	mv	a0,s11
    206c:	000d0593          	mv	a1,s10
    2070:	fff40413          	addi	s0,s0,-1
    2074:	00812423          	sw	s0,8(sp)
    2078:	6ea140ef          	jal	ra,16762 <__muldf3>
    207c:	000a0613          	mv	a2,s4
    2080:	000a8693          	mv	a3,s5
    2084:	000d8913          	mv	s2,s11
    2088:	000d0993          	mv	s3,s10
    208c:	00050d93          	mv	s11,a0
    2090:	00058d13          	mv	s10,a1
    2094:	618140ef          	jal	ra,166ac <__ledf2>
    2098:	16055463          	bgez	a0,2200 <ecvtbuf+0x7a0>
    209c:	000b0613          	mv	a2,s6
    20a0:	000b8693          	mv	a3,s7
    20a4:	000d8513          	mv	a0,s11
    20a8:	000d0593          	mv	a1,s10
    20ac:	6b6140ef          	jal	ra,16762 <__muldf3>
    20b0:	000a0613          	mv	a2,s4
    20b4:	000a8693          	mv	a3,s5
    20b8:	000d8913          	mv	s2,s11
    20bc:	000d0993          	mv	s3,s10
    20c0:	fff40413          	addi	s0,s0,-1
    20c4:	00050d93          	mv	s11,a0
    20c8:	00058d13          	mv	s10,a1
    20cc:	5e0140ef          	jal	ra,166ac <__ledf2>
    20d0:	12055863          	bgez	a0,2200 <ecvtbuf+0x7a0>
    20d4:	00812603          	lw	a2,8(sp)
    20d8:	000b8693          	mv	a3,s7
    20dc:	000d8513          	mv	a0,s11
    20e0:	000d0593          	mv	a1,s10
    20e4:	ffe60413          	addi	s0,a2,-2
    20e8:	000b0613          	mv	a2,s6
    20ec:	676140ef          	jal	ra,16762 <__muldf3>
    20f0:	000a0613          	mv	a2,s4
    20f4:	000a8693          	mv	a3,s5
    20f8:	000d8913          	mv	s2,s11
    20fc:	000d0993          	mv	s3,s10
    2100:	00050d93          	mv	s11,a0
    2104:	00058d13          	mv	s10,a1
    2108:	5a4140ef          	jal	ra,166ac <__ledf2>
    210c:	0e055a63          	bgez	a0,2200 <ecvtbuf+0x7a0>
    2110:	00812683          	lw	a3,8(sp)
    2114:	000b0613          	mv	a2,s6
    2118:	000d8513          	mv	a0,s11
    211c:	000d0593          	mv	a1,s10
    2120:	ffd68413          	addi	s0,a3,-3
    2124:	000b8693          	mv	a3,s7
    2128:	63a140ef          	jal	ra,16762 <__muldf3>
    212c:	000a0613          	mv	a2,s4
    2130:	000a8693          	mv	a3,s5
    2134:	000d8913          	mv	s2,s11
    2138:	000d0993          	mv	s3,s10
    213c:	00050d93          	mv	s11,a0
    2140:	00058d13          	mv	s10,a1
    2144:	568140ef          	jal	ra,166ac <__ledf2>
    2148:	0a055c63          	bgez	a0,2200 <ecvtbuf+0x7a0>
    214c:	00812e03          	lw	t3,8(sp)
    2150:	000b0613          	mv	a2,s6
    2154:	000b8693          	mv	a3,s7
    2158:	000d8513          	mv	a0,s11
    215c:	000d0593          	mv	a1,s10
    2160:	ffce0413          	addi	s0,t3,-4
    2164:	5fe140ef          	jal	ra,16762 <__muldf3>
    2168:	000a0613          	mv	a2,s4
    216c:	000a8693          	mv	a3,s5
    2170:	000d8913          	mv	s2,s11
    2174:	000d0993          	mv	s3,s10
    2178:	00050d93          	mv	s11,a0
    217c:	00058d13          	mv	s10,a1
    2180:	52c140ef          	jal	ra,166ac <__ledf2>
    2184:	06055e63          	bgez	a0,2200 <ecvtbuf+0x7a0>
    2188:	00812e83          	lw	t4,8(sp)
    218c:	000b0613          	mv	a2,s6
    2190:	000b8693          	mv	a3,s7
    2194:	000d8513          	mv	a0,s11
    2198:	000d0593          	mv	a1,s10
    219c:	ffbe8413          	addi	s0,t4,-5
    21a0:	5c2140ef          	jal	ra,16762 <__muldf3>
    21a4:	000a0613          	mv	a2,s4
    21a8:	000a8693          	mv	a3,s5
    21ac:	000d8913          	mv	s2,s11
    21b0:	000d0993          	mv	s3,s10
    21b4:	00050d93          	mv	s11,a0
    21b8:	00058d13          	mv	s10,a1
    21bc:	4f0140ef          	jal	ra,166ac <__ledf2>
    21c0:	04055063          	bgez	a0,2200 <ecvtbuf+0x7a0>
    21c4:	00812f03          	lw	t5,8(sp)
    21c8:	000b0613          	mv	a2,s6
    21cc:	000b8693          	mv	a3,s7
    21d0:	000d8513          	mv	a0,s11
    21d4:	000d0593          	mv	a1,s10
    21d8:	ffaf0413          	addi	s0,t5,-6
    21dc:	586140ef          	jal	ra,16762 <__muldf3>
    21e0:	000a0613          	mv	a2,s4
    21e4:	000a8693          	mv	a3,s5
    21e8:	000d8913          	mv	s2,s11
    21ec:	000d0993          	mv	s3,s10
    21f0:	00050d93          	mv	s11,a0
    21f4:	00058d13          	mv	s10,a1
    21f8:	4b4140ef          	jal	ra,166ac <__ledf2>
    21fc:	04054263          	bltz	a0,2240 <ecvtbuf+0x7e0>
    2200:	03b12423          	sw	s11,40(sp)
    2204:	03a12623          	sw	s10,44(sp)
    2208:	01c12a03          	lw	s4,28(sp)
    220c:	008ca023          	sw	s0,0(s9)
    2210:	00048d13          	mv	s10,s1
    2214:	01448b33          	add	s6,s1,s4
    2218:	b89b72e3          	bgeu	s6,s1,1d9c <ecvtbuf+0x33c>
    221c:	00048023          	sb	zero,0(s1)
    2220:	d81ff06f          	j	1fa0 <ecvtbuf+0x540>
    2224:	00100313          	li	t1,1
    2228:	800003b7          	lui	t2,0x80000
    222c:	0069a023          	sw	t1,0(s3)
    2230:	0083c433          	xor	s0,t2,s0
    2234:	8adff06f          	j	1ae0 <ecvtbuf+0x80>
    2238:	040487a3          	sb	zero,79(s1)
    223c:	d65ff06f          	j	1fa0 <ecvtbuf+0x540>
    2240:	00812f83          	lw	t6,8(sp)
    2244:	000b0613          	mv	a2,s6
    2248:	000b8693          	mv	a3,s7
    224c:	000d8513          	mv	a0,s11
    2250:	000d0593          	mv	a1,s10
    2254:	ff9f8413          	addi	s0,t6,-7
    2258:	50a140ef          	jal	ra,16762 <__muldf3>
    225c:	000a0613          	mv	a2,s4
    2260:	000a8693          	mv	a3,s5
    2264:	000d8913          	mv	s2,s11
    2268:	000d0993          	mv	s3,s10
    226c:	00050d93          	mv	s11,a0
    2270:	00058d13          	mv	s10,a1
    2274:	438140ef          	jal	ra,166ac <__ledf2>
    2278:	de0544e3          	bltz	a0,2060 <ecvtbuf+0x600>
    227c:	f85ff06f          	j	2200 <ecvtbuf+0x7a0>
    2280:	000a8693          	mv	a3,s5
    2284:	000a0613          	mv	a2,s4
    2288:	00090513          	mv	a0,s2
    228c:	00098593          	mv	a1,s3
    2290:	4d2140ef          	jal	ra,16762 <__muldf3>
    2294:	02810613          	addi	a2,sp,40
    2298:	510120ef          	jal	ra,147a8 <modf>
    229c:	00050913          	mv	s2,a0
    22a0:	00058993          	mv	s3,a1
    22a4:	02812503          	lw	a0,40(sp)
    22a8:	02c12583          	lw	a1,44(sp)
    22ac:	001d0d13          	addi	s10,s10,1
    22b0:	31c150ef          	jal	ra,175cc <__fixdfsi>
    22b4:	03050313          	addi	t1,a0,48
    22b8:	fe6d0fa3          	sb	t1,-1(s10)
    22bc:	b5ac18e3          	bne	s8,s10,1e0c <ecvtbuf+0x3ac>
    22c0:	c91ff06f          	j	1f50 <ecvtbuf+0x4f0>

000022c4 <fcvt>:
    22c4:	f9010113          	addi	sp,sp,-112
    22c8:	06812423          	sw	s0,104(sp)
    22cc:	06912223          	sw	s1,100(sp)
    22d0:	07212023          	sw	s2,96(sp)
    22d4:	05312e23          	sw	s3,92(sp)
    22d8:	06112623          	sw	ra,108(sp)
    22dc:	05412c23          	sw	s4,88(sp)
    22e0:	05512a23          	sw	s5,84(sp)
    22e4:	05612823          	sw	s6,80(sp)
    22e8:	05712623          	sw	s7,76(sp)
    22ec:	05812423          	sw	s8,72(sp)
    22f0:	05912223          	sw	s9,68(sp)
    22f4:	05a12023          	sw	s10,64(sp)
    22f8:	03b12e23          	sw	s11,60(sp)
    22fc:	04e00293          	li	t0,78
    2300:	00050493          	mv	s1,a0
    2304:	00058413          	mv	s0,a1
    2308:	00068993          	mv	s3,a3
    230c:	00070913          	mv	s2,a4
    2310:	00c2c863          	blt	t0,a2,2320 <fcvt+0x5c>
    2314:	fff64793          	not	a5,a2
    2318:	41f7d093          	srai	ra,a5,0x1f
    231c:	001672b3          	and	t0,a2,ra
    2320:	00000613          	li	a2,0
    2324:	00000693          	li	a3,0
    2328:	00048513          	mv	a0,s1
    232c:	00040593          	mv	a1,s0
    2330:	00512a23          	sw	t0,20(sp)
    2334:	378140ef          	jal	ra,166ac <__ledf2>
    2338:	76054c63          	bltz	a0,2ab0 <fcvt+0x7ec>
    233c:	00092023          	sw	zero,0(s2)
    2340:	02010613          	addi	a2,sp,32
    2344:	00048513          	mv	a0,s1
    2348:	00040593          	mv	a1,s0
    234c:	45c120ef          	jal	ra,147a8 <modf>
    2350:	02012803          	lw	a6,32(sp)
    2354:	02412883          	lw	a7,36(sp)
    2358:	00050413          	mv	s0,a0
    235c:	00058493          	mv	s1,a1
    2360:	00000613          	li	a2,0
    2364:	00000693          	li	a3,0
    2368:	00080513          	mv	a0,a6
    236c:	00088593          	mv	a1,a7
    2370:	01012423          	sw	a6,8(sp)
    2374:	01112623          	sw	a7,12(sp)
    2378:	1da140ef          	jal	ra,16552 <__eqdf2>
    237c:	50050263          	beqz	a0,2880 <fcvt+0x5bc>
    2380:	00019fb7          	lui	t6,0x19
    2384:	00019f37          	lui	t5,0x19
    2388:	f58fa783          	lw	a5,-168(t6) # 18f58 <__erodata+0x8>
    238c:	f5cfa083          	lw	ra,-164(t6)
    2390:	20001eb7          	lui	t4,0x20001
    2394:	f50f2a03          	lw	s4,-176(t5) # 18f50 <__erodata>
    2398:	f54f2a83          	lw	s5,-172(t5)
    239c:	918e8c93          	addi	s9,t4,-1768 # 20000918 <CVTBUF>
    23a0:	01e12e23          	sw	t5,28(sp)
    23a4:	00c12f83          	lw	t6,12(sp)
    23a8:	00812f03          	lw	t5,8(sp)
    23ac:	050c8c13          	addi	s8,s9,80
    23b0:	01d12c23          	sw	t4,24(sp)
    23b4:	000c0d13          	mv	s10,s8
    23b8:	00f12023          	sw	a5,0(sp)
    23bc:	00112223          	sw	ra,4(sp)
    23c0:	000f0513          	mv	a0,t5
    23c4:	000f8593          	mv	a1,t6
    23c8:	000a8693          	mv	a3,s5
    23cc:	000a0613          	mv	a2,s4
    23d0:	2f7130ef          	jal	ra,15ec6 <__divdf3>
    23d4:	02010613          	addi	a2,sp,32
    23d8:	3d0120ef          	jal	ra,147a8 <modf>
    23dc:	00012603          	lw	a2,0(sp)
    23e0:	00412683          	lw	a3,4(sp)
    23e4:	02a12423          	sw	a0,40(sp)
    23e8:	02b12623          	sw	a1,44(sp)
    23ec:	222130ef          	jal	ra,1560e <__adddf3>
    23f0:	000a0613          	mv	a2,s4
    23f4:	000a8693          	mv	a3,s5
    23f8:	36a140ef          	jal	ra,16762 <__muldf3>
    23fc:	1d0150ef          	jal	ra,175cc <__fixdfsi>
    2400:	02012803          	lw	a6,32(sp)
    2404:	02412883          	lw	a7,36(sp)
    2408:	03050393          	addi	t2,a0,48
    240c:	fffd0d13          	addi	s10,s10,-1
    2410:	0ff3fb13          	andi	s6,t2,255
    2414:	00088593          	mv	a1,a7
    2418:	016d0023          	sb	s6,0(s10)
    241c:	00000613          	li	a2,0
    2420:	00000693          	li	a3,0
    2424:	00080513          	mv	a0,a6
    2428:	41ac0bb3          	sub	s7,s8,s10
    242c:	01012423          	sw	a6,8(sp)
    2430:	01112623          	sw	a7,12(sp)
    2434:	11e140ef          	jal	ra,16552 <__eqdf2>
    2438:	00812583          	lw	a1,8(sp)
    243c:	00c12703          	lw	a4,12(sp)
    2440:	000d0d93          	mv	s11,s10
    2444:	000b8913          	mv	s2,s7
    2448:	08050863          	beqz	a0,24d8 <fcvt+0x214>
    244c:	000a8693          	mv	a3,s5
    2450:	000a0613          	mv	a2,s4
    2454:	00058513          	mv	a0,a1
    2458:	00070593          	mv	a1,a4
    245c:	26b130ef          	jal	ra,15ec6 <__divdf3>
    2460:	02010613          	addi	a2,sp,32
    2464:	344120ef          	jal	ra,147a8 <modf>
    2468:	00012603          	lw	a2,0(sp)
    246c:	00412683          	lw	a3,4(sp)
    2470:	02a12423          	sw	a0,40(sp)
    2474:	02b12623          	sw	a1,44(sp)
    2478:	196130ef          	jal	ra,1560e <__adddf3>
    247c:	000a0613          	mv	a2,s4
    2480:	000a8693          	mv	a3,s5
    2484:	2de140ef          	jal	ra,16762 <__muldf3>
    2488:	144150ef          	jal	ra,175cc <__fixdfsi>
    248c:	02012e03          	lw	t3,32(sp)
    2490:	02412e83          	lw	t4,36(sp)
    2494:	03050513          	addi	a0,a0,48
    2498:	fffd0d13          	addi	s10,s10,-1
    249c:	0ff57b13          	andi	s6,a0,255
    24a0:	016d0023          	sb	s6,0(s10)
    24a4:	00000613          	li	a2,0
    24a8:	00000693          	li	a3,0
    24ac:	000e0513          	mv	a0,t3
    24b0:	000e8593          	mv	a1,t4
    24b4:	41ac0bb3          	sub	s7,s8,s10
    24b8:	01c12423          	sw	t3,8(sp)
    24bc:	01d12623          	sw	t4,12(sp)
    24c0:	092140ef          	jal	ra,16552 <__eqdf2>
    24c4:	00812f03          	lw	t5,8(sp)
    24c8:	00c12f83          	lw	t6,12(sp)
    24cc:	000d0d93          	mv	s11,s10
    24d0:	000b8913          	mv	s2,s7
    24d4:	ee0516e3          	bnez	a0,23c0 <fcvt+0xfc>
    24d8:	5b8d7663          	bgeu	s10,s8,2a84 <fcvt+0x7c0>
    24dc:	fffd4a93          	not	s5,s10
    24e0:	015c07b3          	add	a5,s8,s5
    24e4:	0077f093          	andi	ra,a5,7
    24e8:	000c8513          	mv	a0,s9
    24ec:	0e008a63          	beqz	ra,25e0 <fcvt+0x31c>
    24f0:	001d0d13          	addi	s10,s10,1
    24f4:	016c8023          	sb	s6,0(s9)
    24f8:	00100293          	li	t0,1
    24fc:	001c8513          	addi	a0,s9,1
    2500:	000d4b03          	lbu	s6,0(s10)
    2504:	0c508e63          	beq	ra,t0,25e0 <fcvt+0x31c>
    2508:	00200313          	li	t1,2
    250c:	06608a63          	beq	ra,t1,2580 <fcvt+0x2bc>
    2510:	00300393          	li	t2,3
    2514:	04708e63          	beq	ra,t2,2570 <fcvt+0x2ac>
    2518:	00400813          	li	a6,4
    251c:	05008263          	beq	ra,a6,2560 <fcvt+0x29c>
    2520:	00500893          	li	a7,5
    2524:	03108663          	beq	ra,a7,2550 <fcvt+0x28c>
    2528:	00600593          	li	a1,6
    252c:	00b08a63          	beq	ra,a1,2540 <fcvt+0x27c>
    2530:	016c80a3          	sb	s6,1(s9)
    2534:	001d4b03          	lbu	s6,1(s10)
    2538:	002c8513          	addi	a0,s9,2
    253c:	001d0d13          	addi	s10,s10,1
    2540:	01650023          	sb	s6,0(a0)
    2544:	001d4b03          	lbu	s6,1(s10)
    2548:	00150513          	addi	a0,a0,1
    254c:	001d0d13          	addi	s10,s10,1
    2550:	01650023          	sb	s6,0(a0)
    2554:	001d4b03          	lbu	s6,1(s10)
    2558:	00150513          	addi	a0,a0,1
    255c:	001d0d13          	addi	s10,s10,1
    2560:	01650023          	sb	s6,0(a0)
    2564:	001d4b03          	lbu	s6,1(s10)
    2568:	00150513          	addi	a0,a0,1
    256c:	001d0d13          	addi	s10,s10,1
    2570:	01650023          	sb	s6,0(a0)
    2574:	001d4b03          	lbu	s6,1(s10)
    2578:	00150513          	addi	a0,a0,1
    257c:	001d0d13          	addi	s10,s10,1
    2580:	001d0d13          	addi	s10,s10,1
    2584:	01650023          	sb	s6,0(a0)
    2588:	000d4b03          	lbu	s6,0(s10)
    258c:	001d0713          	addi	a4,s10,1
    2590:	00150513          	addi	a0,a0,1
    2594:	01650023          	sb	s6,0(a0)
    2598:	04ec0a63          	beq	s8,a4,25ec <fcvt+0x328>
    259c:	001d4283          	lbu	t0,1(s10)
    25a0:	00850513          	addi	a0,a0,8
    25a4:	008d0d13          	addi	s10,s10,8
    25a8:	fe550ca3          	sb	t0,-7(a0)
    25ac:	ffad4303          	lbu	t1,-6(s10)
    25b0:	fe650d23          	sb	t1,-6(a0)
    25b4:	ffbd4383          	lbu	t2,-5(s10)
    25b8:	fe750da3          	sb	t2,-5(a0)
    25bc:	ffcd4903          	lbu	s2,-4(s10)
    25c0:	ff250e23          	sb	s2,-4(a0)
    25c4:	ffdd4803          	lbu	a6,-3(s10)
    25c8:	ff050ea3          	sb	a6,-3(a0)
    25cc:	ffed4883          	lbu	a7,-2(s10)
    25d0:	ff150f23          	sb	a7,-2(a0)
    25d4:	fffd4b03          	lbu	s6,-1(s10)
    25d8:	ff650fa3          	sb	s6,-1(a0)
    25dc:	000d4b03          	lbu	s6,0(s10)
    25e0:	001d0713          	addi	a4,s10,1
    25e4:	01650023          	sb	s6,0(a0)
    25e8:	faec1ae3          	bne	s8,a4,259c <fcvt+0x2d8>
    25ec:	01412e03          	lw	t3,20(sp)
    25f0:	41bc0b33          	sub	s6,s8,s11
    25f4:	0179a023          	sw	s7,0(s3)
    25f8:	017e0eb3          	add	t4,t3,s7
    25fc:	01dc8d33          	add	s10,s9,t4
    2600:	016c8db3          	add	s11,s9,s6
    2604:	4d9d6063          	bltu	s10,s9,2ac4 <fcvt+0x800>
    2608:	1bbd6c63          	bltu	s10,s11,27c0 <fcvt+0x4fc>
    260c:	1b8dfa63          	bgeu	s11,s8,27c0 <fcvt+0x4fc>
    2610:	01c12b83          	lw	s7,28(sp)
    2614:	41bd0f33          	sub	t5,s10,s11
    2618:	003f7913          	andi	s2,t5,3
    261c:	f50baa03          	lw	s4,-176(s7)
    2620:	f54baa83          	lw	s5,-172(s7)
    2624:	08090c63          	beqz	s2,26bc <fcvt+0x3f8>
    2628:	000a8693          	mv	a3,s5
    262c:	000a0613          	mv	a2,s4
    2630:	00040513          	mv	a0,s0
    2634:	00048593          	mv	a1,s1
    2638:	12a140ef          	jal	ra,16762 <__muldf3>
    263c:	02810613          	addi	a2,sp,40
    2640:	168120ef          	jal	ra,147a8 <modf>
    2644:	00050413          	mv	s0,a0
    2648:	00058493          	mv	s1,a1
    264c:	02812503          	lw	a0,40(sp)
    2650:	02c12583          	lw	a1,44(sp)
    2654:	001d8d93          	addi	s11,s11,1
    2658:	775140ef          	jal	ra,175cc <__fixdfsi>
    265c:	03050f93          	addi	t6,a0,48
    2660:	fffd8fa3          	sb	t6,-1(s11)
    2664:	15bd6e63          	bltu	s10,s11,27c0 <fcvt+0x4fc>
    2668:	158dfc63          	bgeu	s11,s8,27c0 <fcvt+0x4fc>
    266c:	00100693          	li	a3,1
    2670:	04d90663          	beq	s2,a3,26bc <fcvt+0x3f8>
    2674:	00200793          	li	a5,2
    2678:	4af91863          	bne	s2,a5,2b28 <fcvt+0x864>
    267c:	000a8693          	mv	a3,s5
    2680:	000a0613          	mv	a2,s4
    2684:	00040513          	mv	a0,s0
    2688:	00048593          	mv	a1,s1
    268c:	0d6140ef          	jal	ra,16762 <__muldf3>
    2690:	02810613          	addi	a2,sp,40
    2694:	114120ef          	jal	ra,147a8 <modf>
    2698:	00050413          	mv	s0,a0
    269c:	00058493          	mv	s1,a1
    26a0:	02812503          	lw	a0,40(sp)
    26a4:	02c12583          	lw	a1,44(sp)
    26a8:	001d8d93          	addi	s11,s11,1
    26ac:	721140ef          	jal	ra,175cc <__fixdfsi>
    26b0:	03050313          	addi	t1,a0,48
    26b4:	fe6d8fa3          	sb	t1,-1(s11)
    26b8:	118df463          	bgeu	s11,s8,27c0 <fcvt+0x4fc>
    26bc:	000a8693          	mv	a3,s5
    26c0:	000a0613          	mv	a2,s4
    26c4:	00040513          	mv	a0,s0
    26c8:	00048593          	mv	a1,s1
    26cc:	096140ef          	jal	ra,16762 <__muldf3>
    26d0:	02810613          	addi	a2,sp,40
    26d4:	0d4120ef          	jal	ra,147a8 <modf>
    26d8:	00050493          	mv	s1,a0
    26dc:	00058413          	mv	s0,a1
    26e0:	02812503          	lw	a0,40(sp)
    26e4:	02c12583          	lw	a1,44(sp)
    26e8:	001d8b13          	addi	s6,s11,1
    26ec:	6e1140ef          	jal	ra,175cc <__fixdfsi>
    26f0:	03050393          	addi	t2,a0,48
    26f4:	007d8023          	sb	t2,0(s11)
    26f8:	0d6d6463          	bltu	s10,s6,27c0 <fcvt+0x4fc>
    26fc:	0d8b7263          	bgeu	s6,s8,27c0 <fcvt+0x4fc>
    2700:	000a8693          	mv	a3,s5
    2704:	00048513          	mv	a0,s1
    2708:	000a0613          	mv	a2,s4
    270c:	00040593          	mv	a1,s0
    2710:	052140ef          	jal	ra,16762 <__muldf3>
    2714:	02810613          	addi	a2,sp,40
    2718:	090120ef          	jal	ra,147a8 <modf>
    271c:	00050b93          	mv	s7,a0
    2720:	00058913          	mv	s2,a1
    2724:	02812503          	lw	a0,40(sp)
    2728:	02c12583          	lw	a1,44(sp)
    272c:	002d8493          	addi	s1,s11,2
    2730:	69d140ef          	jal	ra,175cc <__fixdfsi>
    2734:	03050813          	addi	a6,a0,48
    2738:	ff048fa3          	sb	a6,-1(s1)
    273c:	0984f263          	bgeu	s1,s8,27c0 <fcvt+0x4fc>
    2740:	000a8693          	mv	a3,s5
    2744:	000a0613          	mv	a2,s4
    2748:	000b8513          	mv	a0,s7
    274c:	00090593          	mv	a1,s2
    2750:	012140ef          	jal	ra,16762 <__muldf3>
    2754:	02810613          	addi	a2,sp,40
    2758:	050120ef          	jal	ra,147a8 <modf>
    275c:	00050b13          	mv	s6,a0
    2760:	00058b93          	mv	s7,a1
    2764:	02812503          	lw	a0,40(sp)
    2768:	02c12583          	lw	a1,44(sp)
    276c:	003d8413          	addi	s0,s11,3
    2770:	65d140ef          	jal	ra,175cc <__fixdfsi>
    2774:	03050593          	addi	a1,a0,48
    2778:	feb40fa3          	sb	a1,-1(s0)
    277c:	05847263          	bgeu	s0,s8,27c0 <fcvt+0x4fc>
    2780:	000a8693          	mv	a3,s5
    2784:	000a0613          	mv	a2,s4
    2788:	000b0513          	mv	a0,s6
    278c:	000b8593          	mv	a1,s7
    2790:	7d3130ef          	jal	ra,16762 <__muldf3>
    2794:	02810613          	addi	a2,sp,40
    2798:	010120ef          	jal	ra,147a8 <modf>
    279c:	00050413          	mv	s0,a0
    27a0:	00058493          	mv	s1,a1
    27a4:	02812503          	lw	a0,40(sp)
    27a8:	02c12583          	lw	a1,44(sp)
    27ac:	004d8d93          	addi	s11,s11,4
    27b0:	61d140ef          	jal	ra,175cc <__fixdfsi>
    27b4:	03050313          	addi	t1,a0,48
    27b8:	fe6d8fa3          	sb	t1,-1(s11)
    27bc:	f18de0e3          	bltu	s11,s8,26bc <fcvt+0x3f8>
    27c0:	318d7663          	bgeu	s10,s8,2acc <fcvt+0x808>
    27c4:	000d4d83          	lbu	s11,0(s10)
    27c8:	03900513          	li	a0,57
    27cc:	005d8c13          	addi	s8,s11,5
    27d0:	0ffc7093          	andi	ra,s8,255
    27d4:	001d0023          	sb	ra,0(s10)
    27d8:	02157c63          	bgeu	a0,ra,2810 <fcvt+0x54c>
    27dc:	000d0e13          	mv	t3,s10
    27e0:	03000e93          	li	t4,48
    27e4:	03000a13          	li	s4,48
    27e8:	03100613          	li	a2,49
    27ec:	03900a93          	li	s5,57
    27f0:	07ccf463          	bgeu	s9,t3,2858 <fcvt+0x594>
    27f4:	fffe4683          	lbu	a3,-1(t3)
    27f8:	014e0023          	sb	s4,0(t3)
    27fc:	fffe0e13          	addi	t3,t3,-1
    2800:	00168793          	addi	a5,a3,1
    2804:	0ff7ff93          	andi	t6,a5,255
    2808:	01fe0023          	sb	t6,0(t3)
    280c:	fffae2e3          	bltu	s5,t6,27f0 <fcvt+0x52c>
    2810:	000d0023          	sb	zero,0(s10)
    2814:	01812983          	lw	s3,24(sp)
    2818:	06c12083          	lw	ra,108(sp)
    281c:	06812403          	lw	s0,104(sp)
    2820:	06412483          	lw	s1,100(sp)
    2824:	06012903          	lw	s2,96(sp)
    2828:	05812a03          	lw	s4,88(sp)
    282c:	05412a83          	lw	s5,84(sp)
    2830:	05012b03          	lw	s6,80(sp)
    2834:	04c12b83          	lw	s7,76(sp)
    2838:	04812c03          	lw	s8,72(sp)
    283c:	04412c83          	lw	s9,68(sp)
    2840:	04012d03          	lw	s10,64(sp)
    2844:	03c12d83          	lw	s11,60(sp)
    2848:	91898513          	addi	a0,s3,-1768
    284c:	05c12983          	lw	s3,92(sp)
    2850:	07010113          	addi	sp,sp,112
    2854:	00008067          	ret
    2858:	00ce0023          	sb	a2,0(t3)
    285c:	0009a703          	lw	a4,0(s3)
    2860:	00170f13          	addi	t5,a4,1
    2864:	01e9a023          	sw	t5,0(s3)
    2868:	01acf463          	bgeu	s9,s10,2870 <fcvt+0x5ac>
    286c:	01dd0023          	sb	t4,0(s10)
    2870:	000e4f83          	lbu	t6,0(t3)
    2874:	001d0d13          	addi	s10,s10,1
    2878:	f7faece3          	bltu	s5,t6,27f0 <fcvt+0x52c>
    287c:	f95ff06f          	j	2810 <fcvt+0x54c>
    2880:	00000613          	li	a2,0
    2884:	00000693          	li	a3,0
    2888:	00040513          	mv	a0,s0
    288c:	00048593          	mv	a1,s1
    2890:	567130ef          	jal	ra,165f6 <__gedf2>
    2894:	24a05063          	blez	a0,2ad4 <fcvt+0x810>
    2898:	00019b37          	lui	s6,0x19
    289c:	f50b2603          	lw	a2,-176(s6) # 18f50 <__erodata>
    28a0:	f54b2683          	lw	a3,-172(s6)
    28a4:	00040513          	mv	a0,s0
    28a8:	00048593          	mv	a1,s1
    28ac:	6b7130ef          	jal	ra,16762 <__muldf3>
    28b0:	000196b7          	lui	a3,0x19
    28b4:	f606aa03          	lw	s4,-160(a3) # 18f60 <__erodata+0x10>
    28b8:	f646aa83          	lw	s5,-156(a3)
    28bc:	00050c13          	mv	s8,a0
    28c0:	000a0613          	mv	a2,s4
    28c4:	000a8693          	mv	a3,s5
    28c8:	00058c93          	mv	s9,a1
    28cc:	5e1130ef          	jal	ra,166ac <__ledf2>
    28d0:	00000913          	li	s2,0
    28d4:	28055c63          	bgez	a0,2b6c <fcvt+0x8a8>
    28d8:	f54b2b83          	lw	s7,-172(s6)
    28dc:	f50b2d83          	lw	s11,-176(s6)
    28e0:	000d8613          	mv	a2,s11
    28e4:	000b8693          	mv	a3,s7
    28e8:	000c0513          	mv	a0,s8
    28ec:	000c8593          	mv	a1,s9
    28f0:	673130ef          	jal	ra,16762 <__muldf3>
    28f4:	fff90913          	addi	s2,s2,-1
    28f8:	000a0613          	mv	a2,s4
    28fc:	000a8693          	mv	a3,s5
    2900:	000c0413          	mv	s0,s8
    2904:	000c8493          	mv	s1,s9
    2908:	00090d13          	mv	s10,s2
    290c:	00050c13          	mv	s8,a0
    2910:	00058c93          	mv	s9,a1
    2914:	599130ef          	jal	ra,166ac <__ledf2>
    2918:	14055a63          	bgez	a0,2a6c <fcvt+0x7a8>
    291c:	000d8613          	mv	a2,s11
    2920:	000b8693          	mv	a3,s7
    2924:	000c0513          	mv	a0,s8
    2928:	000c8593          	mv	a1,s9
    292c:	637130ef          	jal	ra,16762 <__muldf3>
    2930:	000a0613          	mv	a2,s4
    2934:	000a8693          	mv	a3,s5
    2938:	000c0413          	mv	s0,s8
    293c:	000c8493          	mv	s1,s9
    2940:	fff90913          	addi	s2,s2,-1
    2944:	00050c13          	mv	s8,a0
    2948:	00058c93          	mv	s9,a1
    294c:	561130ef          	jal	ra,166ac <__ledf2>
    2950:	10055e63          	bgez	a0,2a6c <fcvt+0x7a8>
    2954:	000d8613          	mv	a2,s11
    2958:	000b8693          	mv	a3,s7
    295c:	000c0513          	mv	a0,s8
    2960:	000c8593          	mv	a1,s9
    2964:	5ff130ef          	jal	ra,16762 <__muldf3>
    2968:	000a0613          	mv	a2,s4
    296c:	000a8693          	mv	a3,s5
    2970:	000c0413          	mv	s0,s8
    2974:	000c8493          	mv	s1,s9
    2978:	ffed0913          	addi	s2,s10,-2
    297c:	00050c13          	mv	s8,a0
    2980:	00058c93          	mv	s9,a1
    2984:	529130ef          	jal	ra,166ac <__ledf2>
    2988:	0e055263          	bgez	a0,2a6c <fcvt+0x7a8>
    298c:	000d8613          	mv	a2,s11
    2990:	000b8693          	mv	a3,s7
    2994:	000c0513          	mv	a0,s8
    2998:	000c8593          	mv	a1,s9
    299c:	5c7130ef          	jal	ra,16762 <__muldf3>
    29a0:	000a0613          	mv	a2,s4
    29a4:	000a8693          	mv	a3,s5
    29a8:	000c0413          	mv	s0,s8
    29ac:	000c8493          	mv	s1,s9
    29b0:	ffdd0913          	addi	s2,s10,-3
    29b4:	00050c13          	mv	s8,a0
    29b8:	00058c93          	mv	s9,a1
    29bc:	4f1130ef          	jal	ra,166ac <__ledf2>
    29c0:	0a055663          	bgez	a0,2a6c <fcvt+0x7a8>
    29c4:	000d8613          	mv	a2,s11
    29c8:	000b8693          	mv	a3,s7
    29cc:	000c0513          	mv	a0,s8
    29d0:	000c8593          	mv	a1,s9
    29d4:	58f130ef          	jal	ra,16762 <__muldf3>
    29d8:	000a0613          	mv	a2,s4
    29dc:	000a8693          	mv	a3,s5
    29e0:	000c0413          	mv	s0,s8
    29e4:	000c8493          	mv	s1,s9
    29e8:	ffcd0913          	addi	s2,s10,-4
    29ec:	00050c13          	mv	s8,a0
    29f0:	00058c93          	mv	s9,a1
    29f4:	4b9130ef          	jal	ra,166ac <__ledf2>
    29f8:	06055a63          	bgez	a0,2a6c <fcvt+0x7a8>
    29fc:	000d8613          	mv	a2,s11
    2a00:	000b8693          	mv	a3,s7
    2a04:	000c0513          	mv	a0,s8
    2a08:	000c8593          	mv	a1,s9
    2a0c:	557130ef          	jal	ra,16762 <__muldf3>
    2a10:	000a0613          	mv	a2,s4
    2a14:	000a8693          	mv	a3,s5
    2a18:	000c0413          	mv	s0,s8
    2a1c:	000c8493          	mv	s1,s9
    2a20:	ffbd0913          	addi	s2,s10,-5
    2a24:	00050c13          	mv	s8,a0
    2a28:	00058c93          	mv	s9,a1
    2a2c:	481130ef          	jal	ra,166ac <__ledf2>
    2a30:	02055e63          	bgez	a0,2a6c <fcvt+0x7a8>
    2a34:	000d8613          	mv	a2,s11
    2a38:	000b8693          	mv	a3,s7
    2a3c:	000c0513          	mv	a0,s8
    2a40:	000c8593          	mv	a1,s9
    2a44:	51f130ef          	jal	ra,16762 <__muldf3>
    2a48:	000a0613          	mv	a2,s4
    2a4c:	000a8693          	mv	a3,s5
    2a50:	000c0413          	mv	s0,s8
    2a54:	000c8493          	mv	s1,s9
    2a58:	ffad0913          	addi	s2,s10,-6
    2a5c:	00050c13          	mv	s8,a0
    2a60:	00058c93          	mv	s9,a1
    2a64:	449130ef          	jal	ra,166ac <__ledf2>
    2a68:	08054263          	bltz	a0,2aec <fcvt+0x828>
    2a6c:	20001e37          	lui	t3,0x20001
    2a70:	03912623          	sw	s9,44(sp)
    2a74:	03812423          	sw	s8,40(sp)
    2a78:	00090b93          	mv	s7,s2
    2a7c:	01c12c23          	sw	t3,24(sp)
    2a80:	918e0c93          	addi	s9,t3,-1768 # 20000918 <CVTBUF>
    2a84:	01412683          	lw	a3,20(sp)
    2a88:	0129a023          	sw	s2,0(s3)
    2a8c:	01768c33          	add	s8,a3,s7
    2a90:	018c8d33          	add	s10,s9,s8
    2a94:	039d6863          	bltu	s10,s9,2ac4 <fcvt+0x800>
    2a98:	20001937          	lui	s2,0x20001
    2a9c:	00019a37          	lui	s4,0x19
    2aa0:	000c8d93          	mv	s11,s9
    2aa4:	96890c13          	addi	s8,s2,-1688 # 20000968 <__malloc_current_mallinfo>
    2aa8:	01412e23          	sw	s4,28(sp)
    2aac:	b65ff06f          	j	2610 <fcvt+0x34c>
    2ab0:	00100313          	li	t1,1
    2ab4:	800003b7          	lui	t2,0x80000
    2ab8:	00692023          	sw	t1,0(s2)
    2abc:	0083c433          	xor	s0,t2,s0
    2ac0:	881ff06f          	j	2340 <fcvt+0x7c>
    2ac4:	000c8023          	sb	zero,0(s9)
    2ac8:	d4dff06f          	j	2814 <fcvt+0x550>
    2acc:	040c87a3          	sb	zero,79(s9)
    2ad0:	d45ff06f          	j	2814 <fcvt+0x550>
    2ad4:	20001637          	lui	a2,0x20001
    2ad8:	00000b93          	li	s7,0
    2adc:	00000913          	li	s2,0
    2ae0:	00c12c23          	sw	a2,24(sp)
    2ae4:	91860c93          	addi	s9,a2,-1768 # 20000918 <CVTBUF>
    2ae8:	f9dff06f          	j	2a84 <fcvt+0x7c0>
    2aec:	000d8613          	mv	a2,s11
    2af0:	000b8693          	mv	a3,s7
    2af4:	000c0513          	mv	a0,s8
    2af8:	000c8593          	mv	a1,s9
    2afc:	467130ef          	jal	ra,16762 <__muldf3>
    2b00:	000a0613          	mv	a2,s4
    2b04:	000a8693          	mv	a3,s5
    2b08:	000c0413          	mv	s0,s8
    2b0c:	000c8493          	mv	s1,s9
    2b10:	ff9d0913          	addi	s2,s10,-7
    2b14:	00050c13          	mv	s8,a0
    2b18:	00058c93          	mv	s9,a1
    2b1c:	391130ef          	jal	ra,166ac <__ledf2>
    2b20:	dc0540e3          	bltz	a0,28e0 <fcvt+0x61c>
    2b24:	f49ff06f          	j	2a6c <fcvt+0x7a8>
    2b28:	000a8693          	mv	a3,s5
    2b2c:	000a0613          	mv	a2,s4
    2b30:	00040513          	mv	a0,s0
    2b34:	00048593          	mv	a1,s1
    2b38:	42b130ef          	jal	ra,16762 <__muldf3>
    2b3c:	02810613          	addi	a2,sp,40
    2b40:	469110ef          	jal	ra,147a8 <modf>
    2b44:	00050413          	mv	s0,a0
    2b48:	00058493          	mv	s1,a1
    2b4c:	02812503          	lw	a0,40(sp)
    2b50:	02c12583          	lw	a1,44(sp)
    2b54:	001d8d93          	addi	s11,s11,1
    2b58:	275140ef          	jal	ra,175cc <__fixdfsi>
    2b5c:	03050293          	addi	t0,a0,48
    2b60:	fe5d8fa3          	sb	t0,-1(s11)
    2b64:	b18dece3          	bltu	s11,s8,267c <fcvt+0x3b8>
    2b68:	c59ff06f          	j	27c0 <fcvt+0x4fc>
    2b6c:	20001737          	lui	a4,0x20001
    2b70:	03912623          	sw	s9,44(sp)
    2b74:	03812423          	sw	s8,40(sp)
    2b78:	00000b93          	li	s7,0
    2b7c:	00e12c23          	sw	a4,24(sp)
    2b80:	91870c93          	addi	s9,a4,-1768 # 20000918 <CVTBUF>
    2b84:	f01ff06f          	j	2a84 <fcvt+0x7c0>

00002b88 <fcvtbuf>:
    2b88:	f9010113          	addi	sp,sp,-112
    2b8c:	06812423          	sw	s0,104(sp)
    2b90:	06912223          	sw	s1,100(sp)
    2b94:	07212023          	sw	s2,96(sp)
    2b98:	05312e23          	sw	s3,92(sp)
    2b9c:	05912223          	sw	s9,68(sp)
    2ba0:	06112623          	sw	ra,108(sp)
    2ba4:	05412c23          	sw	s4,88(sp)
    2ba8:	05512a23          	sw	s5,84(sp)
    2bac:	05612823          	sw	s6,80(sp)
    2bb0:	05712623          	sw	s7,76(sp)
    2bb4:	05812423          	sw	s8,72(sp)
    2bb8:	05a12023          	sw	s10,64(sp)
    2bbc:	03b12e23          	sw	s11,60(sp)
    2bc0:	04e00293          	li	t0,78
    2bc4:	00050913          	mv	s2,a0
    2bc8:	00058493          	mv	s1,a1
    2bcc:	00068c93          	mv	s9,a3
    2bd0:	00070993          	mv	s3,a4
    2bd4:	00078413          	mv	s0,a5
    2bd8:	00c2c863          	blt	t0,a2,2be8 <fcvtbuf+0x60>
    2bdc:	fff64793          	not	a5,a2
    2be0:	41f7d093          	srai	ra,a5,0x1f
    2be4:	001672b3          	and	t0,a2,ra
    2be8:	00000613          	li	a2,0
    2bec:	00000693          	li	a3,0
    2bf0:	00090513          	mv	a0,s2
    2bf4:	00048593          	mv	a1,s1
    2bf8:	00512e23          	sw	t0,28(sp)
    2bfc:	2b1130ef          	jal	ra,166ac <__ledf2>
    2c00:	76054863          	bltz	a0,3370 <fcvtbuf+0x7e8>
    2c04:	0009a023          	sw	zero,0(s3)
    2c08:	02010613          	addi	a2,sp,32
    2c0c:	00090513          	mv	a0,s2
    2c10:	00048593          	mv	a1,s1
    2c14:	395110ef          	jal	ra,147a8 <modf>
    2c18:	02012803          	lw	a6,32(sp)
    2c1c:	02412883          	lw	a7,36(sp)
    2c20:	00050493          	mv	s1,a0
    2c24:	00058913          	mv	s2,a1
    2c28:	00000613          	li	a2,0
    2c2c:	00000693          	li	a3,0
    2c30:	00080513          	mv	a0,a6
    2c34:	00088593          	mv	a1,a7
    2c38:	05040993          	addi	s3,s0,80
    2c3c:	01012423          	sw	a6,8(sp)
    2c40:	01112623          	sw	a7,12(sp)
    2c44:	10f130ef          	jal	ra,16552 <__eqdf2>
    2c48:	4e050e63          	beqz	a0,3144 <fcvtbuf+0x5bc>
    2c4c:	000190b7          	lui	ra,0x19
    2c50:	f580a783          	lw	a5,-168(ra) # 18f58 <__erodata+0x8>
    2c54:	f5c0a283          	lw	t0,-164(ra)
    2c58:	00019fb7          	lui	t6,0x19
    2c5c:	00f12023          	sw	a5,0(sp)
    2c60:	00512223          	sw	t0,4(sp)
    2c64:	f50faa03          	lw	s4,-176(t6) # 18f50 <__erodata>
    2c68:	f54faa83          	lw	s5,-172(t6)
    2c6c:	00812783          	lw	a5,8(sp)
    2c70:	00c12283          	lw	t0,12(sp)
    2c74:	00098d13          	mv	s10,s3
    2c78:	05000b93          	li	s7,80
    2c7c:	00078513          	mv	a0,a5
    2c80:	00028593          	mv	a1,t0
    2c84:	000a8693          	mv	a3,s5
    2c88:	000a0613          	mv	a2,s4
    2c8c:	23a130ef          	jal	ra,15ec6 <__divdf3>
    2c90:	02010613          	addi	a2,sp,32
    2c94:	315110ef          	jal	ra,147a8 <modf>
    2c98:	00012603          	lw	a2,0(sp)
    2c9c:	00412683          	lw	a3,4(sp)
    2ca0:	02a12423          	sw	a0,40(sp)
    2ca4:	02b12623          	sw	a1,44(sp)
    2ca8:	167120ef          	jal	ra,1560e <__adddf3>
    2cac:	000a0613          	mv	a2,s4
    2cb0:	000a8693          	mv	a3,s5
    2cb4:	2af130ef          	jal	ra,16762 <__muldf3>
    2cb8:	115140ef          	jal	ra,175cc <__fixdfsi>
    2cbc:	02012803          	lw	a6,32(sp)
    2cc0:	02412883          	lw	a7,36(sp)
    2cc4:	fffd0d13          	addi	s10,s10,-1
    2cc8:	03050513          	addi	a0,a0,48
    2ccc:	0ff57b13          	andi	s6,a0,255
    2cd0:	41ab85b3          	sub	a1,s7,s10
    2cd4:	00858db3          	add	s11,a1,s0
    2cd8:	016d0023          	sb	s6,0(s10)
    2cdc:	00000613          	li	a2,0
    2ce0:	00000693          	li	a3,0
    2ce4:	00080513          	mv	a0,a6
    2ce8:	00088593          	mv	a1,a7
    2cec:	01a12423          	sw	s10,8(sp)
    2cf0:	01012823          	sw	a6,16(sp)
    2cf4:	01112a23          	sw	a7,20(sp)
    2cf8:	05b130ef          	jal	ra,16552 <__eqdf2>
    2cfc:	01012703          	lw	a4,16(sp)
    2d00:	01412e03          	lw	t3,20(sp)
    2d04:	000d8c13          	mv	s8,s11
    2d08:	08050a63          	beqz	a0,2d9c <fcvtbuf+0x214>
    2d0c:	00070513          	mv	a0,a4
    2d10:	000e0593          	mv	a1,t3
    2d14:	000a8693          	mv	a3,s5
    2d18:	000a0613          	mv	a2,s4
    2d1c:	1aa130ef          	jal	ra,15ec6 <__divdf3>
    2d20:	02010613          	addi	a2,sp,32
    2d24:	285110ef          	jal	ra,147a8 <modf>
    2d28:	00012603          	lw	a2,0(sp)
    2d2c:	00412683          	lw	a3,4(sp)
    2d30:	02a12423          	sw	a0,40(sp)
    2d34:	02b12623          	sw	a1,44(sp)
    2d38:	0d7120ef          	jal	ra,1560e <__adddf3>
    2d3c:	000a0613          	mv	a2,s4
    2d40:	000a8693          	mv	a3,s5
    2d44:	21f130ef          	jal	ra,16762 <__muldf3>
    2d48:	085140ef          	jal	ra,175cc <__fixdfsi>
    2d4c:	02012f03          	lw	t5,32(sp)
    2d50:	02412f83          	lw	t6,36(sp)
    2d54:	03050693          	addi	a3,a0,48
    2d58:	fffd0d13          	addi	s10,s10,-1
    2d5c:	0ff6fb13          	andi	s6,a3,255
    2d60:	41ab8eb3          	sub	t4,s7,s10
    2d64:	016d0023          	sb	s6,0(s10)
    2d68:	00000613          	li	a2,0
    2d6c:	00000693          	li	a3,0
    2d70:	000f0513          	mv	a0,t5
    2d74:	000f8593          	mv	a1,t6
    2d78:	008e8db3          	add	s11,t4,s0
    2d7c:	01a12423          	sw	s10,8(sp)
    2d80:	01e12823          	sw	t5,16(sp)
    2d84:	01f12a23          	sw	t6,20(sp)
    2d88:	7ca130ef          	jal	ra,16552 <__eqdf2>
    2d8c:	01012783          	lw	a5,16(sp)
    2d90:	01412283          	lw	t0,20(sp)
    2d94:	000d8c13          	mv	s8,s11
    2d98:	ee0512e3          	bnez	a0,2c7c <fcvtbuf+0xf4>
    2d9c:	5b3d7a63          	bgeu	s10,s3,3350 <fcvtbuf+0x7c8>
    2da0:	413d0c33          	sub	s8,s10,s3
    2da4:	fffc4093          	not	ra,s8
    2da8:	0070fb93          	andi	s7,ra,7
    2dac:	00040e13          	mv	t3,s0
    2db0:	0e0b8a63          	beqz	s7,2ea4 <fcvtbuf+0x31c>
    2db4:	001d0d13          	addi	s10,s10,1
    2db8:	01640023          	sb	s6,0(s0)
    2dbc:	00100313          	li	t1,1
    2dc0:	00140e13          	addi	t3,s0,1
    2dc4:	000d4b03          	lbu	s6,0(s10)
    2dc8:	0c6b8e63          	beq	s7,t1,2ea4 <fcvtbuf+0x31c>
    2dcc:	00200393          	li	t2,2
    2dd0:	067b8a63          	beq	s7,t2,2e44 <fcvtbuf+0x2bc>
    2dd4:	00300513          	li	a0,3
    2dd8:	04ab8e63          	beq	s7,a0,2e34 <fcvtbuf+0x2ac>
    2ddc:	00400593          	li	a1,4
    2de0:	04bb8263          	beq	s7,a1,2e24 <fcvtbuf+0x29c>
    2de4:	00500813          	li	a6,5
    2de8:	030b8663          	beq	s7,a6,2e14 <fcvtbuf+0x28c>
    2dec:	00600893          	li	a7,6
    2df0:	011b8a63          	beq	s7,a7,2e04 <fcvtbuf+0x27c>
    2df4:	016400a3          	sb	s6,1(s0)
    2df8:	001d4b03          	lbu	s6,1(s10)
    2dfc:	00240e13          	addi	t3,s0,2
    2e00:	001d0d13          	addi	s10,s10,1
    2e04:	016e0023          	sb	s6,0(t3)
    2e08:	001d4b03          	lbu	s6,1(s10)
    2e0c:	001e0e13          	addi	t3,t3,1
    2e10:	001d0d13          	addi	s10,s10,1
    2e14:	016e0023          	sb	s6,0(t3)
    2e18:	001d4b03          	lbu	s6,1(s10)
    2e1c:	001e0e13          	addi	t3,t3,1
    2e20:	001d0d13          	addi	s10,s10,1
    2e24:	016e0023          	sb	s6,0(t3)
    2e28:	001d4b03          	lbu	s6,1(s10)
    2e2c:	001e0e13          	addi	t3,t3,1
    2e30:	001d0d13          	addi	s10,s10,1
    2e34:	016e0023          	sb	s6,0(t3)
    2e38:	001d4b03          	lbu	s6,1(s10)
    2e3c:	001e0e13          	addi	t3,t3,1
    2e40:	001d0d13          	addi	s10,s10,1
    2e44:	001d0d13          	addi	s10,s10,1
    2e48:	016e0023          	sb	s6,0(t3)
    2e4c:	000d4b03          	lbu	s6,0(s10)
    2e50:	001d0713          	addi	a4,s10,1
    2e54:	001e0e13          	addi	t3,t3,1
    2e58:	016e0023          	sb	s6,0(t3)
    2e5c:	04e98a63          	beq	s3,a4,2eb0 <fcvtbuf+0x328>
    2e60:	001d4b03          	lbu	s6,1(s10)
    2e64:	008e0e13          	addi	t3,t3,8
    2e68:	008d0d13          	addi	s10,s10,8
    2e6c:	ff6e0ca3          	sb	s6,-7(t3)
    2e70:	ffad4083          	lbu	ra,-6(s10)
    2e74:	fe1e0d23          	sb	ra,-6(t3)
    2e78:	ffbd4303          	lbu	t1,-5(s10)
    2e7c:	fe6e0da3          	sb	t1,-5(t3)
    2e80:	ffcd4383          	lbu	t2,-4(s10)
    2e84:	fe7e0e23          	sb	t2,-4(t3)
    2e88:	ffdd4b83          	lbu	s7,-3(s10)
    2e8c:	ff7e0ea3          	sb	s7,-3(t3)
    2e90:	ffed4503          	lbu	a0,-2(s10)
    2e94:	feae0f23          	sb	a0,-2(t3)
    2e98:	fffd4583          	lbu	a1,-1(s10)
    2e9c:	febe0fa3          	sb	a1,-1(t3)
    2ea0:	000d4b03          	lbu	s6,0(s10)
    2ea4:	001d0713          	addi	a4,s10,1
    2ea8:	016e0023          	sb	s6,0(t3)
    2eac:	fae99ae3          	bne	s3,a4,2e60 <fcvtbuf+0x2d8>
    2eb0:	01c12e83          	lw	t4,28(sp)
    2eb4:	00812d03          	lw	s10,8(sp)
    2eb8:	01bca023          	sw	s11,0(s9)
    2ebc:	01be8f33          	add	t5,t4,s11
    2ec0:	41a986b3          	sub	a3,s3,s10
    2ec4:	01e40b33          	add	s6,s0,t5
    2ec8:	00d40d33          	add	s10,s0,a3
    2ecc:	488b6e63          	bltu	s6,s0,3368 <fcvtbuf+0x7e0>
    2ed0:	1bab6c63          	bltu	s6,s10,3088 <fcvtbuf+0x500>
    2ed4:	1b3d7a63          	bgeu	s10,s3,3088 <fcvtbuf+0x500>
    2ed8:	41ab0fb3          	sub	t6,s6,s10
    2edc:	00019db7          	lui	s11,0x19
    2ee0:	003ffc13          	andi	s8,t6,3
    2ee4:	f50daa03          	lw	s4,-176(s11) # 18f50 <__erodata>
    2ee8:	f54daa83          	lw	s5,-172(s11)
    2eec:	080c0c63          	beqz	s8,2f84 <fcvtbuf+0x3fc>
    2ef0:	000a8693          	mv	a3,s5
    2ef4:	000a0613          	mv	a2,s4
    2ef8:	00048513          	mv	a0,s1
    2efc:	00090593          	mv	a1,s2
    2f00:	063130ef          	jal	ra,16762 <__muldf3>
    2f04:	02810613          	addi	a2,sp,40
    2f08:	0a1110ef          	jal	ra,147a8 <modf>
    2f0c:	00050493          	mv	s1,a0
    2f10:	00058913          	mv	s2,a1
    2f14:	02812503          	lw	a0,40(sp)
    2f18:	02c12583          	lw	a1,44(sp)
    2f1c:	001d0d13          	addi	s10,s10,1
    2f20:	6ac140ef          	jal	ra,175cc <__fixdfsi>
    2f24:	03050793          	addi	a5,a0,48
    2f28:	fefd0fa3          	sb	a5,-1(s10)
    2f2c:	15ab6e63          	bltu	s6,s10,3088 <fcvtbuf+0x500>
    2f30:	15a98c63          	beq	s3,s10,3088 <fcvtbuf+0x500>
    2f34:	00100293          	li	t0,1
    2f38:	045c0663          	beq	s8,t0,2f84 <fcvtbuf+0x3fc>
    2f3c:	00200093          	li	ra,2
    2f40:	4a1c1863          	bne	s8,ra,33f0 <fcvtbuf+0x868>
    2f44:	000a8693          	mv	a3,s5
    2f48:	000a0613          	mv	a2,s4
    2f4c:	00048513          	mv	a0,s1
    2f50:	00090593          	mv	a1,s2
    2f54:	00f130ef          	jal	ra,16762 <__muldf3>
    2f58:	02810613          	addi	a2,sp,40
    2f5c:	04d110ef          	jal	ra,147a8 <modf>
    2f60:	00050493          	mv	s1,a0
    2f64:	00058913          	mv	s2,a1
    2f68:	02812503          	lw	a0,40(sp)
    2f6c:	02c12583          	lw	a1,44(sp)
    2f70:	001d0d13          	addi	s10,s10,1
    2f74:	658140ef          	jal	ra,175cc <__fixdfsi>
    2f78:	03050313          	addi	t1,a0,48
    2f7c:	fe6d0fa3          	sb	t1,-1(s10)
    2f80:	11a98463          	beq	s3,s10,3088 <fcvtbuf+0x500>
    2f84:	000a8693          	mv	a3,s5
    2f88:	000a0613          	mv	a2,s4
    2f8c:	00048513          	mv	a0,s1
    2f90:	00090593          	mv	a1,s2
    2f94:	7ce130ef          	jal	ra,16762 <__muldf3>
    2f98:	02810613          	addi	a2,sp,40
    2f9c:	00d110ef          	jal	ra,147a8 <modf>
    2fa0:	00050d93          	mv	s11,a0
    2fa4:	00058913          	mv	s2,a1
    2fa8:	02812503          	lw	a0,40(sp)
    2fac:	02c12583          	lw	a1,44(sp)
    2fb0:	001d0493          	addi	s1,s10,1
    2fb4:	618140ef          	jal	ra,175cc <__fixdfsi>
    2fb8:	03050393          	addi	t2,a0,48
    2fbc:	007d0023          	sb	t2,0(s10)
    2fc0:	0c9b6463          	bltu	s6,s1,3088 <fcvtbuf+0x500>
    2fc4:	0c998263          	beq	s3,s1,3088 <fcvtbuf+0x500>
    2fc8:	000a8693          	mv	a3,s5
    2fcc:	000d8513          	mv	a0,s11
    2fd0:	000a0613          	mv	a2,s4
    2fd4:	00090593          	mv	a1,s2
    2fd8:	78a130ef          	jal	ra,16762 <__muldf3>
    2fdc:	02810613          	addi	a2,sp,40
    2fe0:	7c8110ef          	jal	ra,147a8 <modf>
    2fe4:	00050c13          	mv	s8,a0
    2fe8:	00058b93          	mv	s7,a1
    2fec:	02812503          	lw	a0,40(sp)
    2ff0:	02c12583          	lw	a1,44(sp)
    2ff4:	002d0d93          	addi	s11,s10,2
    2ff8:	5d4140ef          	jal	ra,175cc <__fixdfsi>
    2ffc:	03050513          	addi	a0,a0,48
    3000:	fead8fa3          	sb	a0,-1(s11)
    3004:	09b98263          	beq	s3,s11,3088 <fcvtbuf+0x500>
    3008:	000a8693          	mv	a3,s5
    300c:	000a0613          	mv	a2,s4
    3010:	000c0513          	mv	a0,s8
    3014:	000b8593          	mv	a1,s7
    3018:	74a130ef          	jal	ra,16762 <__muldf3>
    301c:	02810613          	addi	a2,sp,40
    3020:	788110ef          	jal	ra,147a8 <modf>
    3024:	00050c13          	mv	s8,a0
    3028:	00058913          	mv	s2,a1
    302c:	02812503          	lw	a0,40(sp)
    3030:	02c12583          	lw	a1,44(sp)
    3034:	003d0493          	addi	s1,s10,3
    3038:	594140ef          	jal	ra,175cc <__fixdfsi>
    303c:	03050813          	addi	a6,a0,48
    3040:	ff048fa3          	sb	a6,-1(s1)
    3044:	04998263          	beq	s3,s1,3088 <fcvtbuf+0x500>
    3048:	000a8693          	mv	a3,s5
    304c:	000a0613          	mv	a2,s4
    3050:	00090593          	mv	a1,s2
    3054:	000c0513          	mv	a0,s8
    3058:	70a130ef          	jal	ra,16762 <__muldf3>
    305c:	02810613          	addi	a2,sp,40
    3060:	748110ef          	jal	ra,147a8 <modf>
    3064:	00050493          	mv	s1,a0
    3068:	00058913          	mv	s2,a1
    306c:	02812503          	lw	a0,40(sp)
    3070:	02c12583          	lw	a1,44(sp)
    3074:	004d0d13          	addi	s10,s10,4
    3078:	554140ef          	jal	ra,175cc <__fixdfsi>
    307c:	03050313          	addi	t1,a0,48
    3080:	fe6d0fa3          	sb	t1,-1(s10)
    3084:	f1a990e3          	bne	s3,s10,2f84 <fcvtbuf+0x3fc>
    3088:	2f3b7e63          	bgeu	s6,s3,3384 <fcvtbuf+0x7fc>
    308c:	000b4983          	lbu	s3,0(s6)
    3090:	03900713          	li	a4,57
    3094:	00598893          	addi	a7,s3,5
    3098:	0ff8fe13          	andi	t3,a7,255
    309c:	01cb0023          	sb	t3,0(s6)
    30a0:	03c77c63          	bgeu	a4,t3,30d8 <fcvtbuf+0x550>
    30a4:	000b0d13          	mv	s10,s6
    30a8:	03000e93          	li	t4,48
    30ac:	03000f13          	li	t5,48
    30b0:	03100613          	li	a2,49
    30b4:	03900693          	li	a3,57
    30b8:	07a47263          	bgeu	s0,s10,311c <fcvtbuf+0x594>
    30bc:	fffd4783          	lbu	a5,-1(s10)
    30c0:	01ed0023          	sb	t5,0(s10)
    30c4:	fffd0d13          	addi	s10,s10,-1
    30c8:	00178293          	addi	t0,a5,1
    30cc:	0ff2ff93          	andi	t6,t0,255
    30d0:	01fd0023          	sb	t6,0(s10)
    30d4:	fff6e2e3          	bltu	a3,t6,30b8 <fcvtbuf+0x530>
    30d8:	000b0023          	sb	zero,0(s6)
    30dc:	06c12083          	lw	ra,108(sp)
    30e0:	00040513          	mv	a0,s0
    30e4:	06812403          	lw	s0,104(sp)
    30e8:	06412483          	lw	s1,100(sp)
    30ec:	06012903          	lw	s2,96(sp)
    30f0:	05c12983          	lw	s3,92(sp)
    30f4:	05812a03          	lw	s4,88(sp)
    30f8:	05412a83          	lw	s5,84(sp)
    30fc:	05012b03          	lw	s6,80(sp)
    3100:	04c12b83          	lw	s7,76(sp)
    3104:	04812c03          	lw	s8,72(sp)
    3108:	04412c83          	lw	s9,68(sp)
    310c:	04012d03          	lw	s10,64(sp)
    3110:	03c12d83          	lw	s11,60(sp)
    3114:	07010113          	addi	sp,sp,112
    3118:	00008067          	ret
    311c:	00cd0023          	sb	a2,0(s10)
    3120:	000caa03          	lw	s4,0(s9)
    3124:	001a0a93          	addi	s5,s4,1 # 19001 <_global_impure_ptr+0x5>
    3128:	015ca023          	sw	s5,0(s9)
    312c:	01647463          	bgeu	s0,s6,3134 <fcvtbuf+0x5ac>
    3130:	01db0023          	sb	t4,0(s6)
    3134:	000d4f83          	lbu	t6,0(s10)
    3138:	001b0b13          	addi	s6,s6,1
    313c:	f7f6eee3          	bltu	a3,t6,30b8 <fcvtbuf+0x530>
    3140:	f99ff06f          	j	30d8 <fcvtbuf+0x550>
    3144:	00000613          	li	a2,0
    3148:	00000693          	li	a3,0
    314c:	00048513          	mv	a0,s1
    3150:	00090593          	mv	a1,s2
    3154:	4a2130ef          	jal	ra,165f6 <__gedf2>
    3158:	22a05a63          	blez	a0,338c <fcvtbuf+0x804>
    315c:	00019b37          	lui	s6,0x19
    3160:	f50b2603          	lw	a2,-176(s6) # 18f50 <__erodata>
    3164:	f54b2683          	lw	a3,-172(s6)
    3168:	00048513          	mv	a0,s1
    316c:	00090593          	mv	a1,s2
    3170:	5f2130ef          	jal	ra,16762 <__muldf3>
    3174:	00019737          	lui	a4,0x19
    3178:	f6072a03          	lw	s4,-160(a4) # 18f60 <__erodata+0x10>
    317c:	f6472a83          	lw	s5,-156(a4)
    3180:	00050d93          	mv	s11,a0
    3184:	000a0613          	mv	a2,s4
    3188:	000a8693          	mv	a3,s5
    318c:	00058d13          	mv	s10,a1
    3190:	51c130ef          	jal	ra,166ac <__ledf2>
    3194:	00000c13          	li	s8,0
    3198:	28055e63          	bgez	a0,3434 <fcvtbuf+0x8ac>
    319c:	f54b2b83          	lw	s7,-172(s6)
    31a0:	f50b2b03          	lw	s6,-176(s6)
    31a4:	000b0613          	mv	a2,s6
    31a8:	000b8693          	mv	a3,s7
    31ac:	000d8513          	mv	a0,s11
    31b0:	000d0593          	mv	a1,s10
    31b4:	fffc0c13          	addi	s8,s8,-1
    31b8:	01812023          	sw	s8,0(sp)
    31bc:	5a6130ef          	jal	ra,16762 <__muldf3>
    31c0:	000a0613          	mv	a2,s4
    31c4:	000a8693          	mv	a3,s5
    31c8:	000d8493          	mv	s1,s11
    31cc:	000d0913          	mv	s2,s10
    31d0:	00050d93          	mv	s11,a0
    31d4:	00058d13          	mv	s10,a1
    31d8:	4d4130ef          	jal	ra,166ac <__ledf2>
    31dc:	16055463          	bgez	a0,3344 <fcvtbuf+0x7bc>
    31e0:	000b0613          	mv	a2,s6
    31e4:	000b8693          	mv	a3,s7
    31e8:	000d8513          	mv	a0,s11
    31ec:	000d0593          	mv	a1,s10
    31f0:	572130ef          	jal	ra,16762 <__muldf3>
    31f4:	000a0613          	mv	a2,s4
    31f8:	000a8693          	mv	a3,s5
    31fc:	000d8493          	mv	s1,s11
    3200:	000d0913          	mv	s2,s10
    3204:	fffc0c13          	addi	s8,s8,-1
    3208:	00050d93          	mv	s11,a0
    320c:	00058d13          	mv	s10,a1
    3210:	49c130ef          	jal	ra,166ac <__ledf2>
    3214:	12055863          	bgez	a0,3344 <fcvtbuf+0x7bc>
    3218:	00012603          	lw	a2,0(sp)
    321c:	000b8693          	mv	a3,s7
    3220:	000d8513          	mv	a0,s11
    3224:	000d0593          	mv	a1,s10
    3228:	ffe60c13          	addi	s8,a2,-2
    322c:	000b0613          	mv	a2,s6
    3230:	532130ef          	jal	ra,16762 <__muldf3>
    3234:	000a0613          	mv	a2,s4
    3238:	000a8693          	mv	a3,s5
    323c:	000d8493          	mv	s1,s11
    3240:	000d0913          	mv	s2,s10
    3244:	00050d93          	mv	s11,a0
    3248:	00058d13          	mv	s10,a1
    324c:	460130ef          	jal	ra,166ac <__ledf2>
    3250:	0e055a63          	bgez	a0,3344 <fcvtbuf+0x7bc>
    3254:	00012683          	lw	a3,0(sp)
    3258:	000b0613          	mv	a2,s6
    325c:	000d8513          	mv	a0,s11
    3260:	000d0593          	mv	a1,s10
    3264:	ffd68c13          	addi	s8,a3,-3
    3268:	000b8693          	mv	a3,s7
    326c:	4f6130ef          	jal	ra,16762 <__muldf3>
    3270:	000a0613          	mv	a2,s4
    3274:	000a8693          	mv	a3,s5
    3278:	000d8493          	mv	s1,s11
    327c:	000d0913          	mv	s2,s10
    3280:	00050d93          	mv	s11,a0
    3284:	00058d13          	mv	s10,a1
    3288:	424130ef          	jal	ra,166ac <__ledf2>
    328c:	0a055c63          	bgez	a0,3344 <fcvtbuf+0x7bc>
    3290:	000b0613          	mv	a2,s6
    3294:	000b8693          	mv	a3,s7
    3298:	000d8513          	mv	a0,s11
    329c:	000d0593          	mv	a1,s10
    32a0:	00012c03          	lw	s8,0(sp)
    32a4:	4be130ef          	jal	ra,16762 <__muldf3>
    32a8:	000a0613          	mv	a2,s4
    32ac:	000a8693          	mv	a3,s5
    32b0:	000d8493          	mv	s1,s11
    32b4:	000d0913          	mv	s2,s10
    32b8:	ffcc0c13          	addi	s8,s8,-4
    32bc:	00050d93          	mv	s11,a0
    32c0:	00058d13          	mv	s10,a1
    32c4:	3e8130ef          	jal	ra,166ac <__ledf2>
    32c8:	06055e63          	bgez	a0,3344 <fcvtbuf+0x7bc>
    32cc:	00012e03          	lw	t3,0(sp)
    32d0:	000b0613          	mv	a2,s6
    32d4:	000b8693          	mv	a3,s7
    32d8:	000d8513          	mv	a0,s11
    32dc:	000d0593          	mv	a1,s10
    32e0:	ffbe0c13          	addi	s8,t3,-5
    32e4:	47e130ef          	jal	ra,16762 <__muldf3>
    32e8:	000a0613          	mv	a2,s4
    32ec:	000a8693          	mv	a3,s5
    32f0:	000d8493          	mv	s1,s11
    32f4:	000d0913          	mv	s2,s10
    32f8:	00050d93          	mv	s11,a0
    32fc:	00058d13          	mv	s10,a1
    3300:	3ac130ef          	jal	ra,166ac <__ledf2>
    3304:	04055063          	bgez	a0,3344 <fcvtbuf+0x7bc>
    3308:	00012e83          	lw	t4,0(sp)
    330c:	000b0613          	mv	a2,s6
    3310:	000b8693          	mv	a3,s7
    3314:	000d8513          	mv	a0,s11
    3318:	000d0593          	mv	a1,s10
    331c:	ffae8c13          	addi	s8,t4,-6
    3320:	442130ef          	jal	ra,16762 <__muldf3>
    3324:	000a0613          	mv	a2,s4
    3328:	000a8693          	mv	a3,s5
    332c:	000d8493          	mv	s1,s11
    3330:	000d0913          	mv	s2,s10
    3334:	00050d93          	mv	s11,a0
    3338:	00058d13          	mv	s10,a1
    333c:	370130ef          	jal	ra,166ac <__ledf2>
    3340:	06054863          	bltz	a0,33b0 <fcvtbuf+0x828>
    3344:	03b12423          	sw	s11,40(sp)
    3348:	03a12623          	sw	s10,44(sp)
    334c:	000c0d93          	mv	s11,s8
    3350:	01c12a03          	lw	s4,28(sp)
    3354:	018ca023          	sw	s8,0(s9)
    3358:	00040d13          	mv	s10,s0
    335c:	01ba0ab3          	add	s5,s4,s11
    3360:	01540b33          	add	s6,s0,s5
    3364:	b68b78e3          	bgeu	s6,s0,2ed4 <fcvtbuf+0x34c>
    3368:	00040023          	sb	zero,0(s0)
    336c:	d71ff06f          	j	30dc <fcvtbuf+0x554>
    3370:	00100313          	li	t1,1
    3374:	800003b7          	lui	t2,0x80000
    3378:	0069a023          	sw	t1,0(s3)
    337c:	0093c4b3          	xor	s1,t2,s1
    3380:	889ff06f          	j	2c08 <fcvtbuf+0x80>
    3384:	040407a3          	sb	zero,79(s0)
    3388:	d55ff06f          	j	30dc <fcvtbuf+0x554>
    338c:	01c12a03          	lw	s4,28(sp)
    3390:	00000d93          	li	s11,0
    3394:	00000c13          	li	s8,0
    3398:	01ba0ab3          	add	s5,s4,s11
    339c:	01540b33          	add	s6,s0,s5
    33a0:	018ca023          	sw	s8,0(s9)
    33a4:	00040d13          	mv	s10,s0
    33a8:	b28b76e3          	bgeu	s6,s0,2ed4 <fcvtbuf+0x34c>
    33ac:	fbdff06f          	j	3368 <fcvtbuf+0x7e0>
    33b0:	00012f03          	lw	t5,0(sp)
    33b4:	000b0613          	mv	a2,s6
    33b8:	000b8693          	mv	a3,s7
    33bc:	000d8513          	mv	a0,s11
    33c0:	000d0593          	mv	a1,s10
    33c4:	ff9f0c13          	addi	s8,t5,-7
    33c8:	39a130ef          	jal	ra,16762 <__muldf3>
    33cc:	000a0613          	mv	a2,s4
    33d0:	000a8693          	mv	a3,s5
    33d4:	000d8493          	mv	s1,s11
    33d8:	000d0913          	mv	s2,s10
    33dc:	00050d93          	mv	s11,a0
    33e0:	00058d13          	mv	s10,a1
    33e4:	2c8130ef          	jal	ra,166ac <__ledf2>
    33e8:	da054ee3          	bltz	a0,31a4 <fcvtbuf+0x61c>
    33ec:	f59ff06f          	j	3344 <fcvtbuf+0x7bc>
    33f0:	000a8693          	mv	a3,s5
    33f4:	000a0613          	mv	a2,s4
    33f8:	00048513          	mv	a0,s1
    33fc:	00090593          	mv	a1,s2
    3400:	362130ef          	jal	ra,16762 <__muldf3>
    3404:	02810613          	addi	a2,sp,40
    3408:	3a0110ef          	jal	ra,147a8 <modf>
    340c:	00050493          	mv	s1,a0
    3410:	00058913          	mv	s2,a1
    3414:	02812503          	lw	a0,40(sp)
    3418:	02c12583          	lw	a1,44(sp)
    341c:	001d0d13          	addi	s10,s10,1
    3420:	1ac140ef          	jal	ra,175cc <__fixdfsi>
    3424:	03050b93          	addi	s7,a0,48
    3428:	ff7d0fa3          	sb	s7,-1(s10)
    342c:	b1a99ce3          	bne	s3,s10,2f44 <fcvtbuf+0x3bc>
    3430:	c59ff06f          	j	3088 <fcvtbuf+0x500>
    3434:	03b12423          	sw	s11,40(sp)
    3438:	03a12623          	sw	s10,44(sp)
    343c:	00000d93          	li	s11,0
    3440:	f11ff06f          	j	3350 <fcvtbuf+0x7c8>

00003444 <core_bench_state>:
    3444:	f7010113          	addi	sp,sp,-144
    3448:	07312e23          	sw	s3,124(sp)
    344c:	07512a23          	sw	s5,116(sp)
    3450:	07612823          	sw	s6,112(sp)
    3454:	07712623          	sw	s7,108(sp)
    3458:	08112623          	sw	ra,140(sp)
    345c:	08812423          	sw	s0,136(sp)
    3460:	08912223          	sw	s1,132(sp)
    3464:	09212023          	sw	s2,128(sp)
    3468:	07412c23          	sw	s4,120(sp)
    346c:	07812423          	sw	s8,104(sp)
    3470:	07912223          	sw	s9,100(sp)
    3474:	07a12023          	sw	s10,96(sp)
    3478:	05b12e23          	sw	s11,92(sp)
    347c:	00058f93          	mv	t6,a1
    3480:	000fc303          	lbu	t1,0(t6)
    3484:	03010a93          	addi	s5,sp,48
    3488:	02012823          	sw	zero,48(sp)
    348c:	00a12623          	sw	a0,12(sp)
    3490:	000aa223          	sw	zero,4(s5)
    3494:	000aa423          	sw	zero,8(s5)
    3498:	000aa623          	sw	zero,12(s5)
    349c:	000aa823          	sw	zero,16(s5)
    34a0:	000aaa23          	sw	zero,20(s5)
    34a4:	000aac23          	sw	zero,24(s5)
    34a8:	000aae23          	sw	zero,28(s5)
    34ac:	00012823          	sw	zero,16(sp)
    34b0:	00012a23          	sw	zero,20(sp)
    34b4:	00012c23          	sw	zero,24(sp)
    34b8:	00012e23          	sw	zero,28(sp)
    34bc:	02012023          	sw	zero,32(sp)
    34c0:	02012223          	sw	zero,36(sp)
    34c4:	02012423          	sw	zero,40(sp)
    34c8:	02012623          	sw	zero,44(sp)
    34cc:	00060b13          	mv	s6,a2
    34d0:	00068b93          	mv	s7,a3
    34d4:	00070993          	mv	s3,a4
    34d8:	00078593          	mv	a1,a5
    34dc:	3c030063          	beqz	t1,389c <core_bench_state+0x458>
    34e0:	02c00793          	li	a5,44
    34e4:	06f30ce3          	beq	t1,a5,3d5c <core_bench_state+0x918>
    34e8:	00030813          	mv	a6,t1
    34ec:	000f8e13          	mv	t3,t6
    34f0:	00000613          	li	a2,0
    34f4:	00000693          	li	a3,0
    34f8:	00000393          	li	t2,0
    34fc:	00000793          	li	a5,0
    3500:	00000093          	li	ra,0
    3504:	00000413          	li	s0,0
    3508:	00000c93          	li	s9,0
    350c:	00000493          	li	s1,0
    3510:	00000a13          	li	s4,0
    3514:	00000713          	li	a4,0
    3518:	00000c13          	li	s8,0
    351c:	00000513          	li	a0,0
    3520:	00000913          	li	s2,0
    3524:	fd080293          	addi	t0,a6,-48
    3528:	0ff2fd93          	andi	s11,t0,255
    352c:	00900e93          	li	t4,9
    3530:	0fbee863          	bltu	t4,s11,3620 <core_bench_state+0x1dc>
    3534:	001e4803          	lbu	a6,1(t3)
    3538:	00150513          	addi	a0,a0,1
    353c:	001e0e93          	addi	t4,t3,1
    3540:	00400893          	li	a7,4
    3544:	00100293          	li	t0,1
    3548:	30080463          	beqz	a6,3850 <core_bench_state+0x40c>
    354c:	02c00e13          	li	t3,44
    3550:	02e00f13          	li	t5,46
    3554:	00900d13          	li	s10,9
    3558:	02c00d93          	li	s11,44
    355c:	05c80c63          	beq	a6,t3,35b4 <core_bench_state+0x170>
    3560:	0fe80c63          	beq	a6,t5,3658 <core_bench_state+0x214>
    3564:	fd080813          	addi	a6,a6,-48
    3568:	0ff87293          	andi	t0,a6,255
    356c:	245d7a63          	bgeu	s10,t0,37c0 <core_bench_state+0x37c>
    3570:	001ec803          	lbu	a6,1(t4)
    3574:	00148493          	addi	s1,s1,1
    3578:	001e8e13          	addi	t3,t4,1
    357c:	00100c93          	li	s9,1
    3580:	00100293          	li	t0,1
    3584:	00100893          	li	a7,1
    3588:	00289893          	slli	a7,a7,0x2
    358c:	05010e93          	addi	t4,sp,80
    3590:	011e8d33          	add	s10,t4,a7
    3594:	fc0d2d83          	lw	s11,-64(s10)
    3598:	001d8f13          	addi	t5,s11,1
    359c:	fded2023          	sw	t5,-64(s10)
    35a0:	02080c63          	beqz	a6,35d8 <core_bench_state+0x194>
    35a4:	02c00f13          	li	t5,44
    35a8:	00000893          	li	a7,0
    35ac:	f7e81ce3          	bne	a6,t5,3524 <core_bench_state+0xe0>
    35b0:	000e0e93          	mv	t4,t3
    35b4:	001ec803          	lbu	a6,1(t4)
    35b8:	001e8e13          	addi	t3,t4,1
    35bc:	00289893          	slli	a7,a7,0x2
    35c0:	05010e93          	addi	t4,sp,80
    35c4:	011e8d33          	add	s10,t4,a7
    35c8:	fc0d2d83          	lw	s11,-64(s10)
    35cc:	001d8f13          	addi	t5,s11,1
    35d0:	fded2023          	sw	t5,-64(s10)
    35d4:	fc0818e3          	bnez	a6,35a4 <core_bench_state+0x160>
    35d8:	000c0463          	beqz	s8,35e0 <core_bench_state+0x19c>
    35dc:	03212a23          	sw	s2,52(sp)
    35e0:	00028463          	beqz	t0,35e8 <core_bench_state+0x1a4>
    35e4:	02a12823          	sw	a0,48(sp)
    35e8:	000a0463          	beqz	s4,35f0 <core_bench_state+0x1ac>
    35ec:	02e12c23          	sw	a4,56(sp)
    35f0:	000c8463          	beqz	s9,35f8 <core_bench_state+0x1b4>
    35f4:	04912023          	sw	s1,64(sp)
    35f8:	00008463          	beqz	ra,3600 <core_bench_state+0x1bc>
    35fc:	04812223          	sw	s0,68(sp)
    3600:	00038463          	beqz	t2,3608 <core_bench_state+0x1c4>
    3604:	02f12e23          	sw	a5,60(sp)
    3608:	28060a63          	beqz	a2,389c <core_bench_state+0x458>
    360c:	00c12283          	lw	t0,12(sp)
    3610:	04d12423          	sw	a3,72(sp)
    3614:	005f88b3          	add	a7,t6,t0
    3618:	291fe863          	bltu	t6,a7,38a8 <core_bench_state+0x464>
    361c:	2b80006f          	j	38d4 <core_bench_state+0x490>
    3620:	02b00d13          	li	s10,43
    3624:	1ba80e63          	beq	a6,s10,37e0 <core_bench_state+0x39c>
    3628:	02d00893          	li	a7,45
    362c:	1b180a63          	beq	a6,a7,37e0 <core_bench_state+0x39c>
    3630:	02e00f13          	li	t5,46
    3634:	71e80463          	beq	a6,t5,3d3c <core_bench_state+0x8f8>
    3638:	001e4803          	lbu	a6,1(t3)
    363c:	00190913          	addi	s2,s2,1
    3640:	00150513          	addi	a0,a0,1
    3644:	001e0e13          	addi	t3,t3,1
    3648:	00100293          	li	t0,1
    364c:	00100c13          	li	s8,1
    3650:	00100893          	li	a7,1
    3654:	f35ff06f          	j	3588 <core_bench_state+0x144>
    3658:	001ec803          	lbu	a6,1(t4)
    365c:	00148493          	addi	s1,s1,1
    3660:	001e8f13          	addi	t5,t4,1
    3664:	00500893          	li	a7,5
    3668:	00100293          	li	t0,1
    366c:	00100c93          	li	s9,1
    3670:	22080263          	beqz	a6,3894 <core_bench_state+0x450>
    3674:	02c00e13          	li	t3,44
    3678:	000f0e93          	mv	t4,t5
    367c:	f3c80ce3          	beq	a6,t3,35b4 <core_bench_state+0x170>
    3680:	04500e93          	li	t4,69
    3684:	00900d13          	li	s10,9
    3688:	02c00d93          	li	s11,44
    368c:	0df87893          	andi	a7,a6,223
    3690:	03d88663          	beq	a7,t4,36bc <core_bench_state+0x278>
    3694:	fd080813          	addi	a6,a6,-48
    3698:	0ff87293          	andi	t0,a6,255
    369c:	1a5d7e63          	bgeu	s10,t0,3858 <core_bench_state+0x414>
    36a0:	001f4803          	lbu	a6,1(t5)
    36a4:	00140413          	addi	s0,s0,1
    36a8:	001f0e13          	addi	t3,t5,1
    36ac:	00100093          	li	ra,1
    36b0:	00100293          	li	t0,1
    36b4:	00100893          	li	a7,1
    36b8:	ed1ff06f          	j	3588 <core_bench_state+0x144>
    36bc:	001f4803          	lbu	a6,1(t5)
    36c0:	00140413          	addi	s0,s0,1
    36c4:	001f0e13          	addi	t3,t5,1
    36c8:	00300893          	li	a7,3
    36cc:	00100293          	li	t0,1
    36d0:	00100093          	li	ra,1
    36d4:	ea080ae3          	beqz	a6,3588 <core_bench_state+0x144>
    36d8:	02c00d13          	li	s10,44
    36dc:	eda80ae3          	beq	a6,s10,35b0 <core_bench_state+0x16c>
    36e0:	fd580393          	addi	t2,a6,-43
    36e4:	0fd3fe93          	andi	t4,t2,253
    36e8:	00178793          	addi	a5,a5,1
    36ec:	002f0e13          	addi	t3,t5,2
    36f0:	000e8a63          	beqz	t4,3704 <core_bench_state+0x2c0>
    36f4:	002f4803          	lbu	a6,2(t5)
    36f8:	00100393          	li	t2,1
    36fc:	00100893          	li	a7,1
    3700:	e89ff06f          	j	3588 <core_bench_state+0x144>
    3704:	002f4803          	lbu	a6,2(t5)
    3708:	00600893          	li	a7,6
    370c:	00100393          	li	t2,1
    3710:	e6080ce3          	beqz	a6,3588 <core_bench_state+0x144>
    3714:	e9a80ee3          	beq	a6,s10,35b0 <core_bench_state+0x16c>
    3718:	fd080613          	addi	a2,a6,-48
    371c:	0ff67e13          	andi	t3,a2,255
    3720:	00900d93          	li	s11,9
    3724:	00168693          	addi	a3,a3,1
    3728:	01cdfc63          	bgeu	s11,t3,3740 <core_bench_state+0x2fc>
    372c:	003f4803          	lbu	a6,3(t5)
    3730:	003f0e13          	addi	t3,t5,3
    3734:	00100613          	li	a2,1
    3738:	00100893          	li	a7,1
    373c:	e4dff06f          	j	3588 <core_bench_state+0x144>
    3740:	003f4803          	lbu	a6,3(t5)
    3744:	003f0e93          	addi	t4,t5,3
    3748:	00700893          	li	a7,7
    374c:	00100613          	li	a2,1
    3750:	10080063          	beqz	a6,3850 <core_bench_state+0x40c>
    3754:	e7a800e3          	beq	a6,s10,35b4 <core_bench_state+0x170>
    3758:	00900f13          	li	t5,9
    375c:	02c00d13          	li	s10,44
    3760:	fd080093          	addi	ra,a6,-48
    3764:	0ff0f893          	andi	a7,ra,255
    3768:	031f7663          	bgeu	t5,a7,3794 <core_bench_state+0x350>
    376c:	001ec803          	lbu	a6,1(t4)
    3770:	00190913          	addi	s2,s2,1
    3774:	001e8e13          	addi	t3,t4,1
    3778:	00100613          	li	a2,1
    377c:	00100393          	li	t2,1
    3780:	00100093          	li	ra,1
    3784:	00100293          	li	t0,1
    3788:	00100c13          	li	s8,1
    378c:	00100893          	li	a7,1
    3790:	df9ff06f          	j	3588 <core_bench_state+0x144>
    3794:	001ec803          	lbu	a6,1(t4)
    3798:	001e8e13          	addi	t3,t4,1
    379c:	00700893          	li	a7,7
    37a0:	00100293          	li	t0,1
    37a4:	00100093          	li	ra,1
    37a8:	00100393          	li	t2,1
    37ac:	00100613          	li	a2,1
    37b0:	dc080ce3          	beqz	a6,3588 <core_bench_state+0x144>
    37b4:	dfa80ee3          	beq	a6,s10,35b0 <core_bench_state+0x16c>
    37b8:	000e0e93          	mv	t4,t3
    37bc:	fa5ff06f          	j	3760 <core_bench_state+0x31c>
    37c0:	001ec803          	lbu	a6,1(t4)
    37c4:	001e8e13          	addi	t3,t4,1
    37c8:	00400893          	li	a7,4
    37cc:	00100293          	li	t0,1
    37d0:	da080ce3          	beqz	a6,3588 <core_bench_state+0x144>
    37d4:	ddb80ee3          	beq	a6,s11,35b0 <core_bench_state+0x16c>
    37d8:	000e0e93          	mv	t4,t3
    37dc:	d85ff06f          	j	3560 <core_bench_state+0x11c>
    37e0:	001e4803          	lbu	a6,1(t3)
    37e4:	00150513          	addi	a0,a0,1
    37e8:	001e0d93          	addi	s11,t3,1
    37ec:	00200893          	li	a7,2
    37f0:	00100293          	li	t0,1
    37f4:	5a080e63          	beqz	a6,3db0 <core_bench_state+0x96c>
    37f8:	02c00e93          	li	t4,44
    37fc:	5dd80263          	beq	a6,t4,3dc0 <core_bench_state+0x97c>
    3800:	fd080a13          	addi	s4,a6,-48
    3804:	0ffa7293          	andi	t0,s4,255
    3808:	00900d13          	li	s10,9
    380c:	025d7463          	bgeu	s10,t0,3834 <core_bench_state+0x3f0>
    3810:	02e00893          	li	a7,46
    3814:	07180263          	beq	a6,a7,3878 <core_bench_state+0x434>
    3818:	001dc803          	lbu	a6,1(s11)
    381c:	00170713          	addi	a4,a4,1
    3820:	001d8e13          	addi	t3,s11,1
    3824:	00100a13          	li	s4,1
    3828:	00100293          	li	t0,1
    382c:	00100893          	li	a7,1
    3830:	d59ff06f          	j	3588 <core_bench_state+0x144>
    3834:	001dc803          	lbu	a6,1(s11)
    3838:	00170713          	addi	a4,a4,1
    383c:	001d8e93          	addi	t4,s11,1
    3840:	00400893          	li	a7,4
    3844:	00100293          	li	t0,1
    3848:	00100a13          	li	s4,1
    384c:	d00810e3          	bnez	a6,354c <core_bench_state+0x108>
    3850:	000e8e13          	mv	t3,t4
    3854:	d35ff06f          	j	3588 <core_bench_state+0x144>
    3858:	001f4803          	lbu	a6,1(t5)
    385c:	001f0e13          	addi	t3,t5,1
    3860:	00500893          	li	a7,5
    3864:	00100293          	li	t0,1
    3868:	d20800e3          	beqz	a6,3588 <core_bench_state+0x144>
    386c:	d5b802e3          	beq	a6,s11,35b0 <core_bench_state+0x16c>
    3870:	000e0f13          	mv	t5,t3
    3874:	e19ff06f          	j	368c <core_bench_state+0x248>
    3878:	001dc803          	lbu	a6,1(s11)
    387c:	00170713          	addi	a4,a4,1
    3880:	001d8f13          	addi	t5,s11,1
    3884:	00500893          	li	a7,5
    3888:	00100293          	li	t0,1
    388c:	00100a13          	li	s4,1
    3890:	de0812e3          	bnez	a6,3674 <core_bench_state+0x230>
    3894:	000f0e13          	mv	t3,t5
    3898:	cf1ff06f          	j	3588 <core_bench_state+0x144>
    389c:	00c12503          	lw	a0,12(sp)
    38a0:	00af88b3          	add	a7,t6,a0
    38a4:	031ff663          	bgeu	t6,a7,38d0 <core_bench_state+0x48c>
    38a8:	000f8e13          	mv	t3,t6
    38ac:	02c00813          	li	a6,44
    38b0:	01030663          	beq	t1,a6,38bc <core_bench_state+0x478>
    38b4:	01634333          	xor	t1,t1,s6
    38b8:	006e0023          	sb	t1,0(t3)
    38bc:	013e0e33          	add	t3,t3,s3
    38c0:	011e7663          	bgeu	t3,a7,38cc <core_bench_state+0x488>
    38c4:	000e4303          	lbu	t1,0(t3)
    38c8:	fe9ff06f          	j	38b0 <core_bench_state+0x46c>
    38cc:	000fc303          	lbu	t1,0(t6)
    38d0:	16030063          	beqz	t1,3a30 <core_bench_state+0x5ec>
    38d4:	02c00b13          	li	s6,44
    38d8:	03412903          	lw	s2,52(sp)
    38dc:	03012f03          	lw	t5,48(sp)
    38e0:	03812283          	lw	t0,56(sp)
    38e4:	04012483          	lw	s1,64(sp)
    38e8:	04412403          	lw	s0,68(sp)
    38ec:	03c12e83          	lw	t4,60(sp)
    38f0:	04812383          	lw	t2,72(sp)
    38f4:	4d630a63          	beq	t1,s6,3dc8 <core_bench_state+0x984>
    38f8:	00030793          	mv	a5,t1
    38fc:	000f8513          	mv	a0,t6
    3900:	00000093          	li	ra,0
    3904:	00000a13          	li	s4,0
    3908:	00000b13          	li	s6,0
    390c:	00000e13          	li	t3,0
    3910:	00000c93          	li	s9,0
    3914:	00000c13          	li	s8,0
    3918:	0600006f          	j	3978 <core_bench_state+0x534>
    391c:	02b00813          	li	a6,43
    3920:	2d078463          	beq	a5,a6,3be8 <core_bench_state+0x7a4>
    3924:	02d00713          	li	a4,45
    3928:	2ce78063          	beq	a5,a4,3be8 <core_bench_state+0x7a4>
    392c:	02e00613          	li	a2,46
    3930:	3cc78e63          	beq	a5,a2,3d0c <core_bench_state+0x8c8>
    3934:	00154783          	lbu	a5,1(a0)
    3938:	00190913          	addi	s2,s2,1
    393c:	001f0f13          	addi	t5,t5,1
    3940:	00150513          	addi	a0,a0,1
    3944:	00100813          	li	a6,1
    3948:	00100b13          	li	s6,1
    394c:	00100713          	li	a4,1
    3950:	00271613          	slli	a2,a4,0x2
    3954:	05010693          	addi	a3,sp,80
    3958:	00c68733          	add	a4,a3,a2
    395c:	fc072d03          	lw	s10,-64(a4)
    3960:	001d0d93          	addi	s11,s10,1
    3964:	fdb72023          	sw	s11,-64(a4)
    3968:	08078863          	beqz	a5,39f8 <core_bench_state+0x5b4>
    396c:	02c00613          	li	a2,44
    3970:	00000713          	li	a4,0
    3974:	0ec78063          	beq	a5,a2,3a54 <core_bench_state+0x610>
    3978:	fd078693          	addi	a3,a5,-48
    397c:	0ff6fd13          	andi	s10,a3,255
    3980:	00900d93          	li	s11,9
    3984:	f9adece3          	bltu	s11,s10,391c <core_bench_state+0x4d8>
    3988:	00154783          	lbu	a5,1(a0)
    398c:	001f0f13          	addi	t5,t5,1
    3990:	00150693          	addi	a3,a0,1
    3994:	00400713          	li	a4,4
    3998:	00100813          	li	a6,1
    399c:	2a078e63          	beqz	a5,3c58 <core_bench_state+0x814>
    39a0:	02c00613          	li	a2,44
    39a4:	0ac78a63          	beq	a5,a2,3a58 <core_bench_state+0x614>
    39a8:	02e00613          	li	a2,46
    39ac:	00900d13          	li	s10,9
    39b0:	02c00d93          	li	s11,44
    39b4:	0ac78863          	beq	a5,a2,3a64 <core_bench_state+0x620>
    39b8:	fd078793          	addi	a5,a5,-48
    39bc:	0ff7f713          	andi	a4,a5,255
    39c0:	20ed7463          	bgeu	s10,a4,3bc8 <core_bench_state+0x784>
    39c4:	00100713          	li	a4,1
    39c8:	0016c783          	lbu	a5,1(a3)
    39cc:	00168513          	addi	a0,a3,1
    39d0:	00271613          	slli	a2,a4,0x2
    39d4:	05010693          	addi	a3,sp,80
    39d8:	00c68733          	add	a4,a3,a2
    39dc:	fc072d03          	lw	s10,-64(a4)
    39e0:	00148493          	addi	s1,s1,1
    39e4:	00100c13          	li	s8,1
    39e8:	001d0d93          	addi	s11,s10,1
    39ec:	fdb72023          	sw	s11,-64(a4)
    39f0:	00100813          	li	a6,1
    39f4:	f6079ce3          	bnez	a5,396c <core_bench_state+0x528>
    39f8:	000b0463          	beqz	s6,3a00 <core_bench_state+0x5bc>
    39fc:	03212a23          	sw	s2,52(sp)
    3a00:	00080463          	beqz	a6,3a08 <core_bench_state+0x5c4>
    3a04:	03e12823          	sw	t5,48(sp)
    3a08:	000a0463          	beqz	s4,3a10 <core_bench_state+0x5cc>
    3a0c:	02512c23          	sw	t0,56(sp)
    3a10:	000c0463          	beqz	s8,3a18 <core_bench_state+0x5d4>
    3a14:	04912023          	sw	s1,64(sp)
    3a18:	00008463          	beqz	ra,3a20 <core_bench_state+0x5dc>
    3a1c:	04812223          	sw	s0,68(sp)
    3a20:	000e0463          	beqz	t3,3a28 <core_bench_state+0x5e4>
    3a24:	03d12e23          	sw	t4,60(sp)
    3a28:	000c8463          	beqz	s9,3a30 <core_bench_state+0x5ec>
    3a2c:	04712423          	sw	t2,72(sp)
    3a30:	271ffa63          	bgeu	t6,a7,3ca4 <core_bench_state+0x860>
    3a34:	02c00813          	li	a6,44
    3a38:	01030663          	beq	t1,a6,3a44 <core_bench_state+0x600>
    3a3c:	01734333          	xor	t1,t1,s7
    3a40:	006f8023          	sb	t1,0(t6)
    3a44:	013f8fb3          	add	t6,t6,s3
    3a48:	251ffe63          	bgeu	t6,a7,3ca4 <core_bench_state+0x860>
    3a4c:	000fc303          	lbu	t1,0(t6)
    3a50:	fe9ff06f          	j	3a38 <core_bench_state+0x5f4>
    3a54:	00050693          	mv	a3,a0
    3a58:	0016c783          	lbu	a5,1(a3)
    3a5c:	00168513          	addi	a0,a3,1
    3a60:	ef1ff06f          	j	3950 <core_bench_state+0x50c>
    3a64:	0016c783          	lbu	a5,1(a3)
    3a68:	00148493          	addi	s1,s1,1
    3a6c:	00168613          	addi	a2,a3,1
    3a70:	00500713          	li	a4,5
    3a74:	00100813          	li	a6,1
    3a78:	00100c13          	li	s8,1
    3a7c:	22078063          	beqz	a5,3c9c <core_bench_state+0x858>
    3a80:	02c00513          	li	a0,44
    3a84:	2aa78463          	beq	a5,a0,3d2c <core_bench_state+0x8e8>
    3a88:	04500693          	li	a3,69
    3a8c:	00900d13          	li	s10,9
    3a90:	02c00d93          	li	s11,44
    3a94:	0df7f813          	andi	a6,a5,223
    3a98:	02d80663          	beq	a6,a3,3ac4 <core_bench_state+0x680>
    3a9c:	fd078793          	addi	a5,a5,-48
    3aa0:	0ff7f713          	andi	a4,a5,255
    3aa4:	1aed7e63          	bgeu	s10,a4,3c60 <core_bench_state+0x81c>
    3aa8:	00164783          	lbu	a5,1(a2)
    3aac:	00140413          	addi	s0,s0,1
    3ab0:	00160513          	addi	a0,a2,1
    3ab4:	00100093          	li	ra,1
    3ab8:	00100813          	li	a6,1
    3abc:	00100713          	li	a4,1
    3ac0:	e91ff06f          	j	3950 <core_bench_state+0x50c>
    3ac4:	00164783          	lbu	a5,1(a2)
    3ac8:	00140413          	addi	s0,s0,1
    3acc:	00160513          	addi	a0,a2,1
    3ad0:	00300713          	li	a4,3
    3ad4:	00100813          	li	a6,1
    3ad8:	00100093          	li	ra,1
    3adc:	e6078ae3          	beqz	a5,3950 <core_bench_state+0x50c>
    3ae0:	02c00d13          	li	s10,44
    3ae4:	f7a788e3          	beq	a5,s10,3a54 <core_bench_state+0x610>
    3ae8:	fd578e13          	addi	t3,a5,-43
    3aec:	0fde7693          	andi	a3,t3,253
    3af0:	001e8e93          	addi	t4,t4,1
    3af4:	00260513          	addi	a0,a2,2
    3af8:	00068a63          	beqz	a3,3b0c <core_bench_state+0x6c8>
    3afc:	00264783          	lbu	a5,2(a2)
    3b00:	00100e13          	li	t3,1
    3b04:	00100713          	li	a4,1
    3b08:	e49ff06f          	j	3950 <core_bench_state+0x50c>
    3b0c:	00264783          	lbu	a5,2(a2)
    3b10:	00600713          	li	a4,6
    3b14:	00100e13          	li	t3,1
    3b18:	e2078ce3          	beqz	a5,3950 <core_bench_state+0x50c>
    3b1c:	f3a78ce3          	beq	a5,s10,3a54 <core_bench_state+0x610>
    3b20:	fd078c93          	addi	s9,a5,-48
    3b24:	0ffcf513          	andi	a0,s9,255
    3b28:	00900d93          	li	s11,9
    3b2c:	00138393          	addi	t2,t2,1 # 80000001 <__kernel_stack+0x5ff40009>
    3b30:	00adfc63          	bgeu	s11,a0,3b48 <core_bench_state+0x704>
    3b34:	00364783          	lbu	a5,3(a2)
    3b38:	00360513          	addi	a0,a2,3
    3b3c:	00100c93          	li	s9,1
    3b40:	00100713          	li	a4,1
    3b44:	e0dff06f          	j	3950 <core_bench_state+0x50c>
    3b48:	00364783          	lbu	a5,3(a2)
    3b4c:	00360693          	addi	a3,a2,3
    3b50:	00700713          	li	a4,7
    3b54:	00100c93          	li	s9,1
    3b58:	10078063          	beqz	a5,3c58 <core_bench_state+0x814>
    3b5c:	efa78ee3          	beq	a5,s10,3a58 <core_bench_state+0x614>
    3b60:	00900613          	li	a2,9
    3b64:	02c00d13          	li	s10,44
    3b68:	fd078093          	addi	ra,a5,-48
    3b6c:	0ff0f813          	andi	a6,ra,255
    3b70:	03067663          	bgeu	a2,a6,3b9c <core_bench_state+0x758>
    3b74:	0016c783          	lbu	a5,1(a3)
    3b78:	00190913          	addi	s2,s2,1
    3b7c:	00168513          	addi	a0,a3,1
    3b80:	00100c93          	li	s9,1
    3b84:	00100e13          	li	t3,1
    3b88:	00100093          	li	ra,1
    3b8c:	00100813          	li	a6,1
    3b90:	00100b13          	li	s6,1
    3b94:	00100713          	li	a4,1
    3b98:	db9ff06f          	j	3950 <core_bench_state+0x50c>
    3b9c:	0016c783          	lbu	a5,1(a3)
    3ba0:	00168513          	addi	a0,a3,1
    3ba4:	00700713          	li	a4,7
    3ba8:	00100813          	li	a6,1
    3bac:	00100093          	li	ra,1
    3bb0:	00100e13          	li	t3,1
    3bb4:	00100c93          	li	s9,1
    3bb8:	d8078ce3          	beqz	a5,3950 <core_bench_state+0x50c>
    3bbc:	e9a78ce3          	beq	a5,s10,3a54 <core_bench_state+0x610>
    3bc0:	00050693          	mv	a3,a0
    3bc4:	fa5ff06f          	j	3b68 <core_bench_state+0x724>
    3bc8:	0016c783          	lbu	a5,1(a3)
    3bcc:	00168513          	addi	a0,a3,1
    3bd0:	00400713          	li	a4,4
    3bd4:	00100813          	li	a6,1
    3bd8:	d6078ce3          	beqz	a5,3950 <core_bench_state+0x50c>
    3bdc:	e7b78ce3          	beq	a5,s11,3a54 <core_bench_state+0x610>
    3be0:	00050693          	mv	a3,a0
    3be4:	dd1ff06f          	j	39b4 <core_bench_state+0x570>
    3be8:	00154783          	lbu	a5,1(a0)
    3bec:	001f0f13          	addi	t5,t5,1
    3bf0:	00150d13          	addi	s10,a0,1
    3bf4:	00200713          	li	a4,2
    3bf8:	00100813          	li	a6,1
    3bfc:	1a078663          	beqz	a5,3da8 <core_bench_state+0x964>
    3c00:	02c00513          	li	a0,44
    3c04:	1aa78a63          	beq	a5,a0,3db8 <core_bench_state+0x974>
    3c08:	fd078a13          	addi	s4,a5,-48
    3c0c:	0ffa7d93          	andi	s11,s4,255
    3c10:	00900693          	li	a3,9
    3c14:	03b6f463          	bgeu	a3,s11,3c3c <core_bench_state+0x7f8>
    3c18:	02e00813          	li	a6,46
    3c1c:	07078263          	beq	a5,a6,3c80 <core_bench_state+0x83c>
    3c20:	001d4783          	lbu	a5,1(s10)
    3c24:	00128293          	addi	t0,t0,1
    3c28:	001d0513          	addi	a0,s10,1
    3c2c:	00100a13          	li	s4,1
    3c30:	00100813          	li	a6,1
    3c34:	00100713          	li	a4,1
    3c38:	d19ff06f          	j	3950 <core_bench_state+0x50c>
    3c3c:	001d4783          	lbu	a5,1(s10)
    3c40:	00128293          	addi	t0,t0,1
    3c44:	001d0693          	addi	a3,s10,1
    3c48:	00400713          	li	a4,4
    3c4c:	00100813          	li	a6,1
    3c50:	00100a13          	li	s4,1
    3c54:	d40796e3          	bnez	a5,39a0 <core_bench_state+0x55c>
    3c58:	00068513          	mv	a0,a3
    3c5c:	cf5ff06f          	j	3950 <core_bench_state+0x50c>
    3c60:	00164783          	lbu	a5,1(a2)
    3c64:	00160513          	addi	a0,a2,1
    3c68:	00500713          	li	a4,5
    3c6c:	00100813          	li	a6,1
    3c70:	ce0780e3          	beqz	a5,3950 <core_bench_state+0x50c>
    3c74:	dfb780e3          	beq	a5,s11,3a54 <core_bench_state+0x610>
    3c78:	00050613          	mv	a2,a0
    3c7c:	e19ff06f          	j	3a94 <core_bench_state+0x650>
    3c80:	001d4783          	lbu	a5,1(s10)
    3c84:	00128293          	addi	t0,t0,1
    3c88:	001d0613          	addi	a2,s10,1
    3c8c:	00500713          	li	a4,5
    3c90:	00100813          	li	a6,1
    3c94:	00100a13          	li	s4,1
    3c98:	de0794e3          	bnez	a5,3a80 <core_bench_state+0x63c>
    3c9c:	00060513          	mv	a0,a2
    3ca0:	cb1ff06f          	j	3950 <core_bench_state+0x50c>
    3ca4:	01010993          	addi	s3,sp,16
    3ca8:	000a8b93          	mv	s7,s5
    3cac:	0009a503          	lw	a0,0(s3)
    3cb0:	00498993          	addi	s3,s3,4
    3cb4:	004b8b93          	addi	s7,s7,4
    3cb8:	d79fc0ef          	jal	ra,a30 <crcu32>
    3cbc:	00050593          	mv	a1,a0
    3cc0:	ffcba503          	lw	a0,-4(s7)
    3cc4:	d6dfc0ef          	jal	ra,a30 <crcu32>
    3cc8:	00050593          	mv	a1,a0
    3ccc:	ff3a90e3          	bne	s5,s3,3cac <core_bench_state+0x868>
    3cd0:	08c12083          	lw	ra,140(sp)
    3cd4:	08812403          	lw	s0,136(sp)
    3cd8:	08412483          	lw	s1,132(sp)
    3cdc:	08012903          	lw	s2,128(sp)
    3ce0:	07c12983          	lw	s3,124(sp)
    3ce4:	07812a03          	lw	s4,120(sp)
    3ce8:	07412a83          	lw	s5,116(sp)
    3cec:	07012b03          	lw	s6,112(sp)
    3cf0:	06c12b83          	lw	s7,108(sp)
    3cf4:	06812c03          	lw	s8,104(sp)
    3cf8:	06412c83          	lw	s9,100(sp)
    3cfc:	06012d03          	lw	s10,96(sp)
    3d00:	05c12d83          	lw	s11,92(sp)
    3d04:	09010113          	addi	sp,sp,144
    3d08:	00008067          	ret
    3d0c:	00154783          	lbu	a5,1(a0)
    3d10:	001f0f13          	addi	t5,t5,1
    3d14:	00150613          	addi	a2,a0,1
    3d18:	00500713          	li	a4,5
    3d1c:	00100813          	li	a6,1
    3d20:	f6078ee3          	beqz	a5,3c9c <core_bench_state+0x858>
    3d24:	02c00513          	li	a0,44
    3d28:	d6a790e3          	bne	a5,a0,3a88 <core_bench_state+0x644>
    3d2c:	00060693          	mv	a3,a2
    3d30:	0016c783          	lbu	a5,1(a3)
    3d34:	00168513          	addi	a0,a3,1
    3d38:	c19ff06f          	j	3950 <core_bench_state+0x50c>
    3d3c:	001e4803          	lbu	a6,1(t3)
    3d40:	00150513          	addi	a0,a0,1
    3d44:	001e0f13          	addi	t5,t3,1
    3d48:	00500893          	li	a7,5
    3d4c:	00100293          	li	t0,1
    3d50:	920812e3          	bnez	a6,3674 <core_bench_state+0x230>
    3d54:	000f0e13          	mv	t3,t5
    3d58:	831ff06f          	j	3588 <core_bench_state+0x144>
    3d5c:	000f8e93          	mv	t4,t6
    3d60:	001ec803          	lbu	a6,1(t4)
    3d64:	00000c13          	li	s8,0
    3d68:	00000913          	li	s2,0
    3d6c:	00000613          	li	a2,0
    3d70:	00000693          	li	a3,0
    3d74:	00000393          	li	t2,0
    3d78:	00000793          	li	a5,0
    3d7c:	00000093          	li	ra,0
    3d80:	00000413          	li	s0,0
    3d84:	00000c93          	li	s9,0
    3d88:	00000493          	li	s1,0
    3d8c:	00000a13          	li	s4,0
    3d90:	00000713          	li	a4,0
    3d94:	00000293          	li	t0,0
    3d98:	00000513          	li	a0,0
    3d9c:	00000893          	li	a7,0
    3da0:	001e8e13          	addi	t3,t4,1
    3da4:	819ff06f          	j	35bc <core_bench_state+0x178>
    3da8:	000d0513          	mv	a0,s10
    3dac:	ba5ff06f          	j	3950 <core_bench_state+0x50c>
    3db0:	000d8e13          	mv	t3,s11
    3db4:	fd4ff06f          	j	3588 <core_bench_state+0x144>
    3db8:	000d0693          	mv	a3,s10
    3dbc:	c9dff06f          	j	3a58 <core_bench_state+0x614>
    3dc0:	000d8e93          	mv	t4,s11
    3dc4:	ff0ff06f          	j	35b4 <core_bench_state+0x170>
    3dc8:	000f8693          	mv	a3,t6
    3dcc:	00000b13          	li	s6,0
    3dd0:	00000c93          	li	s9,0
    3dd4:	00000e13          	li	t3,0
    3dd8:	00000093          	li	ra,0
    3ddc:	00000c13          	li	s8,0
    3de0:	00000a13          	li	s4,0
    3de4:	00000813          	li	a6,0
    3de8:	00000713          	li	a4,0
    3dec:	c6dff06f          	j	3a58 <core_bench_state+0x614>

00003df0 <core_init_state>:
    3df0:	fff50313          	addi	t1,a0,-1
    3df4:	00100793          	li	a5,1
    3df8:	00060893          	mv	a7,a2
    3dfc:	1267fe63          	bgeu	a5,t1,3f38 <core_init_state+0x148>
    3e00:	00158593          	addi	a1,a1,1
    3e04:	01059293          	slli	t0,a1,0x10
    3e08:	00018637          	lui	a2,0x18
    3e0c:	0102d593          	srli	a1,t0,0x10
    3e10:	00000793          	li	a5,0
    3e14:	69860613          	addi	a2,a2,1688 # 18698 <intpat>
    3e18:	00700e93          	li	t4,7
    3e1c:	00800f93          	li	t6,8
    3e20:	00400813          	li	a6,4
    3e24:	00100e13          	li	t3,1
    3e28:	02c00f13          	li	t5,44
    3e2c:	09c0006f          	j	3ec8 <core_init_state+0xd8>
    3e30:	0ee86663          	bltu	a6,a4,3f1c <core_init_state+0x12c>
    3e34:	ffd70293          	addi	t0,a4,-3
    3e38:	01029713          	slli	a4,t0,0x10
    3e3c:	0013d393          	srli	t2,t2,0x1
    3e40:	01075293          	srli	t0,a4,0x10
    3e44:	00c3f693          	andi	a3,t2,12
    3e48:	00d60733          	add	a4,a2,a3
    3e4c:	0c5e6063          	bltu	t3,t0,3f0c <core_init_state+0x11c>
    3e50:	01072703          	lw	a4,16(a4)
    3e54:	00900693          	li	a3,9
    3e58:	00800293          	li	t0,8
    3e5c:	00d786b3          	add	a3,a5,a3
    3e60:	0866fc63          	bgeu	a3,t1,3ef8 <core_init_state+0x108>
    3e64:	00074383          	lbu	t2,0(a4)
    3e68:	00f887b3          	add	a5,a7,a5
    3e6c:	00778023          	sb	t2,0(a5)
    3e70:	00174383          	lbu	t2,1(a4)
    3e74:	007780a3          	sb	t2,1(a5)
    3e78:	00274383          	lbu	t2,2(a4)
    3e7c:	00778123          	sb	t2,2(a5)
    3e80:	00374383          	lbu	t2,3(a4)
    3e84:	007781a3          	sb	t2,3(a5)
    3e88:	03028463          	beq	t0,a6,3eb0 <core_init_state+0xc0>
    3e8c:	00474383          	lbu	t2,4(a4)
    3e90:	00778223          	sb	t2,4(a5)
    3e94:	00574383          	lbu	t2,5(a4)
    3e98:	007782a3          	sb	t2,5(a5)
    3e9c:	00674383          	lbu	t2,6(a4)
    3ea0:	00778323          	sb	t2,6(a5)
    3ea4:	01f29663          	bne	t0,t6,3eb0 <core_init_state+0xc0>
    3ea8:	00774703          	lbu	a4,7(a4)
    3eac:	00e783a3          	sb	a4,7(a5)
    3eb0:	00158593          	addi	a1,a1,1
    3eb4:	005782b3          	add	t0,a5,t0
    3eb8:	01059793          	slli	a5,a1,0x10
    3ebc:	0107d593          	srli	a1,a5,0x10
    3ec0:	01e28023          	sb	t5,0(t0)
    3ec4:	00068793          	mv	a5,a3
    3ec8:	01059693          	slli	a3,a1,0x10
    3ecc:	0075f713          	andi	a4,a1,7
    3ed0:	4106d393          	srai	t2,a3,0x10
    3ed4:	f5d71ee3          	bne	a4,t4,3e30 <core_init_state+0x40>
    3ed8:	0013d293          	srli	t0,t2,0x1
    3edc:	00c2f693          	andi	a3,t0,12
    3ee0:	00d603b3          	add	t2,a2,a3
    3ee4:	00900693          	li	a3,9
    3ee8:	00d786b3          	add	a3,a5,a3
    3eec:	0303a703          	lw	a4,48(t2)
    3ef0:	00800293          	li	t0,8
    3ef4:	f666e8e3          	bltu	a3,t1,3e64 <core_init_state+0x74>
    3ef8:	04a7fa63          	bgeu	a5,a0,3f4c <core_init_state+0x15c>
    3efc:	40f50633          	sub	a2,a0,a5
    3f00:	00000593          	li	a1,0
    3f04:	00f88533          	add	a0,a7,a5
    3f08:	7b91306f          	j	17ec0 <memset>
    3f0c:	00072703          	lw	a4,0(a4)
    3f10:	00500693          	li	a3,5
    3f14:	00400293          	li	t0,4
    3f18:	f45ff06f          	j	3e5c <core_init_state+0x6c>
    3f1c:	0013d393          	srli	t2,t2,0x1
    3f20:	00c3f713          	andi	a4,t2,12
    3f24:	00e606b3          	add	a3,a2,a4
    3f28:	0206a703          	lw	a4,32(a3)
    3f2c:	00800293          	li	t0,8
    3f30:	00900693          	li	a3,9
    3f34:	f29ff06f          	j	3e5c <core_init_state+0x6c>
    3f38:	00000793          	li	a5,0
    3f3c:	40f50633          	sub	a2,a0,a5
    3f40:	00000593          	li	a1,0
    3f44:	00f88533          	add	a0,a7,a5
    3f48:	7791306f          	j	17ec0 <memset>
    3f4c:	00008067          	ret

00003f50 <core_state_transition>:
    3f50:	00052783          	lw	a5,0(a0)
    3f54:	00050613          	mv	a2,a0
    3f58:	00000513          	li	a0,0
    3f5c:	0007c703          	lbu	a4,0(a5)
    3f60:	0c070063          	beqz	a4,4020 <core_state_transition+0xd0>
    3f64:	02c00513          	li	a0,44
    3f68:	2ea70663          	beq	a4,a0,4254 <core_state_transition+0x304>
    3f6c:	fd070693          	addi	a3,a4,-48
    3f70:	0ff6f293          	andi	t0,a3,255
    3f74:	00900813          	li	a6,9
    3f78:	0a586863          	bltu	a6,t0,4028 <core_state_transition+0xd8>
    3f7c:	0005a383          	lw	t2,0(a1)
    3f80:	00178293          	addi	t0,a5,1
    3f84:	00138893          	addi	a7,t2,1
    3f88:	0115a023          	sw	a7,0(a1)
    3f8c:	0017c683          	lbu	a3,1(a5)
    3f90:	2c068863          	beqz	a3,4260 <core_state_transition+0x310>
    3f94:	16a68063          	beq	a3,a0,40f4 <core_state_transition+0x1a4>
    3f98:	02e00e13          	li	t3,46
    3f9c:	00900513          	li	a0,9
    3fa0:	02c00e93          	li	t4,44
    3fa4:	03c68463          	beq	a3,t3,3fcc <core_state_transition+0x7c>
    3fa8:	fd068793          	addi	a5,a3,-48
    3fac:	0ff7ff13          	andi	t5,a5,255
    3fb0:	0be56c63          	bltu	a0,t5,4068 <core_state_transition+0x118>
    3fb4:	0012c683          	lbu	a3,1(t0)
    3fb8:	00128793          	addi	a5,t0,1
    3fbc:	2c068c63          	beqz	a3,4294 <core_state_transition+0x344>
    3fc0:	2dd68e63          	beq	a3,t4,429c <core_state_transition+0x34c>
    3fc4:	00078293          	mv	t0,a5
    3fc8:	ffc690e3          	bne	a3,t3,3fa8 <core_state_transition+0x58>
    3fcc:	0105a803          	lw	a6,16(a1)
    3fd0:	00128693          	addi	a3,t0,1
    3fd4:	00180313          	addi	t1,a6,1
    3fd8:	0065a823          	sw	t1,16(a1)
    3fdc:	0012c283          	lbu	t0,1(t0)
    3fe0:	26028463          	beqz	t0,4248 <core_state_transition+0x2f8>
    3fe4:	02c00393          	li	t2,44
    3fe8:	22728c63          	beq	t0,t2,4220 <core_state_transition+0x2d0>
    3fec:	04500e13          	li	t3,69
    3ff0:	00900513          	li	a0,9
    3ff4:	02c00893          	li	a7,44
    3ff8:	0df2fe93          	andi	t4,t0,223
    3ffc:	11ce8663          	beq	t4,t3,4108 <core_state_transition+0x1b8>
    4000:	fd028793          	addi	a5,t0,-48
    4004:	0ff7ff13          	andi	t5,a5,255
    4008:	1fe57263          	bgeu	a0,t5,41ec <core_state_transition+0x29c>
    400c:	0145af83          	lw	t6,20(a1)
    4010:	00168793          	addi	a5,a3,1
    4014:	00100513          	li	a0,1
    4018:	001f8713          	addi	a4,t6,1
    401c:	00e5aa23          	sw	a4,20(a1)
    4020:	00f62023          	sw	a5,0(a2)
    4024:	00008067          	ret
    4028:	02b00313          	li	t1,43
    402c:	04670c63          	beq	a4,t1,4084 <core_state_transition+0x134>
    4030:	02d00393          	li	t2,45
    4034:	04770863          	beq	a4,t2,4084 <core_state_transition+0x134>
    4038:	02e00893          	li	a7,46
    403c:	1d170463          	beq	a4,a7,4204 <core_state_transition+0x2b4>
    4040:	0045ae03          	lw	t3,4(a1)
    4044:	0005af03          	lw	t5,0(a1)
    4048:	00178793          	addi	a5,a5,1
    404c:	001e0e93          	addi	t4,t3,1
    4050:	001f0f93          	addi	t6,t5,1
    4054:	01d5a223          	sw	t4,4(a1)
    4058:	01f5a023          	sw	t6,0(a1)
    405c:	00100513          	li	a0,1
    4060:	00f62023          	sw	a5,0(a2)
    4064:	00008067          	ret
    4068:	0105af83          	lw	t6,16(a1)
    406c:	00128793          	addi	a5,t0,1
    4070:	00100513          	li	a0,1
    4074:	001f8713          	addi	a4,t6,1
    4078:	00e5a823          	sw	a4,16(a1)
    407c:	00f62023          	sw	a5,0(a2)
    4080:	00008067          	ret
    4084:	0005a283          	lw	t0,0(a1)
    4088:	00178313          	addi	t1,a5,1
    408c:	00128813          	addi	a6,t0,1
    4090:	0105a023          	sw	a6,0(a1)
    4094:	0017c383          	lbu	t2,1(a5)
    4098:	20038863          	beqz	t2,42a8 <core_state_transition+0x358>
    409c:	20a38c63          	beq	t2,a0,42b4 <core_state_transition+0x364>
    40a0:	fd038513          	addi	a0,t2,-48
    40a4:	0ff57893          	andi	a7,a0,255
    40a8:	00900e13          	li	t3,9
    40ac:	031e7463          	bgeu	t3,a7,40d4 <core_state_transition+0x184>
    40b0:	02e00e93          	li	t4,46
    40b4:	17d38e63          	beq	t2,t4,4230 <core_state_transition+0x2e0>
    40b8:	0085af03          	lw	t5,8(a1)
    40bc:	00130793          	addi	a5,t1,1
    40c0:	00100513          	li	a0,1
    40c4:	001f0f93          	addi	t6,t5,1
    40c8:	01f5a423          	sw	t6,8(a1)
    40cc:	00f62023          	sw	a5,0(a2)
    40d0:	00008067          	ret
    40d4:	0085a283          	lw	t0,8(a1)
    40d8:	00128813          	addi	a6,t0,1
    40dc:	0105a423          	sw	a6,8(a1)
    40e0:	00134683          	lbu	a3,1(t1)
    40e4:	00130293          	addi	t0,t1,1
    40e8:	16068c63          	beqz	a3,4260 <core_state_transition+0x310>
    40ec:	02c00313          	li	t1,44
    40f0:	ea6694e3          	bne	a3,t1,3f98 <core_state_transition+0x48>
    40f4:	00028793          	mv	a5,t0
    40f8:	00400513          	li	a0,4
    40fc:	00178793          	addi	a5,a5,1
    4100:	00f62023          	sw	a5,0(a2)
    4104:	00008067          	ret
    4108:	0145a803          	lw	a6,20(a1)
    410c:	00168793          	addi	a5,a3,1
    4110:	00300513          	li	a0,3
    4114:	00180313          	addi	t1,a6,1
    4118:	0065aa23          	sw	t1,20(a1)
    411c:	0016c383          	lbu	t2,1(a3)
    4120:	f00380e3          	beqz	t2,4020 <core_state_transition+0xd0>
    4124:	02c00e13          	li	t3,44
    4128:	15c38a63          	beq	t2,t3,427c <core_state_transition+0x32c>
    412c:	00c5ae83          	lw	t4,12(a1)
    4130:	fd538513          	addi	a0,t2,-43
    4134:	0fd57893          	andi	a7,a0,253
    4138:	001e8793          	addi	a5,t4,1
    413c:	00f5a623          	sw	a5,12(a1)
    4140:	00268793          	addi	a5,a3,2
    4144:	00088663          	beqz	a7,4150 <core_state_transition+0x200>
    4148:	00100513          	li	a0,1
    414c:	ed5ff06f          	j	4020 <core_state_transition+0xd0>
    4150:	0026cf03          	lbu	t5,2(a3)
    4154:	120f0063          	beqz	t5,4274 <core_state_transition+0x324>
    4158:	13cf0863          	beq	t5,t3,4288 <core_state_transition+0x338>
    415c:	fd0f0f93          	addi	t6,t5,-48
    4160:	0ffff713          	andi	a4,t6,255
    4164:	00900293          	li	t0,9
    4168:	00e2fe63          	bgeu	t0,a4,4184 <core_state_transition+0x234>
    416c:	0185a803          	lw	a6,24(a1)
    4170:	00368793          	addi	a5,a3,3
    4174:	00100513          	li	a0,1
    4178:	00180313          	addi	t1,a6,1
    417c:	0065ac23          	sw	t1,24(a1)
    4180:	ea1ff06f          	j	4020 <core_state_transition+0xd0>
    4184:	0185a383          	lw	t2,24(a1)
    4188:	00368793          	addi	a5,a3,3
    418c:	00138513          	addi	a0,t2,1
    4190:	00a5ac23          	sw	a0,24(a1)
    4194:	0036c703          	lbu	a4,3(a3)
    4198:	0c070a63          	beqz	a4,426c <core_state_transition+0x31c>
    419c:	05c70263          	beq	a4,t3,41e0 <core_state_transition+0x290>
    41a0:	00900693          	li	a3,9
    41a4:	02c00e13          	li	t3,44
    41a8:	fd070893          	addi	a7,a4,-48
    41ac:	0ff8fe93          	andi	t4,a7,255
    41b0:	01d6fe63          	bgeu	a3,t4,41cc <core_state_transition+0x27c>
    41b4:	0045af03          	lw	t5,4(a1)
    41b8:	00178793          	addi	a5,a5,1
    41bc:	00100513          	li	a0,1
    41c0:	001f0f93          	addi	t6,t5,1
    41c4:	01f5a223          	sw	t6,4(a1)
    41c8:	e59ff06f          	j	4020 <core_state_transition+0xd0>
    41cc:	0017c703          	lbu	a4,1(a5)
    41d0:	00178293          	addi	t0,a5,1
    41d4:	00028793          	mv	a5,t0
    41d8:	08070a63          	beqz	a4,426c <core_state_transition+0x31c>
    41dc:	fdc716e3          	bne	a4,t3,41a8 <core_state_transition+0x258>
    41e0:	00700513          	li	a0,7
    41e4:	00178793          	addi	a5,a5,1
    41e8:	f19ff06f          	j	4100 <core_state_transition+0x1b0>
    41ec:	0016c283          	lbu	t0,1(a3)
    41f0:	00168793          	addi	a5,a3,1
    41f4:	0c028863          	beqz	t0,42c4 <core_state_transition+0x374>
    41f8:	0d128a63          	beq	t0,a7,42cc <core_state_transition+0x37c>
    41fc:	00078693          	mv	a3,a5
    4200:	df9ff06f          	j	3ff8 <core_state_transition+0xa8>
    4204:	0005a703          	lw	a4,0(a1)
    4208:	00170693          	addi	a3,a4,1
    420c:	00d5a023          	sw	a3,0(a1)
    4210:	0017c283          	lbu	t0,1(a5)
    4214:	00178693          	addi	a3,a5,1
    4218:	02028863          	beqz	t0,4248 <core_state_transition+0x2f8>
    421c:	dca298e3          	bne	t0,a0,3fec <core_state_transition+0x9c>
    4220:	00068793          	mv	a5,a3
    4224:	00500513          	li	a0,5
    4228:	00178793          	addi	a5,a5,1
    422c:	ed5ff06f          	j	4100 <core_state_transition+0x1b0>
    4230:	0085a703          	lw	a4,8(a1)
    4234:	00170693          	addi	a3,a4,1
    4238:	00d5a423          	sw	a3,8(a1)
    423c:	00134283          	lbu	t0,1(t1)
    4240:	00130693          	addi	a3,t1,1
    4244:	da0290e3          	bnez	t0,3fe4 <core_state_transition+0x94>
    4248:	00068793          	mv	a5,a3
    424c:	00500513          	li	a0,5
    4250:	dd1ff06f          	j	4020 <core_state_transition+0xd0>
    4254:	00000513          	li	a0,0
    4258:	00178793          	addi	a5,a5,1
    425c:	ea5ff06f          	j	4100 <core_state_transition+0x1b0>
    4260:	00028793          	mv	a5,t0
    4264:	00400513          	li	a0,4
    4268:	db9ff06f          	j	4020 <core_state_transition+0xd0>
    426c:	00700513          	li	a0,7
    4270:	db1ff06f          	j	4020 <core_state_transition+0xd0>
    4274:	00600513          	li	a0,6
    4278:	da9ff06f          	j	4020 <core_state_transition+0xd0>
    427c:	00300513          	li	a0,3
    4280:	00178793          	addi	a5,a5,1
    4284:	e7dff06f          	j	4100 <core_state_transition+0x1b0>
    4288:	00600513          	li	a0,6
    428c:	00178793          	addi	a5,a5,1
    4290:	e71ff06f          	j	4100 <core_state_transition+0x1b0>
    4294:	00400513          	li	a0,4
    4298:	d89ff06f          	j	4020 <core_state_transition+0xd0>
    429c:	00400513          	li	a0,4
    42a0:	00178793          	addi	a5,a5,1
    42a4:	e5dff06f          	j	4100 <core_state_transition+0x1b0>
    42a8:	00030793          	mv	a5,t1
    42ac:	00200513          	li	a0,2
    42b0:	d71ff06f          	j	4020 <core_state_transition+0xd0>
    42b4:	00030793          	mv	a5,t1
    42b8:	00200513          	li	a0,2
    42bc:	00178793          	addi	a5,a5,1
    42c0:	e41ff06f          	j	4100 <core_state_transition+0x1b0>
    42c4:	00500513          	li	a0,5
    42c8:	d59ff06f          	j	4020 <core_state_transition+0xd0>
    42cc:	00500513          	li	a0,5
    42d0:	00178793          	addi	a5,a5,1
    42d4:	e2dff06f          	j	4100 <core_state_transition+0x1b0>

000042d8 <get_vtimer>:
    42d8:	ff010113          	addi	sp,sp,-16
    42dc:	c01027f3          	rdtime	a5
    42e0:	00f12623          	sw	a5,12(sp)
    42e4:	00c12503          	lw	a0,12(sp)
    42e8:	01010113          	addi	sp,sp,16
    42ec:	00008067          	ret

000042f0 <sim_end>:
    42f0:	600107b7          	lui	a5,0x60010
    42f4:	ffff0737          	lui	a4,0xffff0
    42f8:	fee7ac23          	sw	a4,-8(a5) # 6000fff8 <__kernel_stack+0x3ff50000>
    42fc:	00008067          	ret

00004300 <ck_uart_set_baudrate>:
    4300:	05f5e7b7          	lui	a5,0x5f5e
    4304:	10078293          	addi	t0,a5,256 # 5f5e100 <_global_impure_ptr+0x5f45104>
    4308:	02b2d333          	divu	t1,t0,a1
    430c:	00452703          	lw	a4,4(a0)
    4310:	00b52423          	sw	a1,8(a0)
    4314:	00c74683          	lbu	a3,12(a4) # ffff000c <__kernel_stack+0xdff30014>
    4318:	f806e393          	ori	t2,a3,-128
    431c:	0ff3f513          	andi	a0,t2,255
    4320:	00a70623          	sb	a0,12(a4)
    4324:	00435593          	srli	a1,t1,0x4
    4328:	0ff5f613          	andi	a2,a1,255
    432c:	00c35813          	srli	a6,t1,0xc
    4330:	00c70023          	sb	a2,0(a4)
    4334:	0ff87893          	andi	a7,a6,255
    4338:	01170223          	sb	a7,4(a4)
    433c:	00c74e03          	lbu	t3,12(a4)
    4340:	07fe7e93          	andi	t4,t3,127
    4344:	01d70623          	sb	t4,12(a4)
    4348:	00008067          	ret

0000434c <ck_uart_set_parity>:
    434c:	00b52623          	sw	a1,12(a0)
    4350:	00100793          	li	a5,1
    4354:	04f58a63          	beq	a1,a5,43a8 <ck_uart_set_parity+0x5c>
    4358:	00200693          	li	a3,2
    435c:	02d58063          	beq	a1,a3,437c <ck_uart_set_parity+0x30>
    4360:	00058463          	beqz	a1,4368 <ck_uart_set_parity+0x1c>
    4364:	00008067          	ret
    4368:	00452283          	lw	t0,4(a0)
    436c:	00c2c303          	lbu	t1,12(t0)
    4370:	0f737393          	andi	t2,t1,247
    4374:	00728623          	sb	t2,12(t0)
    4378:	00008067          	ret
    437c:	00452803          	lw	a6,4(a0)
    4380:	00c84883          	lbu	a7,12(a6)
    4384:	0ff8fe13          	andi	t3,a7,255
    4388:	008e6e93          	ori	t4,t3,8
    438c:	01d80623          	sb	t4,12(a6)
    4390:	00452f03          	lw	t5,4(a0)
    4394:	00cf4f83          	lbu	t6,12(t5)
    4398:	0ffff793          	andi	a5,t6,255
    439c:	0107e713          	ori	a4,a5,16
    43a0:	00ef0623          	sb	a4,12(t5)
    43a4:	00008067          	ret
    43a8:	00452703          	lw	a4,4(a0)
    43ac:	00c74283          	lbu	t0,12(a4)
    43b0:	0ff2f313          	andi	t1,t0,255
    43b4:	00836393          	ori	t2,t1,8
    43b8:	00770623          	sb	t2,12(a4)
    43bc:	00452503          	lw	a0,4(a0)
    43c0:	00c54583          	lbu	a1,12(a0)
    43c4:	0ef5f613          	andi	a2,a1,239
    43c8:	00c50623          	sb	a2,12(a0)
    43cc:	00008067          	ret

000043d0 <ck_uart_set_wordsize>:
    43d0:	00b52a23          	sw	a1,20(a0)
    43d4:	00200793          	li	a5,2
    43d8:	06f58663          	beq	a1,a5,4444 <ck_uart_set_wordsize+0x74>
    43dc:	02b7e863          	bltu	a5,a1,440c <ck_uart_set_wordsize+0x3c>
    43e0:	04058863          	beqz	a1,4430 <ck_uart_set_wordsize+0x60>
    43e4:	00452703          	lw	a4,4(a0)
    43e8:	00c74283          	lbu	t0,12(a4)
    43ec:	0fd2f313          	andi	t1,t0,253
    43f0:	00670623          	sb	t1,12(a4)
    43f4:	00452383          	lw	t2,4(a0)
    43f8:	00c3c503          	lbu	a0,12(t2)
    43fc:	0ff57593          	andi	a1,a0,255
    4400:	0015e613          	ori	a2,a1,1
    4404:	00c38623          	sb	a2,12(t2)
    4408:	00008067          	ret
    440c:	00300693          	li	a3,3
    4410:	00d59e63          	bne	a1,a3,442c <ck_uart_set_wordsize+0x5c>
    4414:	00452803          	lw	a6,4(a0)
    4418:	00c84883          	lbu	a7,12(a6)
    441c:	0ff8fe13          	andi	t3,a7,255
    4420:	003e6e93          	ori	t4,t3,3
    4424:	01d80623          	sb	t4,12(a6)
    4428:	00008067          	ret
    442c:	00008067          	ret
    4430:	00452f03          	lw	t5,4(a0)
    4434:	00cf4f83          	lbu	t6,12(t5)
    4438:	0fcff793          	andi	a5,t6,252
    443c:	00ff0623          	sb	a5,12(t5)
    4440:	00008067          	ret
    4444:	00452703          	lw	a4,4(a0)
    4448:	00c74283          	lbu	t0,12(a4)
    444c:	0fe2f313          	andi	t1,t0,254
    4450:	00670623          	sb	t1,12(a4)
    4454:	00452383          	lw	t2,4(a0)
    4458:	00c3c503          	lbu	a0,12(t2)
    445c:	0ff57593          	andi	a1,a0,255
    4460:	0025e613          	ori	a2,a1,2
    4464:	00c38623          	sb	a2,12(t2)
    4468:	00008067          	ret

0000446c <ck_uart_set_stopbit>:
    446c:	00b52823          	sw	a1,16(a0)
    4470:	02058463          	beqz	a1,4498 <ck_uart_set_stopbit+0x2c>
    4474:	00100313          	li	t1,1
    4478:	00659e63          	bne	a1,t1,4494 <ck_uart_set_stopbit+0x28>
    447c:	00452383          	lw	t2,4(a0)
    4480:	00c3c503          	lbu	a0,12(t2)
    4484:	0ff57593          	andi	a1,a0,255
    4488:	0045e613          	ori	a2,a1,4
    448c:	00c38623          	sb	a2,12(t2)
    4490:	00008067          	ret
    4494:	00008067          	ret
    4498:	00452703          	lw	a4,4(a0)
    449c:	00c74783          	lbu	a5,12(a4)
    44a0:	0fb7f293          	andi	t0,a5,251
    44a4:	00570623          	sb	t0,12(a4)
    44a8:	00008067          	ret

000044ac <ck_uart_set_rxmode>:
    44ac:	00b52c23          	sw	a1,24(a0)
    44b0:	00008067          	ret

000044b4 <ck_uart_set_txmode>:
    44b4:	00b52e23          	sw	a1,28(a0)
    44b8:	00008067          	ret

000044bc <ck_uart_open>:
    44bc:	00059c63          	bnez	a1,44d4 <ck_uart_open+0x18>
    44c0:	400157b7          	lui	a5,0x40015
    44c4:	00052023          	sw	zero,0(a0)
    44c8:	00f52223          	sw	a5,4(a0)
    44cc:	00000513          	li	a0,0
    44d0:	00008067          	ret
    44d4:	00100513          	li	a0,1
    44d8:	00008067          	ret

000044dc <ck_uart_init>:
    44dc:	00052703          	lw	a4,0(a0)
    44e0:	000107b7          	lui	a5,0x10
    44e4:	fff78293          	addi	t0,a5,-1 # ffff <_vsnprintf+0x67ab>
    44e8:	14570a63          	beq	a4,t0,463c <ck_uart_init+0x160>
    44ec:	0005a683          	lw	a3,0(a1)
    44f0:	05f5e3b7          	lui	t2,0x5f5e
    44f4:	10038613          	addi	a2,t2,256 # 5f5e100 <_global_impure_ptr+0x5f45104>
    44f8:	02d65833          	divu	a6,a2,a3
    44fc:	00452303          	lw	t1,4(a0)
    4500:	00d52423          	sw	a3,8(a0)
    4504:	00100393          	li	t2,1
    4508:	00c34883          	lbu	a7,12(t1)
    450c:	f808ee13          	ori	t3,a7,-128
    4510:	0ffe7e93          	andi	t4,t3,255
    4514:	01d30623          	sb	t4,12(t1)
    4518:	00485f13          	srli	t5,a6,0x4
    451c:	0fff7f93          	andi	t6,t5,255
    4520:	00c85713          	srli	a4,a6,0xc
    4524:	01f30023          	sb	t6,0(t1)
    4528:	0ff77793          	andi	a5,a4,255
    452c:	00f30223          	sb	a5,4(t1)
    4530:	00c34283          	lbu	t0,12(t1)
    4534:	07f2f693          	andi	a3,t0,127
    4538:	00d30623          	sb	a3,12(t1)
    453c:	0085a303          	lw	t1,8(a1)
    4540:	00652623          	sw	t1,12(a0)
    4544:	1a730063          	beq	t1,t2,46e4 <ck_uart_init+0x208>
    4548:	00200713          	li	a4,2
    454c:	10e30c63          	beq	t1,a4,4664 <ck_uart_init+0x188>
    4550:	18030063          	beqz	t1,46d0 <ck_uart_init+0x1f4>
    4554:	00c5af83          	lw	t6,12(a1)
    4558:	00200713          	li	a4,2
    455c:	01f52a23          	sw	t6,20(a0)
    4560:	12ef8e63          	beq	t6,a4,469c <ck_uart_init+0x1c0>
    4564:	05f76c63          	bltu	a4,t6,45bc <ck_uart_init+0xe0>
    4568:	0c0f8e63          	beqz	t6,4644 <ck_uart_init+0x168>
    456c:	00452683          	lw	a3,4(a0)
    4570:	00c6c303          	lbu	t1,12(a3)
    4574:	0fd37393          	andi	t2,t1,253
    4578:	00768623          	sb	t2,12(a3)
    457c:	00452603          	lw	a2,4(a0)
    4580:	00c64803          	lbu	a6,12(a2)
    4584:	0ff87893          	andi	a7,a6,255
    4588:	0018ee13          	ori	t3,a7,1
    458c:	01c60623          	sb	t3,12(a2)
    4590:	0045ae83          	lw	t4,4(a1)
    4594:	01d52823          	sw	t4,16(a0)
    4598:	060e8e63          	beqz	t4,4614 <ck_uart_init+0x138>
    459c:	00100293          	li	t0,1
    45a0:	045e8463          	beq	t4,t0,45e8 <ck_uart_init+0x10c>
    45a4:	0105a603          	lw	a2,16(a1)
    45a8:	0145a583          	lw	a1,20(a1)
    45ac:	00c52c23          	sw	a2,24(a0)
    45b0:	00b52e23          	sw	a1,28(a0)
    45b4:	00000513          	li	a0,0
    45b8:	00008067          	ret
    45bc:	00300893          	li	a7,3
    45c0:	fd1f98e3          	bne	t6,a7,4590 <ck_uart_init+0xb4>
    45c4:	00452e03          	lw	t3,4(a0)
    45c8:	00ce4e83          	lbu	t4,12(t3)
    45cc:	0ffeff13          	andi	t5,t4,255
    45d0:	003f6f93          	ori	t6,t5,3
    45d4:	01fe0623          	sb	t6,12(t3)
    45d8:	0045ae83          	lw	t4,4(a1)
    45dc:	01d52823          	sw	t4,16(a0)
    45e0:	fa0e9ee3          	bnez	t4,459c <ck_uart_init+0xc0>
    45e4:	0300006f          	j	4614 <ck_uart_init+0x138>
    45e8:	00452683          	lw	a3,4(a0)
    45ec:	00c6c783          	lbu	a5,12(a3)
    45f0:	0ff7f313          	andi	t1,a5,255
    45f4:	00436393          	ori	t2,t1,4
    45f8:	00768623          	sb	t2,12(a3)
    45fc:	0105a603          	lw	a2,16(a1)
    4600:	0145a583          	lw	a1,20(a1)
    4604:	00c52c23          	sw	a2,24(a0)
    4608:	00b52e23          	sw	a1,28(a0)
    460c:	00000513          	li	a0,0
    4610:	00008067          	ret
    4614:	00452f03          	lw	t5,4(a0)
    4618:	00cf4f83          	lbu	t6,12(t5)
    461c:	0fbff713          	andi	a4,t6,251
    4620:	00ef0623          	sb	a4,12(t5)
    4624:	0105a603          	lw	a2,16(a1)
    4628:	0145a583          	lw	a1,20(a1)
    462c:	00c52c23          	sw	a2,24(a0)
    4630:	00b52e23          	sw	a1,28(a0)
    4634:	00000513          	li	a0,0
    4638:	00008067          	ret
    463c:	00100513          	li	a0,1
    4640:	00008067          	ret
    4644:	00452703          	lw	a4,4(a0)
    4648:	00c74283          	lbu	t0,12(a4)
    464c:	0fc2f793          	andi	a5,t0,252
    4650:	00f70623          	sb	a5,12(a4)
    4654:	0045ae83          	lw	t4,4(a1)
    4658:	01d52823          	sw	t4,16(a0)
    465c:	f40e90e3          	bnez	t4,459c <ck_uart_init+0xc0>
    4660:	fb5ff06f          	j	4614 <ck_uart_init+0x138>
    4664:	00452283          	lw	t0,4(a0)
    4668:	00200713          	li	a4,2
    466c:	00c2c783          	lbu	a5,12(t0)
    4670:	0ff7f693          	andi	a3,a5,255
    4674:	0086e313          	ori	t1,a3,8
    4678:	00628623          	sb	t1,12(t0)
    467c:	00452383          	lw	t2,4(a0)
    4680:	00c3c603          	lbu	a2,12(t2)
    4684:	0ff67813          	andi	a6,a2,255
    4688:	01086893          	ori	a7,a6,16
    468c:	01138623          	sb	a7,12(t2)
    4690:	00c5af83          	lw	t6,12(a1)
    4694:	01f52a23          	sw	t6,20(a0)
    4698:	ecef96e3          	bne	t6,a4,4564 <ck_uart_init+0x88>
    469c:	00452283          	lw	t0,4(a0)
    46a0:	00c2c783          	lbu	a5,12(t0)
    46a4:	0fe7f693          	andi	a3,a5,254
    46a8:	00d28623          	sb	a3,12(t0)
    46ac:	00452303          	lw	t1,4(a0)
    46b0:	00c34383          	lbu	t2,12(t1)
    46b4:	0ff3f613          	andi	a2,t2,255
    46b8:	00266813          	ori	a6,a2,2
    46bc:	01030623          	sb	a6,12(t1)
    46c0:	0045ae83          	lw	t4,4(a1)
    46c4:	01d52823          	sw	t4,16(a0)
    46c8:	ec0e9ae3          	bnez	t4,459c <ck_uart_init+0xc0>
    46cc:	f49ff06f          	j	4614 <ck_uart_init+0x138>
    46d0:	00452e03          	lw	t3,4(a0)
    46d4:	00ce4e83          	lbu	t4,12(t3)
    46d8:	0f7eff13          	andi	t5,t4,247
    46dc:	01ee0623          	sb	t5,12(t3)
    46e0:	e75ff06f          	j	4554 <ck_uart_init+0x78>
    46e4:	00452603          	lw	a2,4(a0)
    46e8:	00c64803          	lbu	a6,12(a2)
    46ec:	0ff87893          	andi	a7,a6,255
    46f0:	0088ee13          	ori	t3,a7,8
    46f4:	01c60623          	sb	t3,12(a2)
    46f8:	00452e83          	lw	t4,4(a0)
    46fc:	00cecf03          	lbu	t5,12(t4)
    4700:	0eff7f93          	andi	t6,t5,239
    4704:	01fe8623          	sb	t6,12(t4)
    4708:	e4dff06f          	j	4554 <ck_uart_init+0x78>

0000470c <ck_uart_close>:
    470c:	000107b7          	lui	a5,0x10
    4710:	fff78293          	addi	t0,a5,-1 # ffff <_vsnprintf+0x67ab>
    4714:	00052c23          	sw	zero,24(a0)
    4718:	00052e23          	sw	zero,28(a0)
    471c:	00552023          	sw	t0,0(a0)
    4720:	00000513          	li	a0,0
    4724:	00008067          	ret

00004728 <ck_uart_putc>:
    4728:	01c52783          	lw	a5,28(a0)
    472c:	06078a63          	beqz	a5,47a0 <ck_uart_putc+0x78>
    4730:	00452283          	lw	t0,4(a0)
    4734:	0142c703          	lbu	a4,20(t0)
    4738:	02077313          	andi	t1,a4,32
    473c:	04031c63          	bnez	t1,4794 <ck_uart_putc+0x6c>
    4740:	0142c383          	lbu	t2,20(t0)
    4744:	0203f513          	andi	a0,t2,32
    4748:	04051663          	bnez	a0,4794 <ck_uart_putc+0x6c>
    474c:	0142c603          	lbu	a2,20(t0)
    4750:	02067693          	andi	a3,a2,32
    4754:	04069063          	bnez	a3,4794 <ck_uart_putc+0x6c>
    4758:	0142c803          	lbu	a6,20(t0)
    475c:	02087893          	andi	a7,a6,32
    4760:	02089a63          	bnez	a7,4794 <ck_uart_putc+0x6c>
    4764:	0142ce03          	lbu	t3,20(t0)
    4768:	020e7e93          	andi	t4,t3,32
    476c:	020e9463          	bnez	t4,4794 <ck_uart_putc+0x6c>
    4770:	0142cf03          	lbu	t5,20(t0)
    4774:	020f7f93          	andi	t6,t5,32
    4778:	000f9e63          	bnez	t6,4794 <ck_uart_putc+0x6c>
    477c:	0142c783          	lbu	a5,20(t0)
    4780:	0207f713          	andi	a4,a5,32
    4784:	00071863          	bnez	a4,4794 <ck_uart_putc+0x6c>
    4788:	0142c303          	lbu	t1,20(t0)
    478c:	02037393          	andi	t2,t1,32
    4790:	fa0382e3          	beqz	t2,4734 <ck_uart_putc+0xc>
    4794:	00b28023          	sb	a1,0(t0)
    4798:	00000513          	li	a0,0
    479c:	00008067          	ret
    47a0:	00100513          	li	a0,1
    47a4:	00008067          	ret

000047a8 <ck_uart_status>:
    47a8:	00000513          	li	a0,0
    47ac:	00008067          	ret

000047b0 <vasprintf>:
    47b0:	fe010113          	addi	sp,sp,-32
    47b4:	01612023          	sw	s6,0(sp)
    47b8:	00050b13          	mv	s6,a0
    47bc:	00058513          	mv	a0,a1
    47c0:	00912a23          	sw	s1,20(sp)
    47c4:	01312623          	sw	s3,12(sp)
    47c8:	01412423          	sw	s4,8(sp)
    47cc:	01512223          	sw	s5,4(sp)
    47d0:	00112e23          	sw	ra,28(sp)
    47d4:	00812c23          	sw	s0,24(sp)
    47d8:	01212823          	sw	s2,16(sp)
    47dc:	00058a13          	mv	s4,a1
    47e0:	00060a93          	mv	s5,a2
    47e4:	019130ef          	jal	ra,17ffc <strlen>
    47e8:	00150993          	addi	s3,a0,1
    47ec:	f009f293          	andi	t0,s3,-256
    47f0:	10028493          	addi	s1,t0,256
    47f4:	000b2023          	sw	zero,0(s6)
    47f8:	20028993          	addi	s3,t0,512
    47fc:	00048513          	mv	a0,s1
    4800:	0dc130ef          	jal	ra,178dc <malloc>
    4804:	00050913          	mv	s2,a0
    4808:	08050e63          	beqz	a0,48a4 <vasprintf+0xf4>
    480c:	000a8693          	mv	a3,s5
    4810:	000a0613          	mv	a2,s4
    4814:	00048593          	mv	a1,s1
    4818:	2880c0ef          	jal	ra,10aa0 <vsnprintf>
    481c:	00050413          	mv	s0,a0
    4820:	02054263          	bltz	a0,4844 <vasprintf+0x94>
    4824:	fff48493          	addi	s1,s1,-1
    4828:	02956863          	bltu	a0,s1,4858 <vasprintf+0xa8>
    482c:	00090513          	mv	a0,s2
    4830:	0b8130ef          	jal	ra,178e8 <free>
    4834:	00140493          	addi	s1,s0,1
    4838:	01346a63          	bltu	s0,s3,484c <vasprintf+0x9c>
    483c:	10098993          	addi	s3,s3,256
    4840:	fbdff06f          	j	47fc <vasprintf+0x4c>
    4844:	00090513          	mv	a0,s2
    4848:	0a0130ef          	jal	ra,178e8 <free>
    484c:	00098493          	mv	s1,s3
    4850:	10098993          	addi	s3,s3,256
    4854:	fa9ff06f          	j	47fc <vasprintf+0x4c>
    4858:	02051863          	bnez	a0,4888 <vasprintf+0xd8>
    485c:	01c12083          	lw	ra,28(sp)
    4860:	00040513          	mv	a0,s0
    4864:	01812403          	lw	s0,24(sp)
    4868:	01412483          	lw	s1,20(sp)
    486c:	01012903          	lw	s2,16(sp)
    4870:	00c12983          	lw	s3,12(sp)
    4874:	00812a03          	lw	s4,8(sp)
    4878:	00412a83          	lw	s5,4(sp)
    487c:	00012b03          	lw	s6,0(sp)
    4880:	02010113          	addi	sp,sp,32
    4884:	00008067          	ret
    4888:	00090513          	mv	a0,s2
    488c:	72c130ef          	jal	ra,17fb8 <strdup>
    4890:	00050e63          	beqz	a0,48ac <vasprintf+0xfc>
    4894:	00ab2023          	sw	a0,0(s6)
    4898:	00090513          	mv	a0,s2
    489c:	04c130ef          	jal	ra,178e8 <free>
    48a0:	fbdff06f          	j	485c <vasprintf+0xac>
    48a4:	ff400413          	li	s0,-12
    48a8:	fb5ff06f          	j	485c <vasprintf+0xac>
    48ac:	012b2023          	sw	s2,0(s6)
    48b0:	fadff06f          	j	485c <vasprintf+0xac>

000048b4 <asprintf>:
    48b4:	fb010113          	addi	sp,sp,-80
    48b8:	01512a23          	sw	s5,20(sp)
    48bc:	01612823          	sw	s6,16(sp)
    48c0:	03810a93          	addi	s5,sp,56
    48c4:	00050b13          	mv	s6,a0
    48c8:	00058513          	mv	a0,a1
    48cc:	02912223          	sw	s1,36(sp)
    48d0:	01312e23          	sw	s3,28(sp)
    48d4:	01412c23          	sw	s4,24(sp)
    48d8:	02112623          	sw	ra,44(sp)
    48dc:	02812423          	sw	s0,40(sp)
    48e0:	03212023          	sw	s2,32(sp)
    48e4:	00058a13          	mv	s4,a1
    48e8:	02c12c23          	sw	a2,56(sp)
    48ec:	02d12e23          	sw	a3,60(sp)
    48f0:	04e12023          	sw	a4,64(sp)
    48f4:	04f12223          	sw	a5,68(sp)
    48f8:	05012423          	sw	a6,72(sp)
    48fc:	05112623          	sw	a7,76(sp)
    4900:	01512623          	sw	s5,12(sp)
    4904:	6f8130ef          	jal	ra,17ffc <strlen>
    4908:	00150993          	addi	s3,a0,1
    490c:	f009f293          	andi	t0,s3,-256
    4910:	10028493          	addi	s1,t0,256
    4914:	000b2023          	sw	zero,0(s6)
    4918:	20028993          	addi	s3,t0,512
    491c:	00048513          	mv	a0,s1
    4920:	7bd120ef          	jal	ra,178dc <malloc>
    4924:	00050913          	mv	s2,a0
    4928:	08050e63          	beqz	a0,49c4 <asprintf+0x110>
    492c:	000a8693          	mv	a3,s5
    4930:	000a0613          	mv	a2,s4
    4934:	00048593          	mv	a1,s1
    4938:	1680c0ef          	jal	ra,10aa0 <vsnprintf>
    493c:	00050413          	mv	s0,a0
    4940:	02054263          	bltz	a0,4964 <asprintf+0xb0>
    4944:	fff48493          	addi	s1,s1,-1
    4948:	02956863          	bltu	a0,s1,4978 <asprintf+0xc4>
    494c:	00090513          	mv	a0,s2
    4950:	799120ef          	jal	ra,178e8 <free>
    4954:	00140493          	addi	s1,s0,1
    4958:	01346a63          	bltu	s0,s3,496c <asprintf+0xb8>
    495c:	10098993          	addi	s3,s3,256
    4960:	fbdff06f          	j	491c <asprintf+0x68>
    4964:	00090513          	mv	a0,s2
    4968:	781120ef          	jal	ra,178e8 <free>
    496c:	00098493          	mv	s1,s3
    4970:	10098993          	addi	s3,s3,256
    4974:	fa9ff06f          	j	491c <asprintf+0x68>
    4978:	02051863          	bnez	a0,49a8 <asprintf+0xf4>
    497c:	02c12083          	lw	ra,44(sp)
    4980:	00040513          	mv	a0,s0
    4984:	02812403          	lw	s0,40(sp)
    4988:	02412483          	lw	s1,36(sp)
    498c:	02012903          	lw	s2,32(sp)
    4990:	01c12983          	lw	s3,28(sp)
    4994:	01812a03          	lw	s4,24(sp)
    4998:	01412a83          	lw	s5,20(sp)
    499c:	01012b03          	lw	s6,16(sp)
    49a0:	05010113          	addi	sp,sp,80
    49a4:	00008067          	ret
    49a8:	00090513          	mv	a0,s2
    49ac:	60c130ef          	jal	ra,17fb8 <strdup>
    49b0:	00050e63          	beqz	a0,49cc <asprintf+0x118>
    49b4:	00ab2023          	sw	a0,0(s6)
    49b8:	00090513          	mv	a0,s2
    49bc:	72d120ef          	jal	ra,178e8 <free>
    49c0:	fbdff06f          	j	497c <asprintf+0xc8>
    49c4:	ff400413          	li	s0,-12
    49c8:	fb5ff06f          	j	497c <asprintf+0xc8>
    49cc:	012b2023          	sw	s2,0(s6)
    49d0:	fadff06f          	j	497c <asprintf+0xc8>

000049d4 <ck_intc_init>:
    49d4:	e00007b7          	lui	a5,0xe0000
    49d8:	0007a023          	sw	zero,0(a5) # e0000000 <__kernel_stack+0xbff40008>
    49dc:	e08002b7          	lui	t0,0xe0800
    49e0:	00810737          	lui	a4,0x810
    49e4:	40e2a823          	sw	a4,1040(t0) # e0800410 <__kernel_stack+0xc0740418>
    49e8:	00008067          	ret

000049ec <__thead_vprintfsprintf>:
    49ec:	00000513          	li	a0,0
    49f0:	00008067          	ret

000049f4 <__thead_vprintfprintf>:
    49f4:	00000513          	li	a0,0
    49f8:	00008067          	ret

000049fc <stdout>:
    49fc:	00000513          	li	a0,0
    4a00:	00008067          	ret

00004a04 <calc_func>:
    4a04:	fe010113          	addi	sp,sp,-32
    4a08:	00812c23          	sw	s0,24(sp)
    4a0c:	00051403          	lh	s0,0(a0)
    4a10:	00112e23          	sw	ra,28(sp)
    4a14:	00912a23          	sw	s1,20(sp)
    4a18:	40745793          	srai	a5,s0,0x7
    4a1c:	01212823          	sw	s2,16(sp)
    4a20:	01312623          	sw	s3,12(sp)
    4a24:	0017f093          	andi	ra,a5,1
    4a28:	02008263          	beqz	ra,4a4c <calc_func+0x48>
    4a2c:	01c12083          	lw	ra,28(sp)
    4a30:	07f47513          	andi	a0,s0,127
    4a34:	01812403          	lw	s0,24(sp)
    4a38:	01412483          	lw	s1,20(sp)
    4a3c:	01012903          	lw	s2,16(sp)
    4a40:	00c12983          	lw	s3,12(sp)
    4a44:	02010113          	addi	sp,sp,32
    4a48:	00008067          	ret
    4a4c:	00058493          	mv	s1,a1
    4a50:	40345593          	srai	a1,s0,0x3
    4a54:	00f5f293          	andi	t0,a1,15
    4a58:	00429313          	slli	t1,t0,0x4
    4a5c:	00747713          	andi	a4,s0,7
    4a60:	00050913          	mv	s2,a0
    4a64:	005365b3          	or	a1,t1,t0
    4a68:	04070a63          	beqz	a4,4abc <calc_func+0xb8>
    4a6c:	00100513          	li	a0,1
    4a70:	08a70863          	beq	a4,a0,4b00 <calc_func+0xfc>
    4a74:	01041e13          	slli	t3,s0,0x10
    4a78:	010e5513          	srli	a0,t3,0x10
    4a7c:	00040993          	mv	s3,s0
    4a80:	0384d583          	lhu	a1,56(s1)
    4a84:	d25fb0ef          	jal	ra,7a8 <crcu16>
    4a88:	02a49c23          	sh	a0,56(s1)
    4a8c:	f0047e93          	andi	t4,s0,-256
    4a90:	07f9f513          	andi	a0,s3,127
    4a94:	01c12083          	lw	ra,28(sp)
    4a98:	01812403          	lw	s0,24(sp)
    4a9c:	01d56f33          	or	t5,a0,t4
    4aa0:	080f6f93          	ori	t6,t5,128
    4aa4:	01f91023          	sh	t6,0(s2)
    4aa8:	01412483          	lw	s1,20(sp)
    4aac:	01012903          	lw	s2,16(sp)
    4ab0:	00c12983          	lw	s3,12(sp)
    4ab4:	02010113          	addi	sp,sp,32
    4ab8:	00008067          	ret
    4abc:	02200693          	li	a3,34
    4ac0:	0384d783          	lhu	a5,56(s1)
    4ac4:	00058393          	mv	t2,a1
    4ac8:	00d5d463          	bge	a1,a3,4ad0 <calc_func+0xcc>
    4acc:	02200393          	li	t2,34
    4ad0:	00049603          	lh	a2,0(s1)
    4ad4:	00249683          	lh	a3,2(s1)
    4ad8:	0144a583          	lw	a1,20(s1)
    4adc:	0184a503          	lw	a0,24(s1)
    4ae0:	0ff3f713          	andi	a4,t2,255
    4ae4:	961fe0ef          	jal	ra,3444 <core_bench_state>
    4ae8:	03e4d603          	lhu	a2,62(s1)
    4aec:	01051993          	slli	s3,a0,0x10
    4af0:	4109d993          	srai	s3,s3,0x10
    4af4:	f80616e3          	bnez	a2,4a80 <calc_func+0x7c>
    4af8:	02a49f23          	sh	a0,62(s1)
    4afc:	f85ff06f          	j	4a80 <calc_func+0x7c>
    4b00:	0384d603          	lhu	a2,56(s1)
    4b04:	02848513          	addi	a0,s1,40
    4b08:	0040c0ef          	jal	ra,10b0c <core_bench_matrix>
    4b0c:	03c4d883          	lhu	a7,60(s1)
    4b10:	01051813          	slli	a6,a0,0x10
    4b14:	41085993          	srai	s3,a6,0x10
    4b18:	f60894e3          	bnez	a7,4a80 <calc_func+0x7c>
    4b1c:	02a49e23          	sh	a0,60(s1)
    4b20:	f61ff06f          	j	4a80 <calc_func+0x7c>

00004b24 <cmp_complex>:
    4b24:	fe010113          	addi	sp,sp,-32
    4b28:	00912a23          	sw	s1,20(sp)
    4b2c:	00051483          	lh	s1,0(a0)
    4b30:	00112e23          	sw	ra,28(sp)
    4b34:	00812c23          	sw	s0,24(sp)
    4b38:	4074d793          	srai	a5,s1,0x7
    4b3c:	01212823          	sw	s2,16(sp)
    4b40:	01412423          	sw	s4,8(sp)
    4b44:	01312623          	sw	s3,12(sp)
    4b48:	0017f093          	andi	ra,a5,1
    4b4c:	00058913          	mv	s2,a1
    4b50:	00060413          	mv	s0,a2
    4b54:	07f4fa13          	andi	s4,s1,127
    4b58:	04009a63          	bnez	ra,4bac <cmp_complex+0x88>
    4b5c:	4034d593          	srai	a1,s1,0x3
    4b60:	00f5f313          	andi	t1,a1,15
    4b64:	00431713          	slli	a4,t1,0x4
    4b68:	0074f293          	andi	t0,s1,7
    4b6c:	00050993          	mv	s3,a0
    4b70:	00e365b3          	or	a1,t1,a4
    4b74:	12028263          	beqz	t0,4c98 <cmp_complex+0x174>
    4b78:	00100513          	li	a0,1
    4b7c:	16a28063          	beq	t0,a0,4cdc <cmp_complex+0x1b8>
    4b80:	01049e13          	slli	t3,s1,0x10
    4b84:	010e5513          	srli	a0,t3,0x10
    4b88:	00048a13          	mv	s4,s1
    4b8c:	03845583          	lhu	a1,56(s0)
    4b90:	07fa7a13          	andi	s4,s4,127
    4b94:	c15fb0ef          	jal	ra,7a8 <crcu16>
    4b98:	f004fe93          	andi	t4,s1,-256
    4b9c:	01da6f33          	or	t5,s4,t4
    4ba0:	02a41c23          	sh	a0,56(s0)
    4ba4:	080f6f93          	ori	t6,t5,128
    4ba8:	01f99023          	sh	t6,0(s3)
    4bac:	00091483          	lh	s1,0(s2)
    4bb0:	4074d793          	srai	a5,s1,0x7
    4bb4:	0017f093          	andi	ra,a5,1
    4bb8:	07f4fe93          	andi	t4,s1,127
    4bbc:	06009263          	bnez	ra,4c20 <cmp_complex+0xfc>
    4bc0:	4034d293          	srai	t0,s1,0x3
    4bc4:	00f2f593          	andi	a1,t0,15
    4bc8:	00459313          	slli	t1,a1,0x4
    4bcc:	0074f993          	andi	s3,s1,7
    4bd0:	0065e5b3          	or	a1,a1,t1
    4bd4:	08098063          	beqz	s3,4c54 <cmp_complex+0x130>
    4bd8:	00100513          	li	a0,1
    4bdc:	06a99463          	bne	s3,a0,4c44 <cmp_complex+0x120>
    4be0:	03845603          	lhu	a2,56(s0)
    4be4:	02840513          	addi	a0,s0,40
    4be8:	7250b0ef          	jal	ra,10b0c <core_bench_matrix>
    4bec:	03c45883          	lhu	a7,60(s0)
    4bf0:	01051813          	slli	a6,a0,0x10
    4bf4:	41085993          	srai	s3,a6,0x10
    4bf8:	00089463          	bnez	a7,4c00 <cmp_complex+0xdc>
    4bfc:	02a41e23          	sh	a0,60(s0)
    4c00:	03845583          	lhu	a1,56(s0)
    4c04:	ba5fb0ef          	jal	ra,7a8 <crcu16>
    4c08:	02a41c23          	sh	a0,56(s0)
    4c0c:	07f9fe93          	andi	t4,s3,127
    4c10:	f004f413          	andi	s0,s1,-256
    4c14:	008eef33          	or	t5,t4,s0
    4c18:	080f6f93          	ori	t6,t5,128
    4c1c:	01f91023          	sh	t6,0(s2)
    4c20:	01c12083          	lw	ra,28(sp)
    4c24:	01812403          	lw	s0,24(sp)
    4c28:	01412483          	lw	s1,20(sp)
    4c2c:	01012903          	lw	s2,16(sp)
    4c30:	00c12983          	lw	s3,12(sp)
    4c34:	41da0533          	sub	a0,s4,t4
    4c38:	00812a03          	lw	s4,8(sp)
    4c3c:	02010113          	addi	sp,sp,32
    4c40:	00008067          	ret
    4c44:	01049e13          	slli	t3,s1,0x10
    4c48:	010e5513          	srli	a0,t3,0x10
    4c4c:	00048993          	mv	s3,s1
    4c50:	fb1ff06f          	j	4c00 <cmp_complex+0xdc>
    4c54:	02200693          	li	a3,34
    4c58:	03845783          	lhu	a5,56(s0)
    4c5c:	00058713          	mv	a4,a1
    4c60:	00d5d463          	bge	a1,a3,4c68 <cmp_complex+0x144>
    4c64:	02200713          	li	a4,34
    4c68:	00041603          	lh	a2,0(s0)
    4c6c:	00241683          	lh	a3,2(s0)
    4c70:	01442583          	lw	a1,20(s0)
    4c74:	01842503          	lw	a0,24(s0)
    4c78:	0ff77713          	andi	a4,a4,255
    4c7c:	fc8fe0ef          	jal	ra,3444 <core_bench_state>
    4c80:	03e45603          	lhu	a2,62(s0)
    4c84:	01051393          	slli	t2,a0,0x10
    4c88:	4103d993          	srai	s3,t2,0x10
    4c8c:	f6061ae3          	bnez	a2,4c00 <cmp_complex+0xdc>
    4c90:	02a41f23          	sh	a0,62(s0)
    4c94:	f6dff06f          	j	4c00 <cmp_complex+0xdc>
    4c98:	02200693          	li	a3,34
    4c9c:	03865783          	lhu	a5,56(a2)
    4ca0:	00058393          	mv	t2,a1
    4ca4:	00d5d463          	bge	a1,a3,4cac <cmp_complex+0x188>
    4ca8:	02200393          	li	t2,34
    4cac:	00041603          	lh	a2,0(s0)
    4cb0:	00241683          	lh	a3,2(s0)
    4cb4:	01442583          	lw	a1,20(s0)
    4cb8:	01842503          	lw	a0,24(s0)
    4cbc:	0ff3f713          	andi	a4,t2,255
    4cc0:	f84fe0ef          	jal	ra,3444 <core_bench_state>
    4cc4:	03e45603          	lhu	a2,62(s0)
    4cc8:	01051a13          	slli	s4,a0,0x10
    4ccc:	410a5a13          	srai	s4,s4,0x10
    4cd0:	ea061ee3          	bnez	a2,4b8c <cmp_complex+0x68>
    4cd4:	02a41f23          	sh	a0,62(s0)
    4cd8:	eb5ff06f          	j	4b8c <cmp_complex+0x68>
    4cdc:	03865603          	lhu	a2,56(a2)
    4ce0:	02840513          	addi	a0,s0,40
    4ce4:	6290b0ef          	jal	ra,10b0c <core_bench_matrix>
    4ce8:	03c45883          	lhu	a7,60(s0)
    4cec:	01051813          	slli	a6,a0,0x10
    4cf0:	41085a13          	srai	s4,a6,0x10
    4cf4:	e8089ce3          	bnez	a7,4b8c <cmp_complex+0x68>
    4cf8:	02a41e23          	sh	a0,60(s0)
    4cfc:	e91ff06f          	j	4b8c <cmp_complex+0x68>

00004d00 <cmp_idx>:
    4d00:	00060a63          	beqz	a2,4d14 <cmp_idx+0x14>
    4d04:	00251503          	lh	a0,2(a0)
    4d08:	00259583          	lh	a1,2(a1)
    4d0c:	40b50533          	sub	a0,a0,a1
    4d10:	00008067          	ret
    4d14:	00051783          	lh	a5,0(a0)
    4d18:	01079293          	slli	t0,a5,0x10
    4d1c:	0102d313          	srli	t1,t0,0x10
    4d20:	f007f713          	andi	a4,a5,-256
    4d24:	00835393          	srli	t2,t1,0x8
    4d28:	00776633          	or	a2,a4,t2
    4d2c:	00c51023          	sh	a2,0(a0)
    4d30:	00059683          	lh	a3,0(a1)
    4d34:	00251503          	lh	a0,2(a0)
    4d38:	01069893          	slli	a7,a3,0x10
    4d3c:	0108de13          	srli	t3,a7,0x10
    4d40:	f006f813          	andi	a6,a3,-256
    4d44:	008e5e93          	srli	t4,t3,0x8
    4d48:	01d86f33          	or	t5,a6,t4
    4d4c:	01e59023          	sh	t5,0(a1)
    4d50:	00259583          	lh	a1,2(a1)
    4d54:	40b50533          	sub	a0,a0,a1
    4d58:	00008067          	ret

00004d5c <copy_info>:
    4d5c:	00059783          	lh	a5,0(a1)
    4d60:	00259283          	lh	t0,2(a1)
    4d64:	00f51023          	sh	a5,0(a0)
    4d68:	00551123          	sh	t0,2(a0)
    4d6c:	00008067          	ret

00004d70 <core_bench_list>:
    4d70:	00451e83          	lh	t4,4(a0)
    4d74:	fa010113          	addi	sp,sp,-96
    4d78:	04812c23          	sw	s0,88(sp)
    4d7c:	03a12823          	sw	s10,48(sp)
    4d80:	04112e23          	sw	ra,92(sp)
    4d84:	04912a23          	sw	s1,84(sp)
    4d88:	05212823          	sw	s2,80(sp)
    4d8c:	05312623          	sw	s3,76(sp)
    4d90:	05412423          	sw	s4,72(sp)
    4d94:	05512223          	sw	s5,68(sp)
    4d98:	05612023          	sw	s6,64(sp)
    4d9c:	03712e23          	sw	s7,60(sp)
    4da0:	03812c23          	sw	s8,56(sp)
    4da4:	03912a23          	sw	s9,52(sp)
    4da8:	03b12623          	sw	s11,44(sp)
    4dac:	00012a23          	sw	zero,20(sp)
    4db0:	00b12623          	sw	a1,12(sp)
    4db4:	02452403          	lw	s0,36(a0)
    4db8:	00050d13          	mv	s10,a0
    4dbc:	00058893          	mv	a7,a1
    4dc0:	1bd05ce3          	blez	t4,5778 <core_bench_list+0xa08>
    4dc4:	00000513          	li	a0,0
    4dc8:	00000e13          	li	t3,0
    4dcc:	00000f13          	li	t5,0
    4dd0:	00000313          	li	t1,0
    4dd4:	00c12083          	lw	ra,12(sp)
    4dd8:	0ff57793          	andi	a5,a0,255
    4ddc:	00f12a23          	sw	a5,20(sp)
    4de0:	4a00c063          	bltz	ra,5280 <core_bench_list+0x510>
    4de4:	18040ee3          	beqz	s0,5780 <core_bench_list+0xa10>
    4de8:	00040393          	mv	t2,s0
    4dec:	00c0006f          	j	4df8 <core_bench_list+0x88>
    4df0:	0003a383          	lw	t2,0(t2)
    4df4:	00038a63          	beqz	t2,4e08 <core_bench_list+0x98>
    4df8:	0043a483          	lw	s1,4(t2)
    4dfc:	00c12603          	lw	a2,12(sp)
    4e00:	00249583          	lh	a1,2(s1)
    4e04:	fec596e3          	bne	a1,a2,4df0 <core_bench_list+0x80>
    4e08:	00042903          	lw	s2,0(s0)
    4e0c:	00000693          	li	a3,0
    4e10:	00d42023          	sw	a3,0(s0)
    4e14:	0a090263          	beqz	s2,4eb8 <core_bench_list+0x148>
    4e18:	00092983          	lw	s3,0(s2)
    4e1c:	00040693          	mv	a3,s0
    4e20:	00d92023          	sw	a3,0(s2)
    4e24:	00090413          	mv	s0,s2
    4e28:	08098863          	beqz	s3,4eb8 <core_bench_list+0x148>
    4e2c:	0009aa03          	lw	s4,0(s3)
    4e30:	0129a023          	sw	s2,0(s3)
    4e34:	00090693          	mv	a3,s2
    4e38:	00098413          	mv	s0,s3
    4e3c:	060a0e63          	beqz	s4,4eb8 <core_bench_list+0x148>
    4e40:	000a2a83          	lw	s5,0(s4)
    4e44:	013a2023          	sw	s3,0(s4)
    4e48:	00098693          	mv	a3,s3
    4e4c:	000a0413          	mv	s0,s4
    4e50:	060a8463          	beqz	s5,4eb8 <core_bench_list+0x148>
    4e54:	000aab03          	lw	s6,0(s5)
    4e58:	014aa023          	sw	s4,0(s5)
    4e5c:	000a0693          	mv	a3,s4
    4e60:	000a8413          	mv	s0,s5
    4e64:	040b0a63          	beqz	s6,4eb8 <core_bench_list+0x148>
    4e68:	000b2b83          	lw	s7,0(s6)
    4e6c:	015b2023          	sw	s5,0(s6)
    4e70:	000a8693          	mv	a3,s5
    4e74:	000b0413          	mv	s0,s6
    4e78:	040b8063          	beqz	s7,4eb8 <core_bench_list+0x148>
    4e7c:	000bac03          	lw	s8,0(s7)
    4e80:	016ba023          	sw	s6,0(s7)
    4e84:	000b0693          	mv	a3,s6
    4e88:	000b8413          	mv	s0,s7
    4e8c:	020c0663          	beqz	s8,4eb8 <core_bench_list+0x148>
    4e90:	000c2c83          	lw	s9,0(s8)
    4e94:	017c2023          	sw	s7,0(s8)
    4e98:	000b8693          	mv	a3,s7
    4e9c:	000c0413          	mv	s0,s8
    4ea0:	000c8c63          	beqz	s9,4eb8 <core_bench_list+0x148>
    4ea4:	000c8413          	mv	s0,s9
    4ea8:	00042903          	lw	s2,0(s0)
    4eac:	000c0693          	mv	a3,s8
    4eb0:	00d42023          	sw	a3,0(s0)
    4eb4:	f60912e3          	bnez	s2,4e18 <core_bench_list+0xa8>
    4eb8:	3e038863          	beqz	t2,52a8 <core_bench_list+0x538>
    4ebc:	0043af83          	lw	t6,4(t2)
    4ec0:	001f0813          	addi	a6,t5,1
    4ec4:	01081d93          	slli	s11,a6,0x10
    4ec8:	000f9783          	lh	a5,0(t6)
    4ecc:	010ddf13          	srli	t5,s11,0x10
    4ed0:	0017f093          	andi	ra,a5,1
    4ed4:	00008c63          	beqz	ra,4eec <core_bench_list+0x17c>
    4ed8:	4097d713          	srai	a4,a5,0x9
    4edc:	00177293          	andi	t0,a4,1
    4ee0:	00530333          	add	t1,t1,t0
    4ee4:	01031693          	slli	a3,t1,0x10
    4ee8:	0106d313          	srli	t1,a3,0x10
    4eec:	0003a483          	lw	s1,0(t2)
    4ef0:	00048c63          	beqz	s1,4f08 <core_bench_list+0x198>
    4ef4:	0004a583          	lw	a1,0(s1)
    4ef8:	00b3a023          	sw	a1,0(t2)
    4efc:	00042383          	lw	t2,0(s0)
    4f00:	0074a023          	sw	t2,0(s1)
    4f04:	00942023          	sw	s1,0(s0)
    4f08:	00c12b83          	lw	s7,12(sp)
    4f0c:	000bca63          	bltz	s7,4f20 <core_bench_list+0x1b0>
    4f10:	001b8c13          	addi	s8,s7,1
    4f14:	010c1c93          	slli	s9,s8,0x10
    4f18:	410cd813          	srai	a6,s9,0x10
    4f1c:	01012623          	sw	a6,12(sp)
    4f20:	00150513          	addi	a0,a0,1
    4f24:	01051d93          	slli	s11,a0,0x10
    4f28:	410dd513          	srai	a0,s11,0x10
    4f2c:	eaae94e3          	bne	t4,a0,4dd4 <core_bench_list+0x64>
    4f30:	002f1e93          	slli	t4,t5,0x2
    4f34:	41ce8f33          	sub	t5,t4,t3
    4f38:	01e30fb3          	add	t6,t1,t5
    4f3c:	010f9793          	slli	a5,t6,0x10
    4f40:	0107d093          	srli	ra,a5,0x10
    4f44:	00112c23          	sw	ra,24(sp)
    4f48:	4f104063          	bgtz	a7,5428 <core_bench_list+0x6b8>
    4f4c:	00042d03          	lw	s10,0(s0)
    4f50:	00c12f03          	lw	t5,12(sp)
    4f54:	00040493          	mv	s1,s0
    4f58:	000d2983          	lw	s3,0(s10)
    4f5c:	004d2883          	lw	a7,4(s10)
    4f60:	0049a503          	lw	a0,4(s3)
    4f64:	0009ae83          	lw	t4,0(s3)
    4f68:	00ad2223          	sw	a0,4(s10)
    4f6c:	0119a223          	sw	a7,4(s3)
    4f70:	01dd2023          	sw	t4,0(s10)
    4f74:	0009a023          	sw	zero,0(s3)
    4f78:	2e0f4263          	bltz	t5,525c <core_bench_list+0x4ec>
    4f7c:	0044a703          	lw	a4,4(s1)
    4f80:	00c12683          	lw	a3,12(sp)
    4f84:	00271283          	lh	t0,2(a4) # 810002 <_global_impure_ptr+0x7f7006>
    4f88:	00d28a63          	beq	t0,a3,4f9c <core_bench_list+0x22c>
    4f8c:	0004a483          	lw	s1,0(s1)
    4f90:	fe0496e3          	bnez	s1,4f7c <core_bench_list+0x20c>
    4f94:	00042483          	lw	s1,0(s0)
    4f98:	0e048663          	beqz	s1,5084 <core_bench_list+0x314>
    4f9c:	00442303          	lw	t1,4(s0)
    4fa0:	01812583          	lw	a1,24(sp)
    4fa4:	00031503          	lh	a0,0(t1)
    4fa8:	fa5fb0ef          	jal	ra,f4c <crc16>
    4fac:	0004a483          	lw	s1,0(s1)
    4fb0:	00a12c23          	sw	a0,24(sp)
    4fb4:	0c048463          	beqz	s1,507c <core_bench_list+0x30c>
    4fb8:	00442383          	lw	t2,4(s0)
    4fbc:	01812583          	lw	a1,24(sp)
    4fc0:	00039503          	lh	a0,0(t2)
    4fc4:	f89fb0ef          	jal	ra,f4c <crc16>
    4fc8:	0004a903          	lw	s2,0(s1)
    4fcc:	00a12c23          	sw	a0,24(sp)
    4fd0:	00050593          	mv	a1,a0
    4fd4:	0a090463          	beqz	s2,507c <core_bench_list+0x30c>
    4fd8:	00442603          	lw	a2,4(s0)
    4fdc:	00061503          	lh	a0,0(a2)
    4fe0:	f6dfb0ef          	jal	ra,f4c <crc16>
    4fe4:	00092a83          	lw	s5,0(s2)
    4fe8:	00a12c23          	sw	a0,24(sp)
    4fec:	00050593          	mv	a1,a0
    4ff0:	080a8663          	beqz	s5,507c <core_bench_list+0x30c>
    4ff4:	00442e03          	lw	t3,4(s0)
    4ff8:	000e1503          	lh	a0,0(t3)
    4ffc:	f51fb0ef          	jal	ra,f4c <crc16>
    5000:	000aab03          	lw	s6,0(s5)
    5004:	00a12c23          	sw	a0,24(sp)
    5008:	00050593          	mv	a1,a0
    500c:	060b0863          	beqz	s6,507c <core_bench_list+0x30c>
    5010:	00442b83          	lw	s7,4(s0)
    5014:	000b9503          	lh	a0,0(s7)
    5018:	f35fb0ef          	jal	ra,f4c <crc16>
    501c:	000b2c83          	lw	s9,0(s6)
    5020:	00a12c23          	sw	a0,24(sp)
    5024:	00050593          	mv	a1,a0
    5028:	040c8a63          	beqz	s9,507c <core_bench_list+0x30c>
    502c:	00442803          	lw	a6,4(s0)
    5030:	00081503          	lh	a0,0(a6)
    5034:	f19fb0ef          	jal	ra,f4c <crc16>
    5038:	000caa03          	lw	s4,0(s9)
    503c:	00a12c23          	sw	a0,24(sp)
    5040:	00050593          	mv	a1,a0
    5044:	020a0c63          	beqz	s4,507c <core_bench_list+0x30c>
    5048:	00442c03          	lw	s8,4(s0)
    504c:	000c1503          	lh	a0,0(s8)
    5050:	efdfb0ef          	jal	ra,f4c <crc16>
    5054:	000a2d83          	lw	s11,0(s4)
    5058:	00a12c23          	sw	a0,24(sp)
    505c:	00050593          	mv	a1,a0
    5060:	000d8e63          	beqz	s11,507c <core_bench_list+0x30c>
    5064:	00442d03          	lw	s10,4(s0)
    5068:	000d1503          	lh	a0,0(s10)
    506c:	ee1fb0ef          	jal	ra,f4c <crc16>
    5070:	000da483          	lw	s1,0(s11)
    5074:	00a12c23          	sw	a0,24(sp)
    5078:	f20492e3          	bnez	s1,4f9c <core_bench_list+0x22c>
    507c:	00042483          	lw	s1,0(s0)
    5080:	0049a883          	lw	a7,4(s3)
    5084:	0044a583          	lw	a1,4(s1)
    5088:	0004a503          	lw	a0,0(s1)
    508c:	00100313          	li	t1,1
    5090:	00b9a223          	sw	a1,4(s3)
    5094:	0114a223          	sw	a7,4(s1)
    5098:	00a9a023          	sw	a0,0(s3)
    509c:	0134a023          	sw	s3,0(s1)
    50a0:	00000693          	li	a3,0
    50a4:	00000913          	li	s2,0
    50a8:	00000a93          	li	s5,0
    50ac:	00100e93          	li	t4,1
    50b0:	00737f13          	andi	t5,t1,7
    50b4:	001a8a93          	addi	s5,s5,1
    50b8:	00040793          	mv	a5,s0
    50bc:	00000613          	li	a2,0
    50c0:	080f0663          	beqz	t5,514c <core_bench_list+0x3dc>
    50c4:	00100f93          	li	t6,1
    50c8:	07ff0a63          	beq	t5,t6,513c <core_bench_list+0x3cc>
    50cc:	00200093          	li	ra,2
    50d0:	061f0063          	beq	t5,ra,5130 <core_bench_list+0x3c0>
    50d4:	00300893          	li	a7,3
    50d8:	051f0663          	beq	t5,a7,5124 <core_bench_list+0x3b4>
    50dc:	00400993          	li	s3,4
    50e0:	033f0c63          	beq	t5,s3,5118 <core_bench_list+0x3a8>
    50e4:	00500713          	li	a4,5
    50e8:	02ef0263          	beq	t5,a4,510c <core_bench_list+0x39c>
    50ec:	00600293          	li	t0,6
    50f0:	005f0863          	beq	t5,t0,5100 <core_bench_list+0x390>
    50f4:	00042783          	lw	a5,0(s0)
    50f8:	00100613          	li	a2,1
    50fc:	0a078a63          	beqz	a5,51b0 <core_bench_list+0x440>
    5100:	0007a783          	lw	a5,0(a5)
    5104:	00160613          	addi	a2,a2,1
    5108:	0a078463          	beqz	a5,51b0 <core_bench_list+0x440>
    510c:	0007a783          	lw	a5,0(a5)
    5110:	00160613          	addi	a2,a2,1
    5114:	08078e63          	beqz	a5,51b0 <core_bench_list+0x440>
    5118:	0007a783          	lw	a5,0(a5)
    511c:	00160613          	addi	a2,a2,1
    5120:	08078863          	beqz	a5,51b0 <core_bench_list+0x440>
    5124:	0007a783          	lw	a5,0(a5)
    5128:	00160613          	addi	a2,a2,1
    512c:	08078263          	beqz	a5,51b0 <core_bench_list+0x440>
    5130:	0007a783          	lw	a5,0(a5)
    5134:	00160613          	addi	a2,a2,1
    5138:	06078c63          	beqz	a5,51b0 <core_bench_list+0x440>
    513c:	0007a783          	lw	a5,0(a5)
    5140:	00160613          	addi	a2,a2,1
    5144:	06078663          	beqz	a5,51b0 <core_bench_list+0x440>
    5148:	06c30463          	beq	t1,a2,51b0 <core_bench_list+0x440>
    514c:	0007a783          	lw	a5,0(a5)
    5150:	00160613          	addi	a2,a2,1
    5154:	00060393          	mv	t2,a2
    5158:	04078c63          	beqz	a5,51b0 <core_bench_list+0x440>
    515c:	0007a783          	lw	a5,0(a5)
    5160:	00160613          	addi	a2,a2,1
    5164:	04078663          	beqz	a5,51b0 <core_bench_list+0x440>
    5168:	0007a783          	lw	a5,0(a5)
    516c:	00238613          	addi	a2,t2,2
    5170:	04078063          	beqz	a5,51b0 <core_bench_list+0x440>
    5174:	0007a783          	lw	a5,0(a5)
    5178:	00338613          	addi	a2,t2,3
    517c:	02078a63          	beqz	a5,51b0 <core_bench_list+0x440>
    5180:	0007a783          	lw	a5,0(a5)
    5184:	00438613          	addi	a2,t2,4
    5188:	02078463          	beqz	a5,51b0 <core_bench_list+0x440>
    518c:	0007a783          	lw	a5,0(a5)
    5190:	00538613          	addi	a2,t2,5
    5194:	00078e63          	beqz	a5,51b0 <core_bench_list+0x440>
    5198:	0007a783          	lw	a5,0(a5)
    519c:	00638613          	addi	a2,t2,6
    51a0:	00078863          	beqz	a5,51b0 <core_bench_list+0x440>
    51a4:	0007a783          	lw	a5,0(a5)
    51a8:	00738613          	addi	a2,t2,7
    51ac:	f8079ee3          	bnez	a5,5148 <core_bench_list+0x3d8>
    51b0:	00030593          	mv	a1,t1
    51b4:	06060c63          	beqz	a2,522c <core_bench_list+0x4bc>
    51b8:	10058c63          	beqz	a1,52d0 <core_bench_list+0x560>
    51bc:	10078a63          	beqz	a5,52d0 <core_bench_list+0x560>
    51c0:	00442f03          	lw	t5,4(s0)
    51c4:	0047af83          	lw	t6,4(a5)
    51c8:	000f1083          	lh	ra,0(t5)
    51cc:	002f1d83          	lh	s11,2(t5)
    51d0:	002f9d03          	lh	s10,2(t6)
    51d4:	01009713          	slli	a4,ra,0x10
    51d8:	01075293          	srli	t0,a4,0x10
    51dc:	f000f893          	andi	a7,ra,-256
    51e0:	0082d393          	srli	t2,t0,0x8
    51e4:	0078ee33          	or	t3,a7,t2
    51e8:	01cf1023          	sh	t3,0(t5)
    51ec:	000f9b03          	lh	s6,0(t6)
    51f0:	41ad84b3          	sub	s1,s11,s10
    51f4:	010b1c93          	slli	s9,s6,0x10
    51f8:	010cd813          	srli	a6,s9,0x10
    51fc:	f00b7b93          	andi	s7,s6,-256
    5200:	00885a13          	srli	s4,a6,0x8
    5204:	014bec33          	or	s8,s7,s4
    5208:	018f9023          	sh	s8,0(t6)
    520c:	0c905263          	blez	s1,52d0 <core_bench_list+0x560>
    5210:	00078513          	mv	a0,a5
    5214:	fff58593          	addi	a1,a1,-1
    5218:	0007a783          	lw	a5,0(a5)
    521c:	0c068263          	beqz	a3,52e0 <core_bench_list+0x570>
    5220:	00a6a023          	sw	a0,0(a3)
    5224:	00050693          	mv	a3,a0
    5228:	f80618e3          	bnez	a2,51b8 <core_bench_list+0x448>
    522c:	0c058063          	beqz	a1,52ec <core_bench_list+0x57c>
    5230:	fe0790e3          	bnez	a5,5210 <core_bench_list+0x4a0>
    5234:	0006a023          	sw	zero,0(a3)
    5238:	0dda8463          	beq	s5,t4,5300 <core_bench_list+0x590>
    523c:	00131313          	slli	t1,t1,0x1
    5240:	0a090c63          	beqz	s2,52f8 <core_bench_list+0x588>
    5244:	00090793          	mv	a5,s2
    5248:	00000a93          	li	s5,0
    524c:	00000693          	li	a3,0
    5250:	00000913          	li	s2,0
    5254:	00078413          	mv	s0,a5
    5258:	e59ff06f          	j	50b0 <core_bench_list+0x340>
    525c:	0044af83          	lw	t6,4(s1)
    5260:	01412083          	lw	ra,20(sp)
    5264:	000fc783          	lbu	a5,0(t6)
    5268:	d2178ae3          	beq	a5,ra,4f9c <core_bench_list+0x22c>
    526c:	0004a483          	lw	s1,0(s1)
    5270:	fe0496e3          	bnez	s1,525c <core_bench_list+0x4ec>
    5274:	00042483          	lw	s1,0(s0)
    5278:	d20492e3          	bnez	s1,4f9c <core_bench_list+0x22c>
    527c:	e09ff06f          	j	5084 <core_bench_list+0x314>
    5280:	50040063          	beqz	s0,5780 <core_bench_list+0xa10>
    5284:	00040393          	mv	t2,s0
    5288:	00c0006f          	j	5294 <core_bench_list+0x524>
    528c:	0003a383          	lw	t2,0(t2)
    5290:	b6038ce3          	beqz	t2,4e08 <core_bench_list+0x98>
    5294:	0043a703          	lw	a4,4(t2)
    5298:	01412683          	lw	a3,20(sp)
    529c:	00074283          	lbu	t0,0(a4)
    52a0:	fed296e3          	bne	t0,a3,528c <core_bench_list+0x51c>
    52a4:	b65ff06f          	j	4e08 <core_bench_list+0x98>
    52a8:	0046a903          	lw	s2,4(a3)
    52ac:	001e0613          	addi	a2,t3,1
    52b0:	01061e13          	slli	t3,a2,0x10
    52b4:	00190983          	lb	s3,1(s2)
    52b8:	010e5e13          	srli	t3,t3,0x10
