
E:/个人文件/论文paper/SoftwareX/CFIEE/elf_files/crc_new_main.elf:     file format elf32-littleriscv


Disassembly of section .text:

00000000 <__start>:
       0:	200c0117          	auipc	sp,0x200c0
       4:	ff810113          	addi	sp,sp,-8 # 200bfff8 <__kernel_stack>
       8:	00005197          	auipc	gp,0x5
       c:	9e818193          	addi	gp,gp,-1560 # 49f0 <__erodata>
      10:	20000217          	auipc	tp,0x20000
      14:	ff020213          	addi	tp,tp,-16 # 20000000 <uart0>
      18:	20000297          	auipc	t0,0x20000
      1c:	00828293          	addi	t0,t0,8 # 20000020 <icrctb.2>
      20:	404282b3          	sub	t0,t0,tp
      24:	00028b63          	beqz	t0,3a <L_loop0_done>

00000028 <L_loop0>:
      28:	0001a303          	lw	t1,0(gp)
      2c:	00622023          	sw	t1,0(tp) # 0 <__start>
      30:	0191                	addi	gp,gp,4
      32:	0211                	addi	tp,tp,4
      34:	12f1                	addi	t0,t0,-4
      36:	fe0299e3          	bnez	t0,28 <L_loop0>

0000003a <L_loop0_done>:
      3a:	20000197          	auipc	gp,0x20000
      3e:	fe618193          	addi	gp,gp,-26 # 20000020 <icrctb.2>
      42:	20000217          	auipc	tp,0x20000
      46:	fde20213          	addi	tp,tp,-34 # 20000020 <icrctb.2>
      4a:	4281                	li	t0,0
      4c:	40320233          	sub	tp,tp,gp
      50:	00020863          	beqz	tp,60 <L_loop1_done>

00000054 <L_loop1>:
      54:	0051a023          	sw	t0,0(gp)
      58:	0191                	addi	gp,gp,4
      5a:	1271                	addi	tp,tp,-4
      5c:	fe021ce3          	bnez	tp,54 <L_loop1>

00000060 <L_loop1_done>:
      60:	00000197          	auipc	gp,0x0
      64:	0e018193          	addi	gp,gp,224 # 140 <trap_handler>
      68:	30519073          	csrw	mtvec,gp
      6c:	00000197          	auipc	gp,0x0
      70:	11418193          	addi	gp,gp,276 # 180 <vector_table>
      74:	04018193          	addi	gp,gp,64
      78:	30719073          	csrw	mtvt,gp
      7c:	effff7b7          	lui	a5,0xeffff
      80:	00020837          	lui	a6,0x20
      84:	0107a023          	sw	a6,0(a5) # effff000 <__kernel_stack+0xcff3f008>
      88:	48b1                	li	a7,12
      8a:	0117a223          	sw	a7,4(a5)
      8e:	00040837          	lui	a6,0x40
      92:	48b1                	li	a7,12
      94:	0107a423          	sw	a6,8(a5)
      98:	0117a623          	sw	a7,12(a5)
      9c:	00050837          	lui	a6,0x50
      a0:	48c1                	li	a7,16
      a2:	0107a823          	sw	a6,16(a5)
      a6:	0117aa23          	sw	a7,20(a5)
      aa:	400117b7          	lui	a5,0x40011
      ae:	0ff00813          	li	a6,255
      b2:	0107a023          	sw	a6,0(a5) # 40011000 <__kernel_stack+0x1ff51008>
      b6:	480d                	li	a6,3
      b8:	0107a423          	sw	a6,8(a5)
      bc:	0047a803          	lw	a6,4(a5)
      c0:	08800193          	li	gp,136
      c4:	30019073          	csrw	mstatus,gp
      c8:	6189                	lui	gp,0x2
      ca:	3001a073          	csrs	mstatus,gp
      ce:	6185                	lui	gp,0x1
      d0:	03f18193          	addi	gp,gp,63 # 103f <_ftoa+0x4f>
      d4:	7c119073          	csrw	mhcr,gp
      d8:	6191                	lui	gp,0x4
      da:	01b1                	addi	gp,gp,12
      dc:	7c519073          	csrw	mhint,gp

000000e0 <__to_main>:
      e0:	684000ef          	jal	ra,764 <main>

000000e4 <__exit>:
      e4:	0000100f          	fence.i
      e8:	0ff0000f          	fence
      ec:	60010237          	lui	tp,0x60010
      f0:	1261                	addi	tp,tp,-8
      f2:	0ff00193          	li	gp,255
      f6:	0192                	slli	gp,gp,0x4
      f8:	01bd                	addi	gp,gp,15
      fa:	00322023          	sw	gp,0(tp) # 60010000 <__kernel_stack+0x3ff50008>

000000fe <__fail>:
      fe:	0000100f          	fence.i
     102:	0ff0000f          	fence
     106:	60010237          	lui	tp,0x60010
     10a:	1261                	addi	tp,tp,-8
     10c:	0ee00193          	li	gp,238
     110:	0192                	slli	gp,gp,0x4
     112:	01b9                	addi	gp,gp,14
     114:	00322023          	sw	gp,0(tp) # 60010000 <__kernel_stack+0x3ff50008>
     118:	00000013          	nop
     11c:	00000013          	nop
     120:	00000013          	nop
     124:	00000013          	nop
     128:	00000013          	nop
     12c:	00000013          	nop
     130:	00000013          	nop
     134:	00000013          	nop
     138:	00000013          	nop
     13c:	00000013          	nop

00000140 <trap_handler>:
     140:	a019                	j	146 <__synchronous_exception>
     142:	0001                	nop
     144:	bf6d                	j	fe <__fail>

00000146 <__synchronous_exception>:
     146:	fed12e23          	sw	a3,-4(sp)
     14a:	fee12c23          	sw	a4,-8(sp)
     14e:	fef12a23          	sw	a5,-12(sp)
     152:	34202773          	csrr	a4,mcause
     156:	0ff77793          	andi	a5,a4,255
     15a:	836d                	srli	a4,a4,0x1b
     15c:	8b41                	andi	a4,a4,16
     15e:	973e                	add	a4,a4,a5
     160:	070a                	slli	a4,a4,0x2
     162:	00000797          	auipc	a5,0x0
     166:	01e78793          	addi	a5,a5,30 # 180 <vector_table>
     16a:	97ba                	add	a5,a5,a4
     16c:	4398                	lw	a4,0(a5)
     16e:	ffc12683          	lw	a3,-4(sp)
     172:	ff412783          	lw	a5,-12(sp)
     176:	8702                	jr	a4
     178:	00000013          	nop
     17c:	00000013          	nop

00000180 <vector_table>:
     180:	0580                	addi	s0,sp,704
     182:	0000                	unimp
     184:	0580                	addi	s0,sp,704
     186:	0000                	unimp
     188:	0580                	addi	s0,sp,704
     18a:	0000                	unimp
     18c:	0580                	addi	s0,sp,704
     18e:	0000                	unimp
     190:	0580                	addi	s0,sp,704
     192:	0000                	unimp
     194:	0580                	addi	s0,sp,704
     196:	0000                	unimp
     198:	0580                	addi	s0,sp,704
     19a:	0000                	unimp
     19c:	0580                	addi	s0,sp,704
     19e:	0000                	unimp
     1a0:	0580                	addi	s0,sp,704
     1a2:	0000                	unimp
     1a4:	0580                	addi	s0,sp,704
     1a6:	0000                	unimp
     1a8:	0580                	addi	s0,sp,704
     1aa:	0000                	unimp
     1ac:	0580                	addi	s0,sp,704
     1ae:	0000                	unimp
     1b0:	0580                	addi	s0,sp,704
     1b2:	0000                	unimp
     1b4:	0580                	addi	s0,sp,704
     1b6:	0000                	unimp
     1b8:	0580                	addi	s0,sp,704
     1ba:	0000                	unimp
     1bc:	0580                	addi	s0,sp,704
     1be:	0000                	unimp
     1c0:	0580                	addi	s0,sp,704
     1c2:	0000                	unimp
     1c4:	0580                	addi	s0,sp,704
     1c6:	0000                	unimp
     1c8:	0580                	addi	s0,sp,704
     1ca:	0000                	unimp
     1cc:	0580                	addi	s0,sp,704
     1ce:	0000                	unimp
     1d0:	0580                	addi	s0,sp,704
     1d2:	0000                	unimp
     1d4:	0580                	addi	s0,sp,704
     1d6:	0000                	unimp
     1d8:	0580                	addi	s0,sp,704
     1da:	0000                	unimp
     1dc:	0580                	addi	s0,sp,704
     1de:	0000                	unimp
     1e0:	0580                	addi	s0,sp,704
     1e2:	0000                	unimp
     1e4:	0580                	addi	s0,sp,704
     1e6:	0000                	unimp
     1e8:	0580                	addi	s0,sp,704
     1ea:	0000                	unimp
     1ec:	0580                	addi	s0,sp,704
     1ee:	0000                	unimp
     1f0:	0580                	addi	s0,sp,704
     1f2:	0000                	unimp
     1f4:	0580                	addi	s0,sp,704
     1f6:	0000                	unimp
     1f8:	0580                	addi	s0,sp,704
     1fa:	0000                	unimp
     1fc:	0580                	addi	s0,sp,704
     1fe:	0000                	unimp
     200:	0580                	addi	s0,sp,704
     202:	0000                	unimp
     204:	0580                	addi	s0,sp,704
     206:	0000                	unimp
     208:	0580                	addi	s0,sp,704
     20a:	0000                	unimp
     20c:	0580                	addi	s0,sp,704
     20e:	0000                	unimp
     210:	0580                	addi	s0,sp,704
     212:	0000                	unimp
     214:	0580                	addi	s0,sp,704
     216:	0000                	unimp
     218:	0580                	addi	s0,sp,704
     21a:	0000                	unimp
     21c:	0580                	addi	s0,sp,704
     21e:	0000                	unimp
     220:	0580                	addi	s0,sp,704
     222:	0000                	unimp
     224:	0580                	addi	s0,sp,704
     226:	0000                	unimp
     228:	0580                	addi	s0,sp,704
     22a:	0000                	unimp
     22c:	0580                	addi	s0,sp,704
     22e:	0000                	unimp
     230:	0580                	addi	s0,sp,704
     232:	0000                	unimp
     234:	0580                	addi	s0,sp,704
     236:	0000                	unimp
     238:	0580                	addi	s0,sp,704
     23a:	0000                	unimp
     23c:	0580                	addi	s0,sp,704
     23e:	0000                	unimp
     240:	0580                	addi	s0,sp,704
     242:	0000                	unimp
     244:	0580                	addi	s0,sp,704
     246:	0000                	unimp
     248:	0580                	addi	s0,sp,704
     24a:	0000                	unimp
     24c:	0580                	addi	s0,sp,704
     24e:	0000                	unimp
     250:	0580                	addi	s0,sp,704
     252:	0000                	unimp
     254:	0580                	addi	s0,sp,704
     256:	0000                	unimp
     258:	0580                	addi	s0,sp,704
     25a:	0000                	unimp
     25c:	0580                	addi	s0,sp,704
     25e:	0000                	unimp
     260:	0580                	addi	s0,sp,704
     262:	0000                	unimp
     264:	0580                	addi	s0,sp,704
     266:	0000                	unimp
     268:	0580                	addi	s0,sp,704
     26a:	0000                	unimp
     26c:	0580                	addi	s0,sp,704
     26e:	0000                	unimp
     270:	0580                	addi	s0,sp,704
     272:	0000                	unimp
     274:	0580                	addi	s0,sp,704
     276:	0000                	unimp
     278:	0580                	addi	s0,sp,704
     27a:	0000                	unimp
     27c:	0580                	addi	s0,sp,704
     27e:	0000                	unimp
     280:	0580                	addi	s0,sp,704
     282:	0000                	unimp
     284:	0580                	addi	s0,sp,704
     286:	0000                	unimp
     288:	0580                	addi	s0,sp,704
     28a:	0000                	unimp
     28c:	0580                	addi	s0,sp,704
     28e:	0000                	unimp
     290:	0580                	addi	s0,sp,704
     292:	0000                	unimp
     294:	0580                	addi	s0,sp,704
     296:	0000                	unimp
     298:	0580                	addi	s0,sp,704
     29a:	0000                	unimp
     29c:	0580                	addi	s0,sp,704
     29e:	0000                	unimp
     2a0:	0580                	addi	s0,sp,704
     2a2:	0000                	unimp
     2a4:	0580                	addi	s0,sp,704
     2a6:	0000                	unimp
     2a8:	0580                	addi	s0,sp,704
     2aa:	0000                	unimp
     2ac:	0580                	addi	s0,sp,704
     2ae:	0000                	unimp
     2b0:	0580                	addi	s0,sp,704
     2b2:	0000                	unimp
     2b4:	0580                	addi	s0,sp,704
     2b6:	0000                	unimp
     2b8:	0580                	addi	s0,sp,704
     2ba:	0000                	unimp
     2bc:	0580                	addi	s0,sp,704
     2be:	0000                	unimp
     2c0:	0580                	addi	s0,sp,704
     2c2:	0000                	unimp
     2c4:	0580                	addi	s0,sp,704
     2c6:	0000                	unimp
     2c8:	0580                	addi	s0,sp,704
     2ca:	0000                	unimp
     2cc:	0580                	addi	s0,sp,704
     2ce:	0000                	unimp
     2d0:	0580                	addi	s0,sp,704
     2d2:	0000                	unimp
     2d4:	0580                	addi	s0,sp,704
     2d6:	0000                	unimp
     2d8:	0580                	addi	s0,sp,704
     2da:	0000                	unimp
     2dc:	0580                	addi	s0,sp,704
     2de:	0000                	unimp
     2e0:	0580                	addi	s0,sp,704
     2e2:	0000                	unimp
     2e4:	0580                	addi	s0,sp,704
     2e6:	0000                	unimp
     2e8:	0580                	addi	s0,sp,704
     2ea:	0000                	unimp
     2ec:	0580                	addi	s0,sp,704
     2ee:	0000                	unimp
     2f0:	0580                	addi	s0,sp,704
     2f2:	0000                	unimp
     2f4:	0580                	addi	s0,sp,704
     2f6:	0000                	unimp
     2f8:	0580                	addi	s0,sp,704
     2fa:	0000                	unimp
     2fc:	0580                	addi	s0,sp,704
     2fe:	0000                	unimp
     300:	0580                	addi	s0,sp,704
     302:	0000                	unimp
     304:	0580                	addi	s0,sp,704
     306:	0000                	unimp
     308:	0580                	addi	s0,sp,704
     30a:	0000                	unimp
     30c:	0580                	addi	s0,sp,704
     30e:	0000                	unimp
     310:	0580                	addi	s0,sp,704
     312:	0000                	unimp
     314:	0580                	addi	s0,sp,704
     316:	0000                	unimp
     318:	0580                	addi	s0,sp,704
     31a:	0000                	unimp
     31c:	0580                	addi	s0,sp,704
     31e:	0000                	unimp
     320:	0580                	addi	s0,sp,704
     322:	0000                	unimp
     324:	0580                	addi	s0,sp,704
     326:	0000                	unimp
     328:	0580                	addi	s0,sp,704
     32a:	0000                	unimp
     32c:	0580                	addi	s0,sp,704
     32e:	0000                	unimp
     330:	0580                	addi	s0,sp,704
     332:	0000                	unimp
     334:	0580                	addi	s0,sp,704
     336:	0000                	unimp
     338:	0580                	addi	s0,sp,704
     33a:	0000                	unimp
     33c:	0580                	addi	s0,sp,704
     33e:	0000                	unimp
     340:	0580                	addi	s0,sp,704
     342:	0000                	unimp
     344:	0580                	addi	s0,sp,704
     346:	0000                	unimp
     348:	0580                	addi	s0,sp,704
     34a:	0000                	unimp
     34c:	0580                	addi	s0,sp,704
     34e:	0000                	unimp
     350:	0580                	addi	s0,sp,704
     352:	0000                	unimp
     354:	0580                	addi	s0,sp,704
     356:	0000                	unimp
     358:	0580                	addi	s0,sp,704
     35a:	0000                	unimp
     35c:	0580                	addi	s0,sp,704
     35e:	0000                	unimp
     360:	0580                	addi	s0,sp,704
     362:	0000                	unimp
     364:	0580                	addi	s0,sp,704
     366:	0000                	unimp
     368:	0580                	addi	s0,sp,704
     36a:	0000                	unimp
     36c:	0580                	addi	s0,sp,704
     36e:	0000                	unimp
     370:	0580                	addi	s0,sp,704
     372:	0000                	unimp
     374:	0580                	addi	s0,sp,704
     376:	0000                	unimp
     378:	0580                	addi	s0,sp,704
     37a:	0000                	unimp
     37c:	0580                	addi	s0,sp,704
     37e:	0000                	unimp
     380:	0580                	addi	s0,sp,704
     382:	0000                	unimp
     384:	0580                	addi	s0,sp,704
     386:	0000                	unimp
     388:	0580                	addi	s0,sp,704
     38a:	0000                	unimp
     38c:	0580                	addi	s0,sp,704
     38e:	0000                	unimp
     390:	0580                	addi	s0,sp,704
     392:	0000                	unimp
     394:	0580                	addi	s0,sp,704
     396:	0000                	unimp
     398:	0580                	addi	s0,sp,704
     39a:	0000                	unimp
     39c:	0580                	addi	s0,sp,704
     39e:	0000                	unimp
     3a0:	0580                	addi	s0,sp,704
     3a2:	0000                	unimp
     3a4:	0580                	addi	s0,sp,704
     3a6:	0000                	unimp
     3a8:	0580                	addi	s0,sp,704
     3aa:	0000                	unimp
     3ac:	0580                	addi	s0,sp,704
     3ae:	0000                	unimp
     3b0:	0580                	addi	s0,sp,704
     3b2:	0000                	unimp
     3b4:	0580                	addi	s0,sp,704
     3b6:	0000                	unimp
     3b8:	0580                	addi	s0,sp,704
     3ba:	0000                	unimp
     3bc:	0580                	addi	s0,sp,704
     3be:	0000                	unimp
     3c0:	0580                	addi	s0,sp,704
     3c2:	0000                	unimp
     3c4:	0580                	addi	s0,sp,704
     3c6:	0000                	unimp
     3c8:	0580                	addi	s0,sp,704
     3ca:	0000                	unimp
     3cc:	0580                	addi	s0,sp,704
     3ce:	0000                	unimp
     3d0:	0580                	addi	s0,sp,704
     3d2:	0000                	unimp
     3d4:	0580                	addi	s0,sp,704
     3d6:	0000                	unimp
     3d8:	0580                	addi	s0,sp,704
     3da:	0000                	unimp
     3dc:	0580                	addi	s0,sp,704
     3de:	0000                	unimp
     3e0:	0580                	addi	s0,sp,704
     3e2:	0000                	unimp
     3e4:	0580                	addi	s0,sp,704
     3e6:	0000                	unimp
     3e8:	0580                	addi	s0,sp,704
     3ea:	0000                	unimp
     3ec:	0580                	addi	s0,sp,704
     3ee:	0000                	unimp
     3f0:	0580                	addi	s0,sp,704
     3f2:	0000                	unimp
     3f4:	0580                	addi	s0,sp,704
     3f6:	0000                	unimp
     3f8:	0580                	addi	s0,sp,704
     3fa:	0000                	unimp
     3fc:	0580                	addi	s0,sp,704
     3fe:	0000                	unimp
     400:	0580                	addi	s0,sp,704
     402:	0000                	unimp
     404:	0580                	addi	s0,sp,704
     406:	0000                	unimp
     408:	0580                	addi	s0,sp,704
     40a:	0000                	unimp
     40c:	0580                	addi	s0,sp,704
     40e:	0000                	unimp
     410:	0580                	addi	s0,sp,704
     412:	0000                	unimp
     414:	0580                	addi	s0,sp,704
     416:	0000                	unimp
     418:	0580                	addi	s0,sp,704
     41a:	0000                	unimp
     41c:	0580                	addi	s0,sp,704
     41e:	0000                	unimp
     420:	0580                	addi	s0,sp,704
     422:	0000                	unimp
     424:	0580                	addi	s0,sp,704
     426:	0000                	unimp
     428:	0580                	addi	s0,sp,704
     42a:	0000                	unimp
     42c:	0580                	addi	s0,sp,704
     42e:	0000                	unimp
     430:	0580                	addi	s0,sp,704
     432:	0000                	unimp
     434:	0580                	addi	s0,sp,704
     436:	0000                	unimp
     438:	0580                	addi	s0,sp,704
     43a:	0000                	unimp
     43c:	0580                	addi	s0,sp,704
     43e:	0000                	unimp
     440:	0580                	addi	s0,sp,704
     442:	0000                	unimp
     444:	0580                	addi	s0,sp,704
     446:	0000                	unimp
     448:	0580                	addi	s0,sp,704
     44a:	0000                	unimp
     44c:	0580                	addi	s0,sp,704
     44e:	0000                	unimp
     450:	0580                	addi	s0,sp,704
     452:	0000                	unimp
     454:	0580                	addi	s0,sp,704
     456:	0000                	unimp
     458:	0580                	addi	s0,sp,704
     45a:	0000                	unimp
     45c:	0580                	addi	s0,sp,704
     45e:	0000                	unimp
     460:	0580                	addi	s0,sp,704
     462:	0000                	unimp
     464:	0580                	addi	s0,sp,704
     466:	0000                	unimp
     468:	0580                	addi	s0,sp,704
     46a:	0000                	unimp
     46c:	0580                	addi	s0,sp,704
     46e:	0000                	unimp
     470:	0580                	addi	s0,sp,704
     472:	0000                	unimp
     474:	0580                	addi	s0,sp,704
     476:	0000                	unimp
     478:	0580                	addi	s0,sp,704
     47a:	0000                	unimp
     47c:	0580                	addi	s0,sp,704
     47e:	0000                	unimp
     480:	0580                	addi	s0,sp,704
     482:	0000                	unimp
     484:	0580                	addi	s0,sp,704
     486:	0000                	unimp
     488:	0580                	addi	s0,sp,704
     48a:	0000                	unimp
     48c:	0580                	addi	s0,sp,704
     48e:	0000                	unimp
     490:	0580                	addi	s0,sp,704
     492:	0000                	unimp
     494:	0580                	addi	s0,sp,704
     496:	0000                	unimp
     498:	0580                	addi	s0,sp,704
     49a:	0000                	unimp
     49c:	0580                	addi	s0,sp,704
     49e:	0000                	unimp
     4a0:	0580                	addi	s0,sp,704
     4a2:	0000                	unimp
     4a4:	0580                	addi	s0,sp,704
     4a6:	0000                	unimp
     4a8:	0580                	addi	s0,sp,704
     4aa:	0000                	unimp
     4ac:	0580                	addi	s0,sp,704
     4ae:	0000                	unimp
     4b0:	0580                	addi	s0,sp,704
     4b2:	0000                	unimp
     4b4:	0580                	addi	s0,sp,704
     4b6:	0000                	unimp
     4b8:	0580                	addi	s0,sp,704
     4ba:	0000                	unimp
     4bc:	0580                	addi	s0,sp,704
     4be:	0000                	unimp
     4c0:	0580                	addi	s0,sp,704
     4c2:	0000                	unimp
     4c4:	0580                	addi	s0,sp,704
     4c6:	0000                	unimp
     4c8:	0580                	addi	s0,sp,704
     4ca:	0000                	unimp
     4cc:	0580                	addi	s0,sp,704
     4ce:	0000                	unimp
     4d0:	0580                	addi	s0,sp,704
     4d2:	0000                	unimp
     4d4:	0580                	addi	s0,sp,704
     4d6:	0000                	unimp
     4d8:	0580                	addi	s0,sp,704
     4da:	0000                	unimp
     4dc:	0580                	addi	s0,sp,704
     4de:	0000                	unimp
     4e0:	0580                	addi	s0,sp,704
     4e2:	0000                	unimp
     4e4:	0580                	addi	s0,sp,704
     4e6:	0000                	unimp
     4e8:	0580                	addi	s0,sp,704
     4ea:	0000                	unimp
     4ec:	0580                	addi	s0,sp,704
     4ee:	0000                	unimp
     4f0:	0580                	addi	s0,sp,704
     4f2:	0000                	unimp
     4f4:	0580                	addi	s0,sp,704
     4f6:	0000                	unimp
     4f8:	0580                	addi	s0,sp,704
     4fa:	0000                	unimp
     4fc:	0580                	addi	s0,sp,704
     4fe:	0000                	unimp
     500:	0580                	addi	s0,sp,704
     502:	0000                	unimp
     504:	0580                	addi	s0,sp,704
     506:	0000                	unimp
     508:	0580                	addi	s0,sp,704
     50a:	0000                	unimp
     50c:	0580                	addi	s0,sp,704
     50e:	0000                	unimp
     510:	0580                	addi	s0,sp,704
     512:	0000                	unimp
     514:	0580                	addi	s0,sp,704
     516:	0000                	unimp
     518:	0580                	addi	s0,sp,704
     51a:	0000                	unimp
     51c:	0580                	addi	s0,sp,704
     51e:	0000                	unimp
     520:	0580                	addi	s0,sp,704
     522:	0000                	unimp
     524:	0580                	addi	s0,sp,704
     526:	0000                	unimp
     528:	0580                	addi	s0,sp,704
     52a:	0000                	unimp
     52c:	0580                	addi	s0,sp,704
     52e:	0000                	unimp
     530:	0580                	addi	s0,sp,704
     532:	0000                	unimp
     534:	0580                	addi	s0,sp,704
     536:	0000                	unimp
     538:	0580                	addi	s0,sp,704
     53a:	0000                	unimp
     53c:	0580                	addi	s0,sp,704
     53e:	0000                	unimp
     540:	0580                	addi	s0,sp,704
     542:	0000                	unimp
     544:	0580                	addi	s0,sp,704
     546:	0000                	unimp
     548:	0580                	addi	s0,sp,704
     54a:	0000                	unimp
     54c:	0580                	addi	s0,sp,704
     54e:	0000                	unimp
     550:	0580                	addi	s0,sp,704
     552:	0000                	unimp
     554:	0580                	addi	s0,sp,704
     556:	0000                	unimp
     558:	0580                	addi	s0,sp,704
     55a:	0000                	unimp
     55c:	0580                	addi	s0,sp,704
     55e:	0000                	unimp
     560:	0580                	addi	s0,sp,704
     562:	0000                	unimp
     564:	0580                	addi	s0,sp,704
     566:	0000                	unimp
     568:	0580                	addi	s0,sp,704
     56a:	0000                	unimp
     56c:	0580                	addi	s0,sp,704
     56e:	0000                	unimp
     570:	0580                	addi	s0,sp,704
     572:	0000                	unimp
     574:	0580                	addi	s0,sp,704
     576:	0000                	unimp
     578:	0580                	addi	s0,sp,704
     57a:	0000                	unimp
     57c:	0580                	addi	s0,sp,704
	...

00000580 <__dummy>:
     580:	bebd                	j	fe <__fail>
	...

000005b4 <icrc>:
     5b4:	20000737          	lui	a4,0x20000
     5b8:	32070713          	addi	a4,a4,800 # 20000320 <init.3>
     5bc:	00075883          	lhu	a7,0(a4)
     5c0:	08089663          	bnez	a7,64c <icrc+0x98>
     5c4:	200007b7          	lui	a5,0x20000
     5c8:	20000f37          	lui	t5,0x20000
     5cc:	4805                	li	a6,1
     5ce:	6e05                	lui	t3,0x1
     5d0:	6f91                	lui	t6,0x4
     5d2:	01071023          	sh	a6,0(a4)
     5d6:	02078e93          	addi	t4,a5,32 # 20000020 <icrctb.2>
     5da:	220f0f13          	addi	t5,t5,544 # 20000220 <rchr.0>
     5de:	4281                	li	t0,0
     5e0:	4301                	li	t1,0
     5e2:	021e0e13          	addi	t3,t3,33 # 1021 <_ftoa+0x31>
     5e6:	10000393          	li	t2,256
     5ea:	51cf8f93          	addi	t6,t6,1308 # 451c <it.1>
     5ee:	00889793          	slli	a5,a7,0x8
     5f2:	07c2                	slli	a5,a5,0x10
     5f4:	83c1                	srli	a5,a5,0x10
     5f6:	4721                	li	a4,8
     5f8:	01079813          	slli	a6,a5,0x10
     5fc:	0786                	slli	a5,a5,0x1
     5fe:	07c2                	slli	a5,a5,0x10
     600:	41085813          	srai	a6,a6,0x10
     604:	177d                	addi	a4,a4,-1
     606:	83c1                	srli	a5,a5,0x10
     608:	02084e63          	bltz	a6,644 <icrc+0x90>
     60c:	fe0716e3          	bnez	a4,5f8 <icrc+0x44>
     610:	0312                	slli	t1,t1,0x4
     612:	0885                	addi	a7,a7,1
     614:	00536333          	or	t1,t1,t0
     618:	08c2                	slli	a7,a7,0x10
     61a:	00fe9023          	sh	a5,0(t4)
     61e:	006f0023          	sb	t1,0(t5)
     622:	0108d893          	srli	a7,a7,0x10
     626:	0e89                	addi	t4,t4,2
     628:	0f05                	addi	t5,t5,1
     62a:	02788163          	beq	a7,t2,64c <icrc+0x98>
     62e:	00f8f713          	andi	a4,a7,15
     632:	0048d793          	srli	a5,a7,0x4
     636:	977e                	add	a4,a4,t6
     638:	97fe                	add	a5,a5,t6
     63a:	00074303          	lbu	t1,0(a4)
     63e:	0007c283          	lbu	t0,0(a5)
     642:	b775                	j	5ee <icrc+0x3a>
     644:	01c7c7b3          	xor	a5,a5,t3
     648:	fb45                	bnez	a4,5f8 <icrc+0x44>
     64a:	b7d9                	j	610 <icrc+0x5c>
     64c:	08064a63          	bltz	a2,6e0 <icrc+0x12c>
     650:	0ff67513          	andi	a0,a2,255
     654:	0522                	slli	a0,a0,0x8
     656:	0ff67613          	andi	a2,a2,255
     65a:	8d51                	or	a0,a0,a2
     65c:	cdb1                	beqz	a1,6b8 <icrc+0x104>
     65e:	200007b7          	lui	a5,0x20000
     662:	20000eb7          	lui	t4,0x20000
     666:	6e11                	lui	t3,0x4
     668:	07300713          	li	a4,115
     66c:	4605                	li	a2,1
     66e:	02078793          	addi	a5,a5,32 # 20000020 <icrctb.2>
     672:	220e8e93          	addi	t4,t4,544 # 20000220 <rchr.0>
     676:	52ce0e13          	addi	t3,t3,1324 # 452c <lin>
     67a:	a019                	j	680 <icrc+0xcc>
     67c:	0008c703          	lbu	a4,0(a7)
     680:	0605                	addi	a2,a2,1
     682:	0642                	slli	a2,a2,0x10
     684:	0ff57893          	andi	a7,a0,255
     688:	00855813          	srli	a6,a0,0x8
     68c:	8241                	srli	a2,a2,0x10
     68e:	00ee8333          	add	t1,t4,a4
     692:	00889513          	slli	a0,a7,0x8
     696:	01074733          	xor	a4,a4,a6
     69a:	00ce08b3          	add	a7,t3,a2
     69e:	0006d663          	bgez	a3,6aa <icrc+0xf6>
     6a2:	00034703          	lbu	a4,0(t1)
     6a6:	00e84733          	xor	a4,a6,a4
     6aa:	0706                	slli	a4,a4,0x1
     6ac:	973e                	add	a4,a4,a5
     6ae:	00075703          	lhu	a4,0(a4)
     6b2:	8d39                	xor	a0,a0,a4
     6b4:	fcc5f4e3          	bgeu	a1,a2,67c <icrc+0xc8>
     6b8:	0006c363          	bltz	a3,6be <icrc+0x10a>
     6bc:	8082                	ret
     6be:	200007b7          	lui	a5,0x20000
     6c2:	22078793          	addi	a5,a5,544 # 20000220 <rchr.0>
     6c6:	0ff57713          	andi	a4,a0,255
     6ca:	973e                	add	a4,a4,a5
     6cc:	8121                	srli	a0,a0,0x8
     6ce:	00074703          	lbu	a4,0(a4)
     6d2:	97aa                	add	a5,a5,a0
     6d4:	0007c503          	lbu	a0,0(a5)
     6d8:	00871793          	slli	a5,a4,0x8
     6dc:	8d5d                	or	a0,a0,a5
     6de:	8082                	ret
     6e0:	0006c563          	bltz	a3,6ea <icrc+0x136>
     6e4:	f6059de3          	bnez	a1,65e <icrc+0xaa>
     6e8:	8082                	ret
     6ea:	20000f37          	lui	t5,0x20000
     6ee:	220f0793          	addi	a5,t5,544 # 20000220 <rchr.0>
     6f2:	0ff57613          	andi	a2,a0,255
     6f6:	00855713          	srli	a4,a0,0x8
     6fa:	963e                	add	a2,a2,a5
     6fc:	00064503          	lbu	a0,0(a2)
     700:	973e                	add	a4,a4,a5
     702:	00074703          	lbu	a4,0(a4)
     706:	0522                	slli	a0,a0,0x8
     708:	8d59                	or	a0,a0,a4
     70a:	f9b1                	bnez	a1,65e <icrc+0xaa>
     70c:	bf6d                	j	6c6 <icrc+0x112>

0000070e <benchmark>:
     70e:	1141                	addi	sp,sp,-16
     710:	4685                	li	a3,1
     712:	4601                	li	a2,0
     714:	02800593          	li	a1,40
     718:	4501                	li	a0,0
     71a:	c606                	sw	ra,12(sp)
     71c:	c422                	sw	s0,8(sp)
     71e:	c226                	sw	s1,4(sp)
     720:	3d51                	jal	5b4 <icrc>
     722:	4685                	li	a3,1
     724:	4601                	li	a2,0
     726:	02a00593          	li	a1,42
     72a:	84aa                	mv	s1,a0
     72c:	3561                	jal	5b4 <icrc>
     72e:	842a                	mv	s0,a0
     730:	6511                	lui	a0,0x4
     732:	85a6                	mv	a1,s1
     734:	50050513          	addi	a0,a0,1280 # 4500 <__clzsi2+0x3e>
     738:	320010ef          	jal	ra,1a58 <printf>
     73c:	6511                	lui	a0,0x4
     73e:	85a2                	mv	a1,s0
     740:	50450513          	addi	a0,a0,1284 # 4504 <__clzsi2+0x42>
     744:	314010ef          	jal	ra,1a58 <printf>
     748:	40b2                	lw	ra,12(sp)
     74a:	4422                	lw	s0,8(sp)
     74c:	4492                	lw	s1,4(sp)
     74e:	4501                	li	a0,0
     750:	0141                	addi	sp,sp,16
     752:	8082                	ret

00000754 <fputc>:
     754:	0ff57593          	andi	a1,a0,255
     758:	20000537          	lui	a0,0x20000
     75c:	00050513          	mv	a0,a0
     760:	4d40106f          	j	1c34 <ck_uart_putc>

00000764 <main>:
     764:	6795                	lui	a5,0x5
     766:	7179                	addi	sp,sp,-48
     768:	b0078793          	addi	a5,a5,-1280 # 4b00 <__erodata+0x110>
     76c:	d422                	sw	s0,40(sp)
     76e:	c43e                	sw	a5,8(sp)
     770:	20000437          	lui	s0,0x20000
     774:	478d                	li	a5,3
     776:	ca3e                	sw	a5,20(sp)
     778:	4581                	li	a1,0
     77a:	4785                	li	a5,1
     77c:	00040513          	mv	a0,s0
     780:	d606                	sw	ra,44(sp)
     782:	ce3e                	sw	a5,28(sp)
     784:	c802                	sw	zero,16(sp)
     786:	c602                	sw	zero,12(sp)
     788:	3ec010ef          	jal	ra,1b74 <ck_uart_open>
     78c:	002c                	addi	a1,sp,8
     78e:	00040513          	mv	a0,s0
     792:	3f6010ef          	jal	ra,1b88 <ck_uart_init>
     796:	3fa5                	jal	70e <benchmark>
     798:	6511                	lui	a0,0x4
     79a:	50c50513          	addi	a0,a0,1292 # 450c <__clzsi2+0x4a>
     79e:	28c010ef          	jal	ra,1a2a <puts>
     7a2:	50b2                	lw	ra,44(sp)
     7a4:	5422                	lw	s0,40(sp)
     7a6:	4501                	li	a0,0
     7a8:	6145                	addi	sp,sp,48
     7aa:	8082                	ret

000007ac <_out_null>:
     7ac:	8082                	ret

000007ae <_out_rev>:
     7ae:	7179                	addi	sp,sp,-48
     7b0:	d226                	sw	s1,36(sp)
     7b2:	d04a                	sw	s2,32(sp)
     7b4:	ce4e                	sw	s3,28(sp)
     7b6:	cc52                	sw	s4,24(sp)
     7b8:	ca56                	sw	s5,20(sp)
     7ba:	c85a                	sw	s6,16(sp)
     7bc:	8ab2                	mv	s5,a2
     7be:	c462                	sw	s8,8(sp)
     7c0:	c266                	sw	s9,4(sp)
     7c2:	c06a                	sw	s10,0(sp)
     7c4:	d606                	sw	ra,44(sp)
     7c6:	d422                	sw	s0,40(sp)
     7c8:	c65e                	sw	s7,12(sp)
     7ca:	0038f613          	andi	a2,a7,3
     7ce:	8cc6                	mv	s9,a7
     7d0:	892a                	mv	s2,a0
     7d2:	89ae                	mv	s3,a1
     7d4:	8a36                	mv	s4,a3
     7d6:	8b3a                	mv	s6,a4
     7d8:	8d3e                	mv	s10,a5
     7da:	8c42                	mv	s8,a6
     7dc:	84d6                	mv	s1,s5
     7de:	e205                	bnez	a2,7fe <_out_rev+0x50>
     7e0:	0107ff63          	bgeu	a5,a6,7fe <_out_rev+0x50>
     7e4:	40f804b3          	sub	s1,a6,a5
     7e8:	94d6                	add	s1,s1,s5
     7ea:	8456                	mv	s0,s5
     7ec:	8622                	mv	a2,s0
     7ee:	86d2                	mv	a3,s4
     7f0:	0405                	addi	s0,s0,1
     7f2:	85ce                	mv	a1,s3
     7f4:	02000513          	li	a0,32
     7f8:	9902                	jalr	s2
     7fa:	fe9419e3          	bne	s0,s1,7ec <_out_rev+0x3e>
     7fe:	020d0163          	beqz	s10,820 <_out_rev+0x72>
     802:	01ab0433          	add	s0,s6,s10
     806:	00940bb3          	add	s7,s0,s1
     80a:	fff44503          	lbu	a0,-1(s0) # 1fffffff <__erodata+0x1fffb60f>
     80e:	408b8633          	sub	a2,s7,s0
     812:	86d2                	mv	a3,s4
     814:	147d                	addi	s0,s0,-1
     816:	85ce                	mv	a1,s3
     818:	9902                	jalr	s2
     81a:	fe8b18e3          	bne	s6,s0,80a <_out_rev+0x5c>
     81e:	94ea                	add	s1,s1,s10
     820:	002cfc93          	andi	s9,s9,2
     824:	020c8063          	beqz	s9,844 <_out_rev+0x96>
     828:	41548ab3          	sub	s5,s1,s5
     82c:	018afc63          	bgeu	s5,s8,844 <_out_rev+0x96>
     830:	8626                	mv	a2,s1
     832:	0a85                	addi	s5,s5,1
     834:	86d2                	mv	a3,s4
     836:	85ce                	mv	a1,s3
     838:	02000513          	li	a0,32
     83c:	0485                	addi	s1,s1,1
     83e:	9902                	jalr	s2
     840:	ff8ae8e3          	bltu	s5,s8,830 <_out_rev+0x82>
     844:	50b2                	lw	ra,44(sp)
     846:	5422                	lw	s0,40(sp)
     848:	5902                	lw	s2,32(sp)
     84a:	49f2                	lw	s3,28(sp)
     84c:	4a62                	lw	s4,24(sp)
     84e:	4ad2                	lw	s5,20(sp)
     850:	4b42                	lw	s6,16(sp)
     852:	4bb2                	lw	s7,12(sp)
     854:	4c22                	lw	s8,8(sp)
     856:	4c92                	lw	s9,4(sp)
     858:	4d02                	lw	s10,0(sp)
     85a:	8526                	mv	a0,s1
     85c:	5492                	lw	s1,36(sp)
     85e:	6145                	addi	sp,sp,48
     860:	8082                	ret

00000862 <_ntoa_format>:
     862:	43a2                	lw	t2,8(sp)
     864:	4282                	lw	t0,0(sp)
     866:	4f92                	lw	t6,4(sp)
     868:	0023f313          	andi	t1,t2,2
     86c:	8f42                	mv	t5,a6
     86e:	04031f63          	bnez	t1,8cc <_ntoa_format+0x6a>
     872:	0013f813          	andi	a6,t2,1
     876:	0e0f9d63          	bnez	t6,970 <_ntoa_format+0x10e>
     87a:	0257f363          	bgeu	a5,t0,8a0 <_ntoa_format+0x3e>
     87e:	437d                	li	t1,31
     880:	1cf36b63          	bltu	t1,a5,a56 <_ntoa_format+0x1f4>
     884:	03000e13          	li	t3,48
     888:	02000e93          	li	t4,32
     88c:	a019                	j	892 <_ntoa_format+0x30>
     88e:	01d78963          	beq	a5,t4,8a0 <_ntoa_format+0x3e>
     892:	0785                	addi	a5,a5,1
     894:	00f70333          	add	t1,a4,a5
     898:	ffc30fa3          	sb	t3,-1(t1)
     89c:	fe57e9e3          	bltu	a5,t0,88e <_ntoa_format+0x2c>
     8a0:	02080663          	beqz	a6,8cc <_ntoa_format+0x6a>
     8a4:	03f7f463          	bgeu	a5,t6,8cc <_ntoa_format+0x6a>
     8a8:	02000813          	li	a6,32
     8ac:	0f078363          	beq	a5,a6,992 <_ntoa_format+0x130>
     8b0:	03000e13          	li	t3,48
     8b4:	02000e93          	li	t4,32
     8b8:	a019                	j	8be <_ntoa_format+0x5c>
     8ba:	0dd78c63          	beq	a5,t4,992 <_ntoa_format+0x130>
     8be:	0785                	addi	a5,a5,1
     8c0:	00f70333          	add	t1,a4,a5
     8c4:	ffc30fa3          	sb	t3,-1(t1)
     8c8:	fff799e3          	bne	a5,t6,8ba <_ntoa_format+0x58>
     8cc:	0103f813          	andi	a6,t2,16
     8d0:	06080a63          	beqz	a6,944 <_ntoa_format+0xe2>
     8d4:	4003f813          	andi	a6,t2,1024
     8d8:	04081563          	bnez	a6,922 <_ntoa_format+0xc0>
     8dc:	02079f63          	bnez	a5,91a <_ntoa_format+0xb8>
     8e0:	47c1                	li	a5,16
     8e2:	12f88663          	beq	a7,a5,a0e <_ntoa_format+0x1ac>
     8e6:	4789                	li	a5,2
     8e8:	16f88163          	beq	a7,a5,a4a <_ntoa_format+0x1e8>
     8ec:	03000793          	li	a5,48
     8f0:	00f70023          	sb	a5,0(a4)
     8f4:	4785                	li	a5,1
     8f6:	040f0d63          	beqz	t5,950 <_ntoa_format+0xee>
     8fa:	00f70833          	add	a6,a4,a5
     8fe:	02d00893          	li	a7,45
     902:	01180023          	sb	a7,0(a6) # 50000 <__erodata+0x4b610>
     906:	0785                	addi	a5,a5,1
     908:	889e                	mv	a7,t2
     90a:	887e                	mv	a6,t6
     90c:	b54d                	j	7ae <_out_rev>
     90e:	4003f793          	andi	a5,t2,1024
     912:	12079363          	bnez	a5,a38 <_ntoa_format+0x1d6>
     916:	02000793          	li	a5,32
     91a:	0af28e63          	beq	t0,a5,9d6 <_ntoa_format+0x174>
     91e:	0aff8c63          	beq	t6,a5,9d6 <_ntoa_format+0x174>
     922:	4841                	li	a6,16
     924:	0d088563          	beq	a7,a6,9ee <_ntoa_format+0x18c>
     928:	4809                	li	a6,2
     92a:	09088c63          	beq	a7,a6,9c2 <_ntoa_format+0x160>
     92e:	02000813          	li	a6,32
     932:	fd078be3          	beq	a5,a6,908 <_ntoa_format+0xa6>
     936:	00f70833          	add	a6,a4,a5
     93a:	03000893          	li	a7,48
     93e:	01180023          	sb	a7,0(a6)
     942:	0785                	addi	a5,a5,1
     944:	02000813          	li	a6,32
     948:	fd0780e3          	beq	a5,a6,908 <_ntoa_format+0xa6>
     94c:	fa0f17e3          	bnez	t5,8fa <_ntoa_format+0x98>
     950:	0043f813          	andi	a6,t2,4
     954:	04081d63          	bnez	a6,9ae <_ntoa_format+0x14c>
     958:	0083f813          	andi	a6,t2,8
     95c:	fa0806e3          	beqz	a6,908 <_ntoa_format+0xa6>
     960:	00f70833          	add	a6,a4,a5
     964:	02000893          	li	a7,32
     968:	01180023          	sb	a7,0(a6)
     96c:	0785                	addi	a5,a5,1
     96e:	bf69                	j	908 <_ntoa_format+0xa6>
     970:	02080763          	beqz	a6,99e <_ntoa_format+0x13c>
     974:	040f1f63          	bnez	t5,9d2 <_ntoa_format+0x170>
     978:	00c3f313          	andi	t1,t2,12
     97c:	04031b63          	bnez	t1,9d2 <_ntoa_format+0x170>
     980:	f257f2e3          	bgeu	a5,t0,8a4 <_ntoa_format+0x42>
     984:	437d                	li	t1,31
     986:	eef37fe3          	bgeu	t1,a5,884 <_ntoa_format+0x22>
     98a:	02000793          	li	a5,32
     98e:	f3f7ffe3          	bgeu	a5,t6,8cc <_ntoa_format+0x6a>
     992:	0103f793          	andi	a5,t2,16
     996:	ffa5                	bnez	a5,90e <_ntoa_format+0xac>
     998:	02000793          	li	a5,32
     99c:	b7b5                	j	908 <_ntoa_format+0xa6>
     99e:	f257f7e3          	bgeu	a5,t0,8cc <_ntoa_format+0x6a>
     9a2:	437d                	li	t1,31
     9a4:	eef370e3          	bgeu	t1,a5,884 <_ntoa_format+0x22>
     9a8:	02000793          	li	a5,32
     9ac:	b705                	j	8cc <_ntoa_format+0x6a>
     9ae:	00f70833          	add	a6,a4,a5
     9b2:	02b00893          	li	a7,43
     9b6:	01180023          	sb	a7,0(a6)
     9ba:	0785                	addi	a5,a5,1
     9bc:	889e                	mv	a7,t2
     9be:	887e                	mv	a6,t6
     9c0:	b3fd                	j	7ae <_out_rev>
     9c2:	02000813          	li	a6,32
     9c6:	f50781e3          	beq	a5,a6,908 <_ntoa_format+0xa6>
     9ca:	00f70833          	add	a6,a4,a5
     9ce:	0785                	addi	a5,a5,1
     9d0:	a055                	j	a74 <_ntoa_format+0x212>
     9d2:	1ffd                	addi	t6,t6,-1
     9d4:	b775                	j	980 <_ntoa_format+0x11e>
     9d6:	fff78813          	addi	a6,a5,-1
     9da:	f00803e3          	beqz	a6,8e0 <_ntoa_format+0x7e>
     9de:	4341                	li	t1,16
     9e0:	08688063          	beq	a7,t1,a60 <_ntoa_format+0x1fe>
     9e4:	4309                	li	t1,2
     9e6:	08688663          	beq	a7,t1,a72 <_ntoa_format+0x210>
     9ea:	87c2                	mv	a5,a6
     9ec:	b7a9                	j	936 <_ntoa_format+0xd4>
     9ee:	0203f813          	andi	a6,t2,32
     9f2:	02081763          	bnez	a6,a20 <_ntoa_format+0x1be>
     9f6:	02000813          	li	a6,32
     9fa:	f10787e3          	beq	a5,a6,908 <_ntoa_format+0xa6>
     9fe:	00f708b3          	add	a7,a4,a5
     a02:	0785                	addi	a5,a5,1
     a04:	07800813          	li	a6,120
     a08:	01088023          	sb	a6,0(a7)
     a0c:	b70d                	j	92e <_ntoa_format+0xcc>
     a0e:	0203f793          	andi	a5,t2,32
     a12:	e795                	bnez	a5,a3e <_ntoa_format+0x1dc>
     a14:	07800793          	li	a5,120
     a18:	00f70023          	sb	a5,0(a4)
     a1c:	4785                	li	a5,1
     a1e:	bf21                	j	936 <_ntoa_format+0xd4>
     a20:	02000813          	li	a6,32
     a24:	ef0782e3          	beq	a5,a6,908 <_ntoa_format+0xa6>
     a28:	00f70833          	add	a6,a4,a5
     a2c:	05800893          	li	a7,88
     a30:	01180023          	sb	a7,0(a6)
     a34:	0785                	addi	a5,a5,1
     a36:	bde5                	j	92e <_ntoa_format+0xcc>
     a38:	02000793          	li	a5,32
     a3c:	b5dd                	j	922 <_ntoa_format+0xc0>
     a3e:	05800793          	li	a5,88
     a42:	00f70023          	sb	a5,0(a4)
     a46:	4785                	li	a5,1
     a48:	b5fd                	j	936 <_ntoa_format+0xd4>
     a4a:	06200793          	li	a5,98
     a4e:	00f70023          	sb	a5,0(a4)
     a52:	4785                	li	a5,1
     a54:	b5cd                	j	936 <_ntoa_format+0xd4>
     a56:	02000793          	li	a5,32
     a5a:	e40815e3          	bnez	a6,8a4 <_ntoa_format+0x42>
     a5e:	b5bd                	j	8cc <_ntoa_format+0x6a>
     a60:	0203f893          	andi	a7,t2,32
     a64:	17f9                	addi	a5,a5,-2
     a66:	fc0891e3          	bnez	a7,a28 <_ntoa_format+0x1c6>
     a6a:	00f708b3          	add	a7,a4,a5
     a6e:	87c2                	mv	a5,a6
     a70:	bf51                	j	a04 <_ntoa_format+0x1a2>
     a72:	983a                	add	a6,a6,a4
     a74:	06200893          	li	a7,98
     a78:	01180023          	sb	a7,0(a6)
     a7c:	bd4d                	j	92e <_ntoa_format+0xcc>

00000a7e <_ntoa_long>:
     a7e:	7139                	addi	sp,sp,-64
     a80:	dc22                	sw	s0,56(sp)
     a82:	de06                	sw	ra,60(sp)
     a84:	8ec2                	mv	t4,a6
     a86:	4416                	lw	s0,68(sp)
     a88:	8e3a                	mv	t3,a4
     a8a:	883e                	mv	a6,a5
     a8c:	e709                	bnez	a4,a96 <_ntoa_long+0x18>
     a8e:	40047793          	andi	a5,s0,1024
     a92:	983d                	andi	s0,s0,-17
     a94:	e3bd                	bnez	a5,afa <_ntoa_long+0x7c>
     a96:	02047713          	andi	a4,s0,32
     a9a:	06100293          	li	t0,97
     a9e:	eb39                	bnez	a4,af4 <_ntoa_long+0x76>
     aa0:	4781                	li	a5,0
     aa2:	0818                	addi	a4,sp,16
     aa4:	43a5                	li	t2,9
     aa6:	12d9                	addi	t0,t0,-10
     aa8:	02000093          	li	ra,32
     aac:	a021                	j	ab4 <_ntoa_long+0x36>
     aae:	02178963          	beq	a5,ra,ae0 <_ntoa_long+0x62>
     ab2:	8e1a                	mv	t3,t1
     ab4:	03de7f33          	remu	t5,t3,t4
     ab8:	0fff7313          	andi	t1,t5,255
     abc:	03030f93          	addi	t6,t1,48
     ac0:	9316                	add	t1,t1,t0
     ac2:	0ff37313          	andi	t1,t1,255
     ac6:	01e3e463          	bltu	t2,t5,ace <_ntoa_long+0x50>
     aca:	0ffff313          	andi	t1,t6,255
     ace:	0785                	addi	a5,a5,1
     ad0:	00f70f33          	add	t5,a4,a5
     ad4:	fe6f0fa3          	sb	t1,-1(t5)
     ad8:	03de5333          	divu	t1,t3,t4
     adc:	fdde79e3          	bgeu	t3,t4,aae <_ntoa_long+0x30>
     ae0:	4306                	lw	t1,64(sp)
     ae2:	c422                	sw	s0,8(sp)
     ae4:	c046                	sw	a7,0(sp)
     ae6:	c21a                	sw	t1,4(sp)
     ae8:	88f6                	mv	a7,t4
     aea:	3ba5                	jal	862 <_ntoa_format>
     aec:	50f2                	lw	ra,60(sp)
     aee:	5462                	lw	s0,56(sp)
     af0:	6121                	addi	sp,sp,64
     af2:	8082                	ret
     af4:	04100293          	li	t0,65
     af8:	b765                	j	aa0 <_ntoa_long+0x22>
     afa:	4781                	li	a5,0
     afc:	0818                	addi	a4,sp,16
     afe:	b7cd                	j	ae0 <_ntoa_long+0x62>

00000b00 <_ntoa_long_long>:
     b00:	7175                	addi	sp,sp,-144
     b02:	d2d6                	sw	s5,100(sp)
     b04:	d0da                	sw	s6,96(sp)
     b06:	cede                	sw	s7,92(sp)
     b08:	cce2                	sw	s8,88(sp)
     b0a:	cae6                	sw	s9,84(sp)
     b0c:	c8ea                	sw	s10,80(sp)
     b0e:	c6ee                	sw	s11,76(sp)
     b10:	de86                	sw	ra,124(sp)
     b12:	8dbe                	mv	s11,a5
     b14:	dca2                	sw	s0,120(sp)
     b16:	daa6                	sw	s1,116(sp)
     b18:	d8ca                	sw	s2,112(sp)
     b1a:	d6ce                	sw	s3,108(sp)
     b1c:	d4d2                	sw	s4,104(sp)
     b1e:	c746                	sw	a7,140(sp)
     b20:	8fd9                	or	a5,a5,a4
     b22:	cc2a                	sw	a0,24(sp)
     b24:	ce2e                	sw	a1,28(sp)
     b26:	4b4a                	lw	s6,144(sp)
     b28:	8aba                	mv	s5,a4
     b2a:	8bb2                	mv	s7,a2
     b2c:	8c36                	mv	s8,a3
     b2e:	8cc2                	mv	s9,a6
     b30:	8d46                	mv	s10,a7
     b32:	eb89                	bnez	a5,b44 <_ntoa_long_long+0x44>
     b34:	477a                	lw	a4,156(sp)
     b36:	47fa                	lw	a5,156(sp)
     b38:	fef77a13          	andi	s4,a4,-17
     b3c:	4007f793          	andi	a5,a5,1024
     b40:	cf52                	sw	s4,156(sp)
     b42:	e3bd                	bnez	a5,ba8 <_ntoa_long_long+0xa8>
     b44:	47fa                	lw	a5,156(sp)
     b46:	06100413          	li	s0,97
     b4a:	0207f793          	andi	a5,a5,32
     b4e:	e3c5                	bnez	a5,bee <_ntoa_long_long+0xee>
     b50:	4a01                	li	s4,0
     b52:	1004                	addi	s1,sp,32
     b54:	4925                	li	s2,9
     b56:	1459                	addi	s0,s0,-10
     b58:	02000993          	li	s3,32
     b5c:	866a                	mv	a2,s10
     b5e:	86da                	mv	a3,s6
     b60:	8556                	mv	a0,s5
     b62:	85ee                	mv	a1,s11
     b64:	44c010ef          	jal	ra,1fb0 <__umoddi3>
     b68:	0ff57513          	andi	a0,a0,255
     b6c:	00850833          	add	a6,a0,s0
     b70:	03050613          	addi	a2,a0,48
     b74:	0ff87813          	andi	a6,a6,255
     b78:	00a96463          	bltu	s2,a0,b80 <_ntoa_long_long+0x80>
     b7c:	0ff67813          	andi	a6,a2,255
     b80:	0a05                	addi	s4,s4,1
     b82:	014488b3          	add	a7,s1,s4
     b86:	8556                	mv	a0,s5
     b88:	85ee                	mv	a1,s11
     b8a:	866a                	mv	a2,s10
     b8c:	86da                	mv	a3,s6
     b8e:	ff088fa3          	sb	a6,-1(a7)
     b92:	0be010ef          	jal	ra,1c50 <__udivdi3>
     b96:	016deb63          	bltu	s11,s6,bac <_ntoa_long_long+0xac>
     b9a:	05bb0763          	beq	s6,s11,be8 <_ntoa_long_long+0xe8>
     b9e:	013a0763          	beq	s4,s3,bac <_ntoa_long_long+0xac>
     ba2:	8aaa                	mv	s5,a0
     ba4:	8dae                	mv	s11,a1
     ba6:	bf5d                	j	b5c <_ntoa_long_long+0x5c>
     ba8:	4a01                	li	s4,0
     baa:	1004                	addi	s1,sp,32
     bac:	476a                	lw	a4,152(sp)
     bae:	47fa                	lw	a5,156(sp)
     bb0:	45f2                	lw	a1,28(sp)
     bb2:	c23a                	sw	a4,4(sp)
     bb4:	475a                	lw	a4,148(sp)
     bb6:	4562                	lw	a0,24(sp)
     bb8:	c43e                	sw	a5,8(sp)
     bba:	c03a                	sw	a4,0(sp)
     bbc:	88ea                	mv	a7,s10
     bbe:	8866                	mv	a6,s9
     bc0:	87d2                	mv	a5,s4
     bc2:	8726                	mv	a4,s1
     bc4:	86e2                	mv	a3,s8
     bc6:	865e                	mv	a2,s7
     bc8:	3969                	jal	862 <_ntoa_format>
     bca:	50f6                	lw	ra,124(sp)
     bcc:	5466                	lw	s0,120(sp)
     bce:	54d6                	lw	s1,116(sp)
     bd0:	5946                	lw	s2,112(sp)
     bd2:	59b6                	lw	s3,108(sp)
     bd4:	5a26                	lw	s4,104(sp)
     bd6:	5a96                	lw	s5,100(sp)
     bd8:	5b06                	lw	s6,96(sp)
     bda:	4bf6                	lw	s7,92(sp)
     bdc:	4c66                	lw	s8,88(sp)
     bde:	4cd6                	lw	s9,84(sp)
     be0:	4d46                	lw	s10,80(sp)
     be2:	4db6                	lw	s11,76(sp)
     be4:	6149                	addi	sp,sp,144
     be6:	8082                	ret
     be8:	fbaafbe3          	bgeu	s5,s10,b9e <_ntoa_long_long+0x9e>
     bec:	b7c1                	j	bac <_ntoa_long_long+0xac>
     bee:	04100413          	li	s0,65
     bf2:	bfb9                	j	b50 <_ntoa_long_long+0x50>

00000bf4 <_etoa>:
     bf4:	7119                	addi	sp,sp,-128
     bf6:	d8ca                	sw	s2,112(sp)
     bf8:	d6ce                	sw	s3,108(sp)
     bfa:	d4d2                	sw	s4,104(sp)
     bfc:	d2d6                	sw	s5,100(sp)
     bfe:	89aa                	mv	s3,a0
     c00:	8a2e                	mv	s4,a1
     c02:	8932                	mv	s2,a2
     c04:	8ab6                	mv	s5,a3
     c06:	863a                	mv	a2,a4
     c08:	86be                	mv	a3,a5
     c0a:	853a                	mv	a0,a4
     c0c:	85be                	mv	a1,a5
     c0e:	dca2                	sw	s0,120(sp)
     c10:	daa6                	sw	s1,116(sp)
     c12:	d0da                	sw	s6,96(sp)
     c14:	cce2                	sw	s8,88(sp)
     c16:	cae6                	sw	s9,84(sp)
     c18:	de86                	sw	ra,124(sp)
     c1a:	cede                	sw	s7,92(sp)
     c1c:	c8ea                	sw	s10,80(sp)
     c1e:	c6ee                	sw	s11,76(sp)
     c20:	843a                	mv	s0,a4
     c22:	84be                	mv	s1,a5
     c24:	8c42                	mv	s8,a6
     c26:	8b46                	mv	s6,a7
     c28:	60c020ef          	jal	ra,3234 <__eqdf2>
     c2c:	4c8a                	lw	s9,128(sp)
     c2e:	36051063          	bnez	a0,f8e <_etoa+0x39a>
     c32:	6795                	lui	a5,0x5
     c34:	9f07a603          	lw	a2,-1552(a5) # 49f0 <__erodata>
     c38:	9f47a683          	lw	a3,-1548(a5)
     c3c:	8522                	mv	a0,s0
     c3e:	85a6                	mv	a1,s1
     c40:	698020ef          	jal	ra,32d8 <__gedf2>
     c44:	34a04563          	bgtz	a0,f8e <_etoa+0x39a>
     c48:	6795                	lui	a5,0x5
     c4a:	9f87a603          	lw	a2,-1544(a5) # 49f8 <__erodata+0x8>
     c4e:	9fc7a683          	lw	a3,-1540(a5)
     c52:	8522                	mv	a0,s0
     c54:	85a6                	mv	a1,s1
     c56:	738020ef          	jal	ra,338e <__ledf2>
     c5a:	32054a63          	bltz	a0,f8e <_etoa+0x39a>
     c5e:	8522                	mv	a0,s0
     c60:	85a6                	mv	a1,s1
     c62:	4601                	li	a2,0
     c64:	4681                	li	a3,0
     c66:	728020ef          	jal	ra,338e <__ledf2>
     c6a:	80000bb7          	lui	s7,0x80000
     c6e:	d222                	sw	s0,36(sp)
     c70:	009bcbb3          	xor	s7,s7,s1
     c74:	00054363          	bltz	a0,c7a <_etoa+0x86>
     c78:	8ba6                	mv	s7,s1
     c7a:	400cf793          	andi	a5,s9,1024
     c7e:	de3e                	sw	a5,60(sp)
     c80:	e391                	bnez	a5,c84 <_etoa+0x90>
     c82:	4c19                	li	s8,6
     c84:	014bd513          	srli	a0,s7,0x14
     c88:	7ff57513          	andi	a0,a0,2047
     c8c:	c0150513          	addi	a0,a0,-1023
     c90:	77e030ef          	jal	ra,440e <__floatsidf>
     c94:	6795                	lui	a5,0x5
     c96:	a007a603          	lw	a2,-1536(a5) # 4a00 <__erodata+0x10>
     c9a:	a047a683          	lw	a3,-1532(a5)
     c9e:	7a6020ef          	jal	ra,3444 <__muldf3>
     ca2:	6795                	lui	a5,0x5
     ca4:	a087a603          	lw	a2,-1528(a5) # 4a08 <__erodata+0x18>
     ca8:	a0c7a683          	lw	a3,-1524(a5)
     cac:	644010ef          	jal	ra,22f0 <__adddf3>
     cb0:	00cb9793          	slli	a5,s7,0xc
     cb4:	00c7d713          	srli	a4,a5,0xc
     cb8:	6795                	lui	a5,0x5
     cba:	a107a603          	lw	a2,-1520(a5) # 4a10 <__erodata+0x20>
     cbe:	a147a683          	lw	a3,-1516(a5)
     cc2:	3ff007b7          	lui	a5,0x3ff00
     cc6:	8fd9                	or	a5,a5,a4
     cc8:	8daa                	mv	s11,a0
     cca:	8d2e                	mv	s10,a1
     ccc:	8522                	mv	a0,s0
     cce:	85be                	mv	a1,a5
     cd0:	513020ef          	jal	ra,39e2 <__subdf3>
     cd4:	6795                	lui	a5,0x5
     cd6:	a187a603          	lw	a2,-1512(a5) # 4a18 <__erodata+0x28>
     cda:	a1c7a683          	lw	a3,-1508(a5)
     cde:	766020ef          	jal	ra,3444 <__muldf3>
     ce2:	862a                	mv	a2,a0
     ce4:	86ae                	mv	a3,a1
     ce6:	856e                	mv	a0,s11
     ce8:	85ea                	mv	a1,s10
     cea:	606010ef          	jal	ra,22f0 <__adddf3>
     cee:	5c0030ef          	jal	ra,42ae <__fixdfsi>
     cf2:	8d2a                	mv	s10,a0
     cf4:	71a030ef          	jal	ra,440e <__floatsidf>
     cf8:	6795                	lui	a5,0x5
     cfa:	a207a603          	lw	a2,-1504(a5) # 4a20 <__erodata+0x30>
     cfe:	a247a683          	lw	a3,-1500(a5)
     d02:	8dae                	mv	s11,a1
     d04:	cc2a                	sw	a0,24(sp)
     d06:	73e020ef          	jal	ra,3444 <__muldf3>
     d0a:	6715                	lui	a4,0x5
     d0c:	a2872603          	lw	a2,-1496(a4) # 4a28 <__erodata+0x38>
     d10:	a2c72683          	lw	a3,-1492(a4)
     d14:	5dc010ef          	jal	ra,22f0 <__adddf3>
     d18:	596030ef          	jal	ra,42ae <__fixdfsi>
     d1c:	47e2                	lw	a5,24(sp)
     d1e:	6695                	lui	a3,0x5
     d20:	a306a603          	lw	a2,-1488(a3) # 4a30 <__erodata+0x40>
     d24:	a346a683          	lw	a3,-1484(a3)
     d28:	872a                	mv	a4,a0
     d2a:	85ee                	mv	a1,s11
     d2c:	853e                	mv	a0,a5
     d2e:	8dba                	mv	s11,a4
     d30:	714020ef          	jal	ra,3444 <__muldf3>
     d34:	87aa                	mv	a5,a0
     d36:	856e                	mv	a0,s11
     d38:	cc3e                	sw	a5,24(sp)
     d3a:	d46e                	sw	s11,40(sp)
     d3c:	8dae                	mv	s11,a1
     d3e:	6d0030ef          	jal	ra,440e <__floatsidf>
     d42:	6715                	lui	a4,0x5
     d44:	a3872603          	lw	a2,-1480(a4) # 4a38 <__erodata+0x48>
     d48:	a3c72683          	lw	a3,-1476(a4)
     d4c:	6f8020ef          	jal	ra,3444 <__muldf3>
     d50:	47e2                	lw	a5,24(sp)
     d52:	862a                	mv	a2,a0
     d54:	86ae                	mv	a3,a1
     d56:	853e                	mv	a0,a5
     d58:	85ee                	mv	a1,s11
     d5a:	489020ef          	jal	ra,39e2 <__subdf3>
     d5e:	862a                	mv	a2,a0
     d60:	86ae                	mv	a3,a1
     d62:	d62a                	sw	a0,44(sp)
     d64:	cc2e                	sw	a1,24(sp)
     d66:	6de020ef          	jal	ra,3444 <__muldf3>
     d6a:	47e2                	lw	a5,24(sp)
     d6c:	5732                	lw	a4,44(sp)
     d6e:	8daa                	mv	s11,a0
     d70:	86be                	mv	a3,a5
     d72:	882e                	mv	a6,a1
     d74:	863a                	mv	a2,a4
     d76:	85be                	mv	a1,a5
     d78:	853a                	mv	a0,a4
     d7a:	da3e                	sw	a5,52(sp)
     d7c:	dc3a                	sw	a4,56(sp)
     d7e:	cc42                	sw	a6,24(sp)
     d80:	570010ef          	jal	ra,22f0 <__adddf3>
     d84:	6695                	lui	a3,0x5
     d86:	882e                	mv	a6,a1
     d88:	a406a603          	lw	a2,-1472(a3) # 4a40 <__erodata+0x50>
     d8c:	45e2                	lw	a1,24(sp)
     d8e:	a446a683          	lw	a3,-1468(a3)
     d92:	88aa                	mv	a7,a0
     d94:	856e                	mv	a0,s11
     d96:	d846                	sw	a7,48(sp)
     d98:	d642                	sw	a6,44(sp)
     d9a:	60f010ef          	jal	ra,2ba8 <__divdf3>
     d9e:	6715                	lui	a4,0x5
     da0:	a4872603          	lw	a2,-1464(a4) # 4a48 <__erodata+0x58>
     da4:	a4c72683          	lw	a3,-1460(a4)
     da8:	548010ef          	jal	ra,22f0 <__adddf3>
     dac:	86ae                	mv	a3,a1
     dae:	45e2                	lw	a1,24(sp)
     db0:	862a                	mv	a2,a0
     db2:	856e                	mv	a0,s11
     db4:	5f5010ef          	jal	ra,2ba8 <__divdf3>
     db8:	6695                	lui	a3,0x5
     dba:	a506a603          	lw	a2,-1456(a3) # 4a50 <__erodata+0x60>
     dbe:	a546a683          	lw	a3,-1452(a3)
     dc2:	52e010ef          	jal	ra,22f0 <__adddf3>
     dc6:	86ae                	mv	a3,a1
     dc8:	45e2                	lw	a1,24(sp)
     dca:	862a                	mv	a2,a0
     dcc:	856e                	mv	a0,s11
     dce:	5db010ef          	jal	ra,2ba8 <__divdf3>
     dd2:	5762                	lw	a4,56(sp)
     dd4:	57d2                	lw	a5,52(sp)
     dd6:	6695                	lui	a3,0x5
     dd8:	832a                	mv	t1,a0
     dda:	8dae                	mv	s11,a1
     ddc:	a586a503          	lw	a0,-1448(a3) # 4a58 <__erodata+0x68>
     de0:	a5c6a583          	lw	a1,-1444(a3)
     de4:	863a                	mv	a2,a4
     de6:	86be                	mv	a3,a5
     de8:	cc1a                	sw	t1,24(sp)
     dea:	3f9020ef          	jal	ra,39e2 <__subdf3>
     dee:	4362                	lw	t1,24(sp)
     df0:	862a                	mv	a2,a0
     df2:	86ae                	mv	a3,a1
     df4:	851a                	mv	a0,t1
     df6:	85ee                	mv	a1,s11
     df8:	4f8010ef          	jal	ra,22f0 <__adddf3>
     dfc:	58c2                	lw	a7,48(sp)
     dfe:	5832                	lw	a6,44(sp)
     e00:	862a                	mv	a2,a0
     e02:	86ae                	mv	a3,a1
     e04:	8546                	mv	a0,a7
     e06:	85c2                	mv	a1,a6
     e08:	5a1010ef          	jal	ra,2ba8 <__divdf3>
     e0c:	6795                	lui	a5,0x5
     e0e:	a607a603          	lw	a2,-1440(a5) # 4a60 <__erodata+0x70>
     e12:	a647a683          	lw	a3,-1436(a5)
     e16:	4da010ef          	jal	ra,22f0 <__adddf3>
     e1a:	57a2                	lw	a5,40(sp)
     e1c:	4601                	li	a2,0
     e1e:	3ff78793          	addi	a5,a5,1023
     e22:	07d2                	slli	a5,a5,0x14
     e24:	86be                	mv	a3,a5
     e26:	61e020ef          	jal	ra,3444 <__muldf3>
     e2a:	8622                	mv	a2,s0
     e2c:	86de                	mv	a3,s7
     e2e:	8daa                	mv	s11,a0
     e30:	cc2e                	sw	a1,24(sp)
     e32:	4a6020ef          	jal	ra,32d8 <__gedf2>
     e36:	18a04463          	bgtz	a0,fbe <_etoa+0x3ca>
     e3a:	43e2                	lw	t2,24(sp)
     e3c:	836e                	mv	t1,s11
     e3e:	063d0d93          	addi	s11,s10,99
     e42:	00bcd793          	srli	a5,s9,0xb
     e46:	0c600713          	li	a4,198
     e4a:	01b73db3          	sltu	s11,a4,s11
     e4e:	8b85                	andi	a5,a5,1
     e50:	0d91                	addi	s11,s11,4
     e52:	c7a1                	beqz	a5,e9a <_etoa+0x2a6>
     e54:	6795                	lui	a5,0x5
     e56:	a687a603          	lw	a2,-1432(a5) # 4a68 <__erodata+0x78>
     e5a:	a6c7a683          	lw	a3,-1428(a5)
     e5e:	8522                	mv	a0,s0
     e60:	85de                	mv	a1,s7
     e62:	cc1a                	sw	t1,24(sp)
     e64:	ce1e                	sw	t2,28(sp)
     e66:	472020ef          	jal	ra,32d8 <__gedf2>
     e6a:	4362                	lw	t1,24(sp)
     e6c:	43f2                	lw	t2,28(sp)
     e6e:	00054f63          	bltz	a0,e8c <_etoa+0x298>
     e72:	6795                	lui	a5,0x5
     e74:	a707a603          	lw	a2,-1424(a5) # 4a70 <__erodata+0x80>
     e78:	a747a683          	lw	a3,-1420(a5)
     e7c:	8522                	mv	a0,s0
     e7e:	85de                	mv	a1,s7
     e80:	50e020ef          	jal	ra,338e <__ledf2>
     e84:	4362                	lw	t1,24(sp)
     e86:	43f2                	lw	t2,28(sp)
     e88:	14054863          	bltz	a0,fd8 <_etoa+0x3e4>
     e8c:	000c0763          	beqz	s8,e9a <_etoa+0x2a6>
     e90:	57f2                	lw	a5,60(sp)
     e92:	00f037b3          	snez	a5,a5
     e96:	40fc0c33          	sub	s8,s8,a5
     e9a:	4881                	li	a7,0
     e9c:	016df463          	bgeu	s11,s6,ea4 <_etoa+0x2b0>
     ea0:	41bb08b3          	sub	a7,s6,s11
     ea4:	002cf793          	andi	a5,s9,2
     ea8:	d43e                	sw	a5,40(sp)
     eaa:	c799                	beqz	a5,eb8 <_etoa+0x2c4>
     eac:	001db793          	seqz	a5,s11
     eb0:	40f007b3          	neg	a5,a5
     eb4:	00f8f8b3          	and	a7,a7,a5
     eb8:	000d0c63          	beqz	s10,ed0 <_etoa+0x2dc>
     ebc:	85de                	mv	a1,s7
     ebe:	8522                	mv	a0,s0
     ec0:	861a                	mv	a2,t1
     ec2:	869e                	mv	a3,t2
     ec4:	cc46                	sw	a7,24(sp)
     ec6:	4e3010ef          	jal	ra,2ba8 <__divdf3>
     eca:	48e2                	lw	a7,24(sp)
     ecc:	d22a                	sw	a0,36(sp)
     ece:	8bae                	mv	s7,a1
     ed0:	8522                	mv	a0,s0
     ed2:	85a6                	mv	a1,s1
     ed4:	4601                	li	a2,0
     ed6:	4681                	li	a3,0
     ed8:	cc46                	sw	a7,24(sp)
     eda:	4b4020ef          	jal	ra,338e <__ledf2>
     ede:	48e2                	lw	a7,24(sp)
     ee0:	00055663          	bgez	a0,eec <_etoa+0x2f8>
     ee4:	800007b7          	lui	a5,0x80000
     ee8:	0177cbb3          	xor	s7,a5,s7
     eec:	5512                	lw	a0,36(sp)
     eee:	77fd                	lui	a5,0xfffff
     ef0:	7ff78793          	addi	a5,a5,2047 # fffff7ff <__kernel_stack+0xdff3f807>
     ef4:	00fcf7b3          	and	a5,s9,a5
     ef8:	c03e                	sw	a5,0(sp)
     efa:	872a                	mv	a4,a0
     efc:	8862                	mv	a6,s8
     efe:	87de                	mv	a5,s7
     f00:	86d6                	mv	a3,s5
     f02:	864a                	mv	a2,s2
     f04:	85d2                	mv	a1,s4
     f06:	854e                	mv	a0,s3
     f08:	20e5                	jal	ff0 <_ftoa>
     f0a:	842a                	mv	s0,a0
     f0c:	060d8163          	beqz	s11,f6e <_etoa+0x37a>
     f10:	01ac9513          	slli	a0,s9,0x1a
     f14:	857d                	srai	a0,a0,0x1f
     f16:	9901                	andi	a0,a0,-32
     f18:	8622                	mv	a2,s0
     f1a:	86d6                	mv	a3,s5
     f1c:	85d2                	mv	a1,s4
     f1e:	06550513          	addi	a0,a0,101
     f22:	9982                	jalr	s3
     f24:	41fd5713          	srai	a4,s10,0x1f
     f28:	01a746b3          	xor	a3,a4,s10
     f2c:	4795                	li	a5,5
     f2e:	1dfd                	addi	s11,s11,-1
     f30:	00140613          	addi	a2,s0,1
     f34:	c23e                	sw	a5,4(sp)
     f36:	40e68733          	sub	a4,a3,a4
     f3a:	01fd5793          	srli	a5,s10,0x1f
     f3e:	c06e                	sw	s11,0(sp)
     f40:	4881                	li	a7,0
     f42:	4829                	li	a6,10
     f44:	86d6                	mv	a3,s5
     f46:	85d2                	mv	a1,s4
     f48:	854e                	mv	a0,s3
     f4a:	3e15                	jal	a7e <_ntoa_long>
     f4c:	57a2                	lw	a5,40(sp)
     f4e:	842a                	mv	s0,a0
     f50:	cf99                	beqz	a5,f6e <_etoa+0x37a>
     f52:	41250933          	sub	s2,a0,s2
     f56:	01697c63          	bgeu	s2,s6,f6e <_etoa+0x37a>
     f5a:	8622                	mv	a2,s0
     f5c:	0905                	addi	s2,s2,1
     f5e:	86d6                	mv	a3,s5
     f60:	85d2                	mv	a1,s4
     f62:	02000513          	li	a0,32
     f66:	0405                	addi	s0,s0,1
     f68:	9982                	jalr	s3
     f6a:	ff6968e3          	bltu	s2,s6,f5a <_etoa+0x366>
     f6e:	50f6                	lw	ra,124(sp)
     f70:	8522                	mv	a0,s0
     f72:	5466                	lw	s0,120(sp)
     f74:	54d6                	lw	s1,116(sp)
     f76:	5946                	lw	s2,112(sp)
     f78:	59b6                	lw	s3,108(sp)
     f7a:	5a26                	lw	s4,104(sp)
     f7c:	5a96                	lw	s5,100(sp)
     f7e:	5b06                	lw	s6,96(sp)
     f80:	4bf6                	lw	s7,92(sp)
     f82:	4c66                	lw	s8,88(sp)
     f84:	4cd6                	lw	s9,84(sp)
     f86:	4d46                	lw	s10,80(sp)
     f88:	4db6                	lw	s11,76(sp)
     f8a:	6109                	addi	sp,sp,128
     f8c:	8082                	ret
     f8e:	8722                	mv	a4,s0
     f90:	5466                	lw	s0,120(sp)
     f92:	c166                	sw	s9,128(sp)
     f94:	50f6                	lw	ra,124(sp)
     f96:	4bf6                	lw	s7,92(sp)
     f98:	4cd6                	lw	s9,84(sp)
     f9a:	4d46                	lw	s10,80(sp)
     f9c:	4db6                	lw	s11,76(sp)
     f9e:	87a6                	mv	a5,s1
     fa0:	88da                	mv	a7,s6
     fa2:	54d6                	lw	s1,116(sp)
     fa4:	5b06                	lw	s6,96(sp)
     fa6:	8862                	mv	a6,s8
     fa8:	86d6                	mv	a3,s5
     faa:	4c66                	lw	s8,88(sp)
     fac:	5a96                	lw	s5,100(sp)
     fae:	864a                	mv	a2,s2
     fb0:	85d2                	mv	a1,s4
     fb2:	5946                	lw	s2,112(sp)
     fb4:	5a26                	lw	s4,104(sp)
     fb6:	854e                	mv	a0,s3
     fb8:	59b6                	lw	s3,108(sp)
     fba:	6109                	addi	sp,sp,128
     fbc:	a815                	j	ff0 <_ftoa>
     fbe:	6795                	lui	a5,0x5
     fc0:	a487a603          	lw	a2,-1464(a5) # 4a48 <__erodata+0x58>
     fc4:	a4c7a683          	lw	a3,-1460(a5)
     fc8:	45e2                	lw	a1,24(sp)
     fca:	856e                	mv	a0,s11
     fcc:	1d7d                	addi	s10,s10,-1
     fce:	3db010ef          	jal	ra,2ba8 <__divdf3>
     fd2:	832a                	mv	t1,a0
     fd4:	83ae                	mv	t2,a1
     fd6:	b5a5                	j	e3e <_etoa+0x24a>
     fd8:	018d5a63          	bge	s10,s8,fec <_etoa+0x3f8>
     fdc:	41ac0c33          	sub	s8,s8,s10
     fe0:	1c7d                	addi	s8,s8,-1
     fe2:	400cec93          	ori	s9,s9,1024
     fe6:	4d81                	li	s11,0
     fe8:	4d01                	li	s10,0
     fea:	bd45                	j	e9a <_etoa+0x2a6>
     fec:	4c01                	li	s8,0
     fee:	bfd5                	j	fe2 <_etoa+0x3ee>

00000ff0 <_ftoa>:
     ff0:	7119                	addi	sp,sp,-128
     ff2:	d6ce                	sw	s3,108(sp)
     ff4:	d4d2                	sw	s4,104(sp)
     ff6:	d2d6                	sw	s5,100(sp)
     ff8:	cce2                	sw	s8,88(sp)
     ffa:	89aa                	mv	s3,a0
     ffc:	8a2e                	mv	s4,a1
     ffe:	8ab2                	mv	s5,a2
    1000:	8c36                	mv	s8,a3
    1002:	863a                	mv	a2,a4
    1004:	86be                	mv	a3,a5
    1006:	853a                	mv	a0,a4
    1008:	85be                	mv	a1,a5
    100a:	dca2                	sw	s0,120(sp)
    100c:	daa6                	sw	s1,116(sp)
    100e:	d8ca                	sw	s2,112(sp)
    1010:	d0da                	sw	s6,96(sp)
    1012:	cae6                	sw	s9,84(sp)
    1014:	de86                	sw	ra,124(sp)
    1016:	cede                	sw	s7,92(sp)
    1018:	c8ea                	sw	s10,80(sp)
    101a:	c6ee                	sw	s11,76(sp)
    101c:	84ba                	mv	s1,a4
    101e:	843e                	mv	s0,a5
    1020:	8b42                	mv	s6,a6
    1022:	8946                	mv	s2,a7
    1024:	210020ef          	jal	ra,3234 <__eqdf2>
    1028:	4c8a                	lw	s9,128(sp)
    102a:	16051d63          	bnez	a0,11a4 <_ftoa+0x1b4>
    102e:	6795                	lui	a5,0x5
    1030:	9f87a603          	lw	a2,-1544(a5) # 49f8 <__erodata+0x8>
    1034:	9fc7a683          	lw	a3,-1540(a5)
    1038:	8526                	mv	a0,s1
    103a:	85a2                	mv	a1,s0
    103c:	352020ef          	jal	ra,338e <__ledf2>
    1040:	1e054463          	bltz	a0,1228 <_ftoa+0x238>
    1044:	6795                	lui	a5,0x5
    1046:	9f07a603          	lw	a2,-1552(a5) # 49f0 <__erodata>
    104a:	9f47a683          	lw	a3,-1548(a5)
    104e:	8526                	mv	a0,s1
    1050:	85a2                	mv	a1,s0
    1052:	286020ef          	jal	ra,32d8 <__gedf2>
    1056:	12a04d63          	bgtz	a0,1190 <_ftoa+0x1a0>
    105a:	6795                	lui	a5,0x5
    105c:	a787a603          	lw	a2,-1416(a5) # 4a78 <__erodata+0x88>
    1060:	a7c7a683          	lw	a3,-1412(a5)
    1064:	8526                	mv	a0,s1
    1066:	85a2                	mv	a1,s0
    1068:	270020ef          	jal	ra,32d8 <__gedf2>
    106c:	18a04663          	bgtz	a0,11f8 <_ftoa+0x208>
    1070:	6795                	lui	a5,0x5
    1072:	a807a603          	lw	a2,-1408(a5) # 4a80 <__erodata+0x90>
    1076:	a847a683          	lw	a3,-1404(a5)
    107a:	8526                	mv	a0,s1
    107c:	85a2                	mv	a1,s0
    107e:	310020ef          	jal	ra,338e <__ledf2>
    1082:	16054b63          	bltz	a0,11f8 <_ftoa+0x208>
    1086:	8526                	mv	a0,s1
    1088:	85a2                	mv	a1,s0
    108a:	4601                	li	a2,0
    108c:	4681                	li	a3,0
    108e:	300020ef          	jal	ra,338e <__ledf2>
    1092:	14054863          	bltz	a0,11e2 <_ftoa+0x1f2>
    1096:	ce02                	sw	zero,28(sp)
    1098:	400cf793          	andi	a5,s9,1024
    109c:	e391                	bnez	a5,10a0 <_ftoa+0xb0>
    109e:	4b19                	li	s6,6
    10a0:	1014                	addi	a3,sp,32
    10a2:	fe0b0513          	addi	a0,s6,-32
    10a6:	8bda                	mv	s7,s6
    10a8:	4625                	li	a2,9
    10aa:	03000593          	li	a1,48
    10ae:	a039                	j	10bc <_ftoa+0xcc>
    10b0:	00b68023          	sb	a1,0(a3)
    10b4:	1bfd                	addi	s7,s7,-1
    10b6:	0685                	addi	a3,a3,1
    10b8:	26ab8363          	beq	s7,a0,131e <_ftoa+0x32e>
    10bc:	417b0db3          	sub	s11,s6,s7
    10c0:	ff7668e3          	bltu	a2,s7,10b0 <_ftoa+0xc0>
    10c4:	85a2                	mv	a1,s0
    10c6:	8526                	mv	a0,s1
    10c8:	1e6030ef          	jal	ra,42ae <__fixdfsi>
    10cc:	6615                	lui	a2,0x5
    10ce:	82860613          	addi	a2,a2,-2008 # 4828 <pow10.0>
    10d2:	003b9693          	slli	a3,s7,0x3
    10d6:	96b2                	add	a3,a3,a2
    10d8:	0046a803          	lw	a6,4(a3)
    10dc:	429c                	lw	a5,0(a3)
    10de:	8d2a                	mv	s10,a0
    10e0:	c642                	sw	a6,12(sp)
    10e2:	c43e                	sw	a5,8(sp)
    10e4:	32a030ef          	jal	ra,440e <__floatsidf>
    10e8:	862a                	mv	a2,a0
    10ea:	86ae                	mv	a3,a1
    10ec:	8526                	mv	a0,s1
    10ee:	85a2                	mv	a1,s0
    10f0:	0f3020ef          	jal	ra,39e2 <__subdf3>
    10f4:	4622                	lw	a2,8(sp)
    10f6:	46b2                	lw	a3,12(sp)
    10f8:	34c020ef          	jal	ra,3444 <__muldf3>
    10fc:	ca2e                	sw	a1,20(sp)
    10fe:	cc2a                	sw	a0,24(sp)
    1100:	274030ef          	jal	ra,4374 <__fixunsdfsi>
    1104:	8b2a                	mv	s6,a0
    1106:	36e030ef          	jal	ra,4474 <__floatunsidf>
    110a:	47d2                	lw	a5,20(sp)
    110c:	4362                	lw	t1,24(sp)
    110e:	862a                	mv	a2,a0
    1110:	86ae                	mv	a3,a1
    1112:	851a                	mv	a0,t1
    1114:	85be                	mv	a1,a5
    1116:	0cd020ef          	jal	ra,39e2 <__subdf3>
    111a:	6715                	lui	a4,0x5
    111c:	a2872303          	lw	t1,-1496(a4) # 4a28 <__erodata+0x38>
    1120:	a2c72383          	lw	t2,-1492(a4)
    1124:	ca2a                	sw	a0,20(sp)
    1126:	861a                	mv	a2,t1
    1128:	869e                	mv	a3,t2
    112a:	cc2e                	sw	a1,24(sp)
    112c:	1ac020ef          	jal	ra,32d8 <__gedf2>
    1130:	6795                	lui	a5,0x5
    1132:	a287a303          	lw	t1,-1496(a5) # 4a28 <__erodata+0x38>
    1136:	a2c7a383          	lw	t2,-1492(a5)
    113a:	1ca05663          	blez	a0,1306 <_ftoa+0x316>
    113e:	0b05                	addi	s6,s6,1
    1140:	855a                	mv	a0,s6
    1142:	332030ef          	jal	ra,4474 <__floatunsidf>
    1146:	862a                	mv	a2,a0
    1148:	86ae                	mv	a3,a1
    114a:	4522                	lw	a0,8(sp)
    114c:	45b2                	lw	a1,12(sp)
    114e:	240020ef          	jal	ra,338e <__ledf2>
    1152:	00a04463          	bgtz	a0,115a <_ftoa+0x16a>
    1156:	0d05                	addi	s10,s10,1
    1158:	4b01                	li	s6,0
    115a:	100b8d63          	beqz	s7,1274 <_ftoa+0x284>
    115e:	02000313          	li	t1,32
    1162:	4629                	li	a2,10
    1164:	4e25                	li	t3,9
    1166:	0c6d8863          	beq	s11,t1,1236 <_ftoa+0x246>
    116a:	02cb76b3          	remu	a3,s6,a2
    116e:	0d85                	addi	s11,s11,1
    1170:	101c                	addi	a5,sp,32
    1172:	01b78533          	add	a0,a5,s11
    1176:	fffb8593          	addi	a1,s7,-1 # 7fffffff <__kernel_stack+0x5ff40007>
    117a:	03068693          	addi	a3,a3,48
    117e:	fed50fa3          	sb	a3,-1(a0)
    1182:	02cb56b3          	divu	a3,s6,a2
    1186:	1f6e7b63          	bgeu	t3,s6,137c <_ftoa+0x38c>
    118a:	8bae                	mv	s7,a1
    118c:	8b36                	mv	s6,a3
    118e:	bfe1                	j	1166 <_ftoa+0x176>
    1190:	004cf793          	andi	a5,s9,4
    1194:	e3b1                	bnez	a5,11d8 <_ftoa+0x1e8>
    1196:	6711                	lui	a4,0x4
    1198:	62c70713          	addi	a4,a4,1580 # 462c <lin+0x100>
    119c:	478d                	li	a5,3
    119e:	88e6                	mv	a7,s9
    11a0:	884a                	mv	a6,s2
    11a2:	a039                	j	11b0 <_ftoa+0x1c0>
    11a4:	6711                	lui	a4,0x4
    11a6:	88e6                	mv	a7,s9
    11a8:	884a                	mv	a6,s2
    11aa:	478d                	li	a5,3
    11ac:	63870713          	addi	a4,a4,1592 # 4638 <lin+0x10c>
    11b0:	5466                	lw	s0,120(sp)
    11b2:	50f6                	lw	ra,124(sp)
    11b4:	54d6                	lw	s1,116(sp)
    11b6:	5946                	lw	s2,112(sp)
    11b8:	5b06                	lw	s6,96(sp)
    11ba:	4bf6                	lw	s7,92(sp)
    11bc:	4cd6                	lw	s9,84(sp)
    11be:	4d46                	lw	s10,80(sp)
    11c0:	4db6                	lw	s11,76(sp)
    11c2:	86e2                	mv	a3,s8
    11c4:	8656                	mv	a2,s5
    11c6:	4c66                	lw	s8,88(sp)
    11c8:	5a96                	lw	s5,100(sp)
    11ca:	85d2                	mv	a1,s4
    11cc:	854e                	mv	a0,s3
    11ce:	5a26                	lw	s4,104(sp)
    11d0:	59b6                	lw	s3,108(sp)
    11d2:	6109                	addi	sp,sp,128
    11d4:	ddaff06f          	j	7ae <_out_rev>
    11d8:	6711                	lui	a4,0x4
    11da:	63070713          	addi	a4,a4,1584 # 4630 <lin+0x104>
    11de:	4791                	li	a5,4
    11e0:	bf7d                	j	119e <_ftoa+0x1ae>
    11e2:	8626                	mv	a2,s1
    11e4:	86a2                	mv	a3,s0
    11e6:	4501                	li	a0,0
    11e8:	4581                	li	a1,0
    11ea:	7f8020ef          	jal	ra,39e2 <__subdf3>
    11ee:	4785                	li	a5,1
    11f0:	84aa                	mv	s1,a0
    11f2:	842e                	mv	s0,a1
    11f4:	ce3e                	sw	a5,28(sp)
    11f6:	b54d                	j	1098 <_ftoa+0xa8>
    11f8:	87a2                	mv	a5,s0
    11fa:	5466                	lw	s0,120(sp)
    11fc:	c166                	sw	s9,128(sp)
    11fe:	50f6                	lw	ra,124(sp)
    1200:	4bf6                	lw	s7,92(sp)
    1202:	4cd6                	lw	s9,84(sp)
    1204:	4d46                	lw	s10,80(sp)
    1206:	4db6                	lw	s11,76(sp)
    1208:	8726                	mv	a4,s1
    120a:	88ca                	mv	a7,s2
    120c:	54d6                	lw	s1,116(sp)
    120e:	5946                	lw	s2,112(sp)
    1210:	885a                	mv	a6,s6
    1212:	86e2                	mv	a3,s8
    1214:	5b06                	lw	s6,96(sp)
    1216:	4c66                	lw	s8,88(sp)
    1218:	8656                	mv	a2,s5
    121a:	85d2                	mv	a1,s4
    121c:	5a96                	lw	s5,100(sp)
    121e:	5a26                	lw	s4,104(sp)
    1220:	854e                	mv	a0,s3
    1222:	59b6                	lw	s3,108(sp)
    1224:	6109                	addi	sp,sp,128
    1226:	b2f9                	j	bf4 <_etoa>
    1228:	6711                	lui	a4,0x4
    122a:	88e6                	mv	a7,s9
    122c:	884a                	mv	a6,s2
    122e:	4791                	li	a5,4
    1230:	63c70713          	addi	a4,a4,1596 # 463c <lin+0x110>
    1234:	bfb5                	j	11b0 <_ftoa+0x1c0>
    1236:	003cf793          	andi	a5,s9,3
    123a:	4705                	li	a4,1
    123c:	0ee78463          	beq	a5,a4,1324 <_ftoa+0x334>
    1240:	02000793          	li	a5,32
    1244:	88e6                	mv	a7,s9
    1246:	884a                	mv	a6,s2
    1248:	1018                	addi	a4,sp,32
    124a:	86e2                	mv	a3,s8
    124c:	8656                	mv	a2,s5
    124e:	85d2                	mv	a1,s4
    1250:	854e                	mv	a0,s3
    1252:	d5cff0ef          	jal	ra,7ae <_out_rev>
    1256:	50f6                	lw	ra,124(sp)
    1258:	5466                	lw	s0,120(sp)
    125a:	54d6                	lw	s1,116(sp)
    125c:	5946                	lw	s2,112(sp)
    125e:	59b6                	lw	s3,108(sp)
    1260:	5a26                	lw	s4,104(sp)
    1262:	5a96                	lw	s5,100(sp)
    1264:	5b06                	lw	s6,96(sp)
    1266:	4bf6                	lw	s7,92(sp)
    1268:	4c66                	lw	s8,88(sp)
    126a:	4cd6                	lw	s9,84(sp)
    126c:	4d46                	lw	s10,80(sp)
    126e:	4db6                	lw	s11,76(sp)
    1270:	6109                	addi	sp,sp,128
    1272:	8082                	ret
    1274:	856a                	mv	a0,s10
    1276:	198030ef          	jal	ra,440e <__floatsidf>
    127a:	862a                	mv	a2,a0
    127c:	86ae                	mv	a3,a1
    127e:	8526                	mv	a0,s1
    1280:	85a2                	mv	a1,s0
    1282:	760020ef          	jal	ra,39e2 <__subdf3>
    1286:	6795                	lui	a5,0x5
    1288:	a287ab03          	lw	s6,-1496(a5) # 4a28 <__erodata+0x38>
    128c:	a2c7ab83          	lw	s7,-1492(a5)
    1290:	84aa                	mv	s1,a0
    1292:	865a                	mv	a2,s6
    1294:	86de                	mv	a3,s7
    1296:	842e                	mv	s0,a1
    1298:	0f6020ef          	jal	ra,338e <__ledf2>
    129c:	00055a63          	bgez	a0,12b0 <_ftoa+0x2c0>
    12a0:	8526                	mv	a0,s1
    12a2:	85a2                	mv	a1,s0
    12a4:	865a                	mv	a2,s6
    12a6:	86de                	mv	a3,s7
    12a8:	030020ef          	jal	ra,32d8 <__gedf2>
    12ac:	00a05563          	blez	a0,12b6 <_ftoa+0x2c6>
    12b0:	001d7793          	andi	a5,s10,1
    12b4:	9d3e                	add	s10,s10,a5
    12b6:	02000593          	li	a1,32
    12ba:	46a9                	li	a3,10
    12bc:	f6bd8de3          	beq	s11,a1,1236 <_ftoa+0x246>
    12c0:	02dd67b3          	rem	a5,s10,a3
    12c4:	0d85                	addi	s11,s11,1
    12c6:	1018                	addi	a4,sp,32
    12c8:	01b70633          	add	a2,a4,s11
    12cc:	02dd4d33          	div	s10,s10,a3
    12d0:	03078793          	addi	a5,a5,48
    12d4:	fef60fa3          	sb	a5,-1(a2)
    12d8:	fe0d12e3          	bnez	s10,12bc <_ftoa+0x2cc>
    12dc:	003cf793          	andi	a5,s9,3
    12e0:	4685                	li	a3,1
    12e2:	04d78363          	beq	a5,a3,1328 <_ftoa+0x338>
    12e6:	02000693          	li	a3,32
    12ea:	f4dd8be3          	beq	s11,a3,1240 <_ftoa+0x250>
    12ee:	47f2                	lw	a5,28(sp)
    12f0:	c7bd                	beqz	a5,135e <_ftoa+0x36e>
    12f2:	009c                	addi	a5,sp,64
    12f4:	01b786b3          	add	a3,a5,s11
    12f8:	02d00713          	li	a4,45
    12fc:	001d8793          	addi	a5,s11,1
    1300:	fee68023          	sb	a4,-32(a3)
    1304:	b781                	j	1244 <_ftoa+0x254>
    1306:	4552                	lw	a0,20(sp)
    1308:	45e2                	lw	a1,24(sp)
    130a:	861a                	mv	a2,t1
    130c:	869e                	mv	a3,t2
    130e:	080020ef          	jal	ra,338e <__ledf2>
    1312:	e40544e3          	bltz	a0,115a <_ftoa+0x16a>
    1316:	0a0b1263          	bnez	s6,13ba <_ftoa+0x3ca>
    131a:	0b05                	addi	s6,s6,1
    131c:	bd3d                	j	115a <_ftoa+0x16a>
    131e:	02000d93          	li	s11,32
    1322:	b34d                	j	10c4 <_ftoa+0xd4>
    1324:	02000d93          	li	s11,32
    1328:	fa090fe3          	beqz	s2,12e6 <_ftoa+0x2f6>
    132c:	47f2                	lw	a5,28(sp)
    132e:	e7d5                	bnez	a5,13da <_ftoa+0x3ea>
    1330:	00ccf793          	andi	a5,s9,12
    1334:	e3dd                	bnez	a5,13da <_ftoa+0x3ea>
    1336:	fb2df8e3          	bgeu	s11,s2,12e6 <_ftoa+0x2f6>
    133a:	02000793          	li	a5,32
    133e:	03000613          	li	a2,48
    1342:	02000693          	li	a3,32
    1346:	eefd8de3          	beq	s11,a5,1240 <_ftoa+0x250>
    134a:	0d85                	addi	s11,s11,1
    134c:	101c                	addi	a5,sp,32
    134e:	97ee                	add	a5,a5,s11
    1350:	fec78fa3          	sb	a2,-1(a5)
    1354:	f92d89e3          	beq	s11,s2,12e6 <_ftoa+0x2f6>
    1358:	fedd99e3          	bne	s11,a3,134a <_ftoa+0x35a>
    135c:	b5d5                	j	1240 <_ftoa+0x250>
    135e:	004cf793          	andi	a5,s9,4
    1362:	e3b5                	bnez	a5,13c6 <_ftoa+0x3d6>
    1364:	008cf613          	andi	a2,s9,8
    1368:	87ee                	mv	a5,s11
    136a:	ec060de3          	beqz	a2,1244 <_ftoa+0x254>
    136e:	0098                	addi	a4,sp,64
    1370:	976e                	add	a4,a4,s11
    1372:	001d8793          	addi	a5,s11,1
    1376:	fed70023          	sb	a3,-32(a4)
    137a:	b5e9                	j	1244 <_ftoa+0x254>
    137c:	ea6d8de3          	beq	s11,t1,1236 <_ftoa+0x246>
    1380:	866e                	mv	a2,s11
    1382:	03000893          	li	a7,48
    1386:	02000513          	li	a0,32
    138a:	cd99                	beqz	a1,13a8 <_ftoa+0x3b8>
    138c:	0605                	addi	a2,a2,1
    138e:	101c                	addi	a5,sp,32
    1390:	fff64693          	not	a3,a2
    1394:	00c785b3          	add	a1,a5,a2
    1398:	96ee                	add	a3,a3,s11
    139a:	ff158fa3          	sb	a7,-1(a1)
    139e:	96de                	add	a3,a3,s7
    13a0:	e8a60be3          	beq	a2,a0,1236 <_ftoa+0x246>
    13a4:	fe0694e3          	bnez	a3,138c <_ftoa+0x39c>
    13a8:	009c                	addi	a5,sp,64
    13aa:	97b2                	add	a5,a5,a2
    13ac:	02e00693          	li	a3,46
    13b0:	00160d93          	addi	s11,a2,1
    13b4:	fed78023          	sb	a3,-32(a5)
    13b8:	bdfd                	j	12b6 <_ftoa+0x2c6>
    13ba:	001b7693          	andi	a3,s6,1
    13be:	d8068ee3          	beqz	a3,115a <_ftoa+0x16a>
    13c2:	0b05                	addi	s6,s6,1
    13c4:	bb59                	j	115a <_ftoa+0x16a>
    13c6:	009c                	addi	a5,sp,64
    13c8:	01b786b3          	add	a3,a5,s11
    13cc:	02b00713          	li	a4,43
    13d0:	001d8793          	addi	a5,s11,1
    13d4:	fee68023          	sb	a4,-32(a3)
    13d8:	b5b5                	j	1244 <_ftoa+0x254>
    13da:	197d                	addi	s2,s2,-1
    13dc:	bfa9                	j	1336 <_ftoa+0x346>

000013de <_out_char>:
    13de:	e111                	bnez	a0,13e2 <_out_char+0x4>
    13e0:	8082                	ret
    13e2:	55fd                	li	a1,-1
    13e4:	b70ff06f          	j	754 <fputc>

000013e8 <_vsnprintf>:
    13e8:	7159                	addi	sp,sp,-112
    13ea:	d4a2                	sw	s0,104(sp)
    13ec:	d2a6                	sw	s1,100(sp)
    13ee:	d0ca                	sw	s2,96(sp)
    13f0:	cece                	sw	s3,92(sp)
    13f2:	c6de                	sw	s7,76(sp)
    13f4:	d686                	sw	ra,108(sp)
    13f6:	ccd2                	sw	s4,88(sp)
    13f8:	cad6                	sw	s5,84(sp)
    13fa:	c8da                	sw	s6,80(sp)
    13fc:	c4e2                	sw	s8,72(sp)
    13fe:	c2e6                	sw	s9,68(sp)
    1400:	c0ea                	sw	s10,64(sp)
    1402:	de6e                	sw	s11,60(sp)
    1404:	892e                	mv	s2,a1
    1406:	84b2                	mv	s1,a2
    1408:	8bb6                	mv	s7,a3
    140a:	843a                	mv	s0,a4
    140c:	89aa                	mv	s3,a0
    140e:	38058f63          	beqz	a1,17ac <_vsnprintf+0x3c4>
    1412:	000bc503          	lbu	a0,0(s7)
    1416:	4d81                	li	s11,0
    1418:	3a050163          	beqz	a0,17ba <_vsnprintf+0x3d2>
    141c:	6791                	lui	a5,0x4
    141e:	6d478793          	addi	a5,a5,1748 # 46d4 <lin+0x1a8>
    1422:	6b11                	lui	s6,0x4
    1424:	6a11                	lui	s4,0x4
    1426:	d23e                	sw	a5,36(sp)
    1428:	688b0793          	addi	a5,s6,1672 # 4688 <lin+0x15c>
    142c:	02500a93          	li	s5,37
    1430:	644a0a13          	addi	s4,s4,1604 # 4644 <lin+0x118>
    1434:	d03e                	sw	a5,32(sp)
    1436:	a809                	j	1448 <_vsnprintf+0x60>
    1438:	866e                	mv	a2,s11
    143a:	86a6                	mv	a3,s1
    143c:	85ca                	mv	a1,s2
    143e:	0d85                	addi	s11,s11,1
    1440:	9982                	jalr	s3
    1442:	000bc503          	lbu	a0,0(s7)
    1446:	c955                	beqz	a0,14fa <_vsnprintf+0x112>
    1448:	0b85                	addi	s7,s7,1
    144a:	ff5517e3          	bne	a0,s5,1438 <_vsnprintf+0x50>
    144e:	4681                	li	a3,0
    1450:	45c1                	li	a1,16
    1452:	000bc503          	lbu	a0,0(s7)
    1456:	001b8713          	addi	a4,s7,1
    145a:	863a                	mv	a2,a4
    145c:	fe050793          	addi	a5,a0,-32
    1460:	0ff7f793          	andi	a5,a5,255
    1464:	00f5e663          	bltu	a1,a5,1470 <_vsnprintf+0x88>
    1468:	078a                	slli	a5,a5,0x2
    146a:	97d2                	add	a5,a5,s4
    146c:	439c                	lw	a5,0(a5)
    146e:	8782                	jr	a5
    1470:	fd050793          	addi	a5,a0,-48
    1474:	0ff7f793          	andi	a5,a5,255
    1478:	45a5                	li	a1,9
    147a:	10f5f263          	bgeu	a1,a5,157e <_vsnprintf+0x196>
    147e:	02a00793          	li	a5,42
    1482:	12f50863          	beq	a0,a5,15b2 <_vsnprintf+0x1ca>
    1486:	865e                	mv	a2,s7
    1488:	4c01                	li	s8,0
    148a:	8bba                	mv	s7,a4
    148c:	02e00793          	li	a5,46
    1490:	4b01                	li	s6,0
    1492:	08f50e63          	beq	a0,a5,152e <_vsnprintf+0x146>
    1496:	f9850793          	addi	a5,a0,-104
    149a:	0ff7f793          	andi	a5,a5,255
    149e:	4749                	li	a4,18
    14a0:	00f76c63          	bltu	a4,a5,14b8 <_vsnprintf+0xd0>
    14a4:	5702                	lw	a4,32(sp)
    14a6:	078a                	slli	a5,a5,0x2
    14a8:	97ba                	add	a5,a5,a4
    14aa:	439c                	lw	a5,0(a5)
    14ac:	8782                	jr	a5
    14ae:	00164503          	lbu	a0,1(a2)
    14b2:	1006e693          	ori	a3,a3,256
    14b6:	0b85                	addi	s7,s7,1
    14b8:	fdb50793          	addi	a5,a0,-37
    14bc:	0ff7f793          	andi	a5,a5,255
    14c0:	05300713          	li	a4,83
    14c4:	f6f76ae3          	bltu	a4,a5,1438 <_vsnprintf+0x50>
    14c8:	5712                	lw	a4,36(sp)
    14ca:	078a                	slli	a5,a5,0x2
    14cc:	97ba                	add	a5,a5,a4
    14ce:	439c                	lw	a5,0(a5)
    14d0:	8782                	jr	a5
    14d2:	0016e693          	ori	a3,a3,1
    14d6:	8bba                	mv	s7,a4
    14d8:	bfad                	j	1452 <_vsnprintf+0x6a>
    14da:	0026e693          	ori	a3,a3,2
    14de:	8bba                	mv	s7,a4
    14e0:	bf8d                	j	1452 <_vsnprintf+0x6a>
    14e2:	0046e693          	ori	a3,a3,4
    14e6:	8bba                	mv	s7,a4
    14e8:	b7ad                	j	1452 <_vsnprintf+0x6a>
    14ea:	0106e693          	ori	a3,a3,16
    14ee:	8bba                	mv	s7,a4
    14f0:	b78d                	j	1452 <_vsnprintf+0x6a>
    14f2:	0086e693          	ori	a3,a3,8
    14f6:	8bba                	mv	s7,a4
    14f8:	bfa9                	j	1452 <_vsnprintf+0x6a>
    14fa:	846e                	mv	s0,s11
    14fc:	009de463          	bltu	s11,s1,1504 <_vsnprintf+0x11c>
    1500:	fff48d93          	addi	s11,s1,-1
    1504:	86a6                	mv	a3,s1
    1506:	866e                	mv	a2,s11
    1508:	85ca                	mv	a1,s2
    150a:	4501                	li	a0,0
    150c:	9982                	jalr	s3
    150e:	50b6                	lw	ra,108(sp)
    1510:	8522                	mv	a0,s0
    1512:	5426                	lw	s0,104(sp)
    1514:	5496                	lw	s1,100(sp)
    1516:	5906                	lw	s2,96(sp)
    1518:	49f6                	lw	s3,92(sp)
    151a:	4a66                	lw	s4,88(sp)
    151c:	4ad6                	lw	s5,84(sp)
    151e:	4b46                	lw	s6,80(sp)
    1520:	4bb6                	lw	s7,76(sp)
    1522:	4c26                	lw	s8,72(sp)
    1524:	4c96                	lw	s9,68(sp)
    1526:	4d06                	lw	s10,64(sp)
    1528:	5df2                	lw	s11,60(sp)
    152a:	6165                	addi	sp,sp,112
    152c:	8082                	ret
    152e:	00164503          	lbu	a0,1(a2)
    1532:	4725                	li	a4,9
    1534:	4006e693          	ori	a3,a3,1024
    1538:	fd050793          	addi	a5,a0,-48
    153c:	0ff7f793          	andi	a5,a5,255
    1540:	00f77963          	bgeu	a4,a5,1552 <_vsnprintf+0x16a>
    1544:	02a00793          	li	a5,42
    1548:	26f50d63          	beq	a0,a5,17c2 <_vsnprintf+0x3da>
    154c:	865e                	mv	a2,s7
    154e:	0b85                	addi	s7,s7,1
    1550:	b799                	j	1496 <_vsnprintf+0xae>
    1552:	002b1793          	slli	a5,s6,0x2
    1556:	01678833          	add	a6,a5,s6
    155a:	85de                	mv	a1,s7
    155c:	0806                	slli	a6,a6,0x1
    155e:	0b85                	addi	s7,s7,1
    1560:	982a                	add	a6,a6,a0
    1562:	000bc503          	lbu	a0,0(s7)
    1566:	fd080b13          	addi	s6,a6,-48
    156a:	fd050793          	addi	a5,a0,-48
    156e:	0ff7f793          	andi	a5,a5,255
    1572:	fef770e3          	bgeu	a4,a5,1552 <_vsnprintf+0x16a>
    1576:	865e                	mv	a2,s7
    1578:	00258b93          	addi	s7,a1,2
    157c:	bf29                	j	1496 <_vsnprintf+0xae>
    157e:	4c01                	li	s8,0
    1580:	4625                	li	a2,9
    1582:	a011                	j	1586 <_vsnprintf+0x19e>
    1584:	0705                	addi	a4,a4,1
    1586:	002c1793          	slli	a5,s8,0x2
    158a:	018788b3          	add	a7,a5,s8
    158e:	0886                	slli	a7,a7,0x1
    1590:	98aa                	add	a7,a7,a0
    1592:	00074503          	lbu	a0,0(a4)
    1596:	85de                	mv	a1,s7
    1598:	fd088c13          	addi	s8,a7,-48
    159c:	fd050793          	addi	a5,a0,-48
    15a0:	0ff7f793          	andi	a5,a5,255
    15a4:	8bba                	mv	s7,a4
    15a6:	fcf67fe3          	bgeu	a2,a5,1584 <_vsnprintf+0x19c>
    15aa:	863a                	mv	a2,a4
    15ac:	00258b93          	addi	s7,a1,2
    15b0:	bdf1                	j	148c <_vsnprintf+0xa4>
    15b2:	00042c03          	lw	s8,0(s0)
    15b6:	0411                	addi	s0,s0,4
    15b8:	000c4663          	bltz	s8,15c4 <_vsnprintf+0x1dc>
    15bc:	001bc503          	lbu	a0,1(s7)
    15c0:	0b89                	addi	s7,s7,2
    15c2:	b5e9                	j	148c <_vsnprintf+0xa4>
    15c4:	001bc503          	lbu	a0,1(s7)
    15c8:	0026e693          	ori	a3,a3,2
    15cc:	41800c33          	neg	s8,s8
    15d0:	0b89                	addi	s7,s7,2
    15d2:	bd6d                	j	148c <_vsnprintf+0xa4>
    15d4:	07800793          	li	a5,120
    15d8:	3af50463          	beq	a0,a5,1980 <_vsnprintf+0x598>
    15dc:	05800793          	li	a5,88
    15e0:	28f50b63          	beq	a0,a5,1876 <_vsnprintf+0x48e>
    15e4:	06f00793          	li	a5,111
    15e8:	3cf50363          	beq	a0,a5,19ae <_vsnprintf+0x5c6>
    15ec:	06200793          	li	a5,98
    15f0:	40f50763          	beq	a0,a5,19fe <_vsnprintf+0x616>
    15f4:	06900713          	li	a4,105
    15f8:	fef6f593          	andi	a1,a3,-17
    15fc:	4006f793          	andi	a5,a3,1024
    1600:	42e51363          	bne	a0,a4,1a26 <_vsnprintf+0x63e>
    1604:	38079663          	bnez	a5,1990 <_vsnprintf+0x5a8>
    1608:	2006f693          	andi	a3,a3,512
    160c:	4829                	li	a6,10
    160e:	32069763          	bnez	a3,193c <_vsnprintf+0x554>
    1612:	1005f793          	andi	a5,a1,256
    1616:	00440c93          	addi	s9,s0,4
    161a:	3c079563          	bnez	a5,19e4 <_vsnprintf+0x5fc>
    161e:	0405f793          	andi	a5,a1,64
    1622:	36079c63          	bnez	a5,199a <_vsnprintf+0x5b2>
    1626:	0805f793          	andi	a5,a1,128
    162a:	3c078c63          	beqz	a5,1a02 <_vsnprintf+0x61a>
    162e:	00041783          	lh	a5,0(s0)
    1632:	40f7d693          	srai	a3,a5,0xf
    1636:	00d7c733          	xor	a4,a5,a3
    163a:	8f15                	sub	a4,a4,a3
    163c:	0742                	slli	a4,a4,0x10
    163e:	8341                	srli	a4,a4,0x10
    1640:	866e                	mv	a2,s11
    1642:	c22e                	sw	a1,4(sp)
    1644:	c062                	sw	s8,0(sp)
    1646:	88da                	mv	a7,s6
    1648:	83fd                	srli	a5,a5,0x1f
    164a:	86a6                	mv	a3,s1
    164c:	85ca                	mv	a1,s2
    164e:	854e                	mv	a0,s3
    1650:	c2eff0ef          	jal	ra,a7e <_ntoa_long>
    1654:	8daa                	mv	s11,a0
    1656:	8466                	mv	s0,s9
    1658:	b3ed                	j	1442 <_vsnprintf+0x5a>
    165a:	00164503          	lbu	a0,1(a2)
    165e:	2006e693          	ori	a3,a3,512
    1662:	0b85                	addi	s7,s7,1
    1664:	bd91                	j	14b8 <_vsnprintf+0xd0>
    1666:	00164503          	lbu	a0,1(a2)
    166a:	06800793          	li	a5,104
    166e:	1ef50963          	beq	a0,a5,1860 <_vsnprintf+0x478>
    1672:	0806e693          	ori	a3,a3,128
    1676:	0b85                	addi	s7,s7,1
    1678:	b581                	j	14b8 <_vsnprintf+0xd0>
    167a:	00164503          	lbu	a0,1(a2)
    167e:	06c00793          	li	a5,108
    1682:	e2f518e3          	bne	a0,a5,14b2 <_vsnprintf+0xca>
    1686:	00264503          	lbu	a0,2(a2)
    168a:	3006e693          	ori	a3,a3,768
    168e:	00360b93          	addi	s7,a2,3
    1692:	b51d                	j	14b8 <_vsnprintf+0xd0>
    1694:	04600793          	li	a5,70
    1698:	18f50263          	beq	a0,a5,181c <_vsnprintf+0x434>
    169c:	041d                	addi	s0,s0,7
    169e:	9861                	andi	s0,s0,-8
    16a0:	4018                	lw	a4,0(s0)
    16a2:	405c                	lw	a5,4(s0)
    16a4:	866e                	mv	a2,s11
    16a6:	c036                	sw	a3,0(sp)
    16a8:	88e2                	mv	a7,s8
    16aa:	885a                	mv	a6,s6
    16ac:	86a6                	mv	a3,s1
    16ae:	85ca                	mv	a1,s2
    16b0:	854e                	mv	a0,s3
    16b2:	93fff0ef          	jal	ra,ff0 <_ftoa>
    16b6:	0421                	addi	s0,s0,8
    16b8:	8daa                	mv	s11,a0
    16ba:	b361                	j	1442 <_vsnprintf+0x5a>
    16bc:	001d8d13          	addi	s10,s11,1
    16c0:	8a89                	andi	a3,a3,2
    16c2:	8cea                	mv	s9,s10
    16c4:	00440b13          	addi	s6,s0,4
    16c8:	20068463          	beqz	a3,18d0 <_vsnprintf+0x4e8>
    16cc:	00044503          	lbu	a0,0(s0)
    16d0:	866e                	mv	a2,s11
    16d2:	86a6                	mv	a3,s1
    16d4:	85ca                	mv	a1,s2
    16d6:	9982                	jalr	s3
    16d8:	4785                	li	a5,1
    16da:	9de2                	add	s11,s11,s8
    16dc:	2d87f663          	bgeu	a5,s8,19a8 <_vsnprintf+0x5c0>
    16e0:	8666                	mv	a2,s9
    16e2:	86a6                	mv	a3,s1
    16e4:	0c85                	addi	s9,s9,1
    16e6:	85ca                	mv	a1,s2
    16e8:	02000513          	li	a0,32
    16ec:	9982                	jalr	s3
    16ee:	ff9d99e3          	bne	s11,s9,16e0 <_vsnprintf+0x2f8>
    16f2:	845a                	mv	s0,s6
    16f4:	b3b9                	j	1442 <_vsnprintf+0x5a>
    16f6:	866e                	mv	a2,s11
    16f8:	86a6                	mv	a3,s1
    16fa:	85ca                	mv	a1,s2
    16fc:	02500513          	li	a0,37
    1700:	0d85                	addi	s11,s11,1
    1702:	9982                	jalr	s3
    1704:	bb3d                	j	1442 <_vsnprintf+0x5a>
    1706:	00042d03          	lw	s10,0(s0)
    170a:	00440793          	addi	a5,s0,4
    170e:	d63e                	sw	a5,44(sp)
    1710:	000d4503          	lbu	a0,0(s10)
    1714:	0c0b1563          	bnez	s6,17de <_vsnprintf+0x3f6>
    1718:	5cf9                	li	s9,-2
    171a:	2e050b63          	beqz	a0,1a10 <_vsnprintf+0x628>
    171e:	0c85                	addi	s9,s9,1
    1720:	9cea                	add	s9,s9,s10
    1722:	87ea                	mv	a5,s10
    1724:	a019                	j	172a <_vsnprintf+0x342>
    1726:	14fc8463          	beq	s9,a5,186e <_vsnprintf+0x486>
    172a:	0017c703          	lbu	a4,1(a5)
    172e:	0785                	addi	a5,a5,1
    1730:	fb7d                	bnez	a4,1726 <_vsnprintf+0x33e>
    1732:	41a787b3          	sub	a5,a5,s10
    1736:	d43e                	sw	a5,40(sp)
    1738:	4006f793          	andi	a5,a3,1024
    173c:	ce3e                	sw	a5,28(sp)
    173e:	c789                	beqz	a5,1748 <_vsnprintf+0x360>
    1740:	57a2                	lw	a5,40(sp)
    1742:	00fb7363          	bgeu	s6,a5,1748 <_vsnprintf+0x360>
    1746:	d45a                	sw	s6,40(sp)
    1748:	0026f413          	andi	s0,a3,2
    174c:	1a040d63          	beqz	s0,1906 <_vsnprintf+0x51e>
    1750:	0c050a63          	beqz	a0,1824 <_vsnprintf+0x43c>
    1754:	866e                	mv	a2,s11
    1756:	a011                	j	175a <_vsnprintf+0x372>
    1758:	8666                	mv	a2,s9
    175a:	47f2                	lw	a5,28(sp)
    175c:	c791                	beqz	a5,1768 <_vsnprintf+0x380>
    175e:	fffb0793          	addi	a5,s6,-1
    1762:	160b0563          	beqz	s6,18cc <_vsnprintf+0x4e4>
    1766:	8b3e                	mv	s6,a5
    1768:	86a6                	mv	a3,s1
    176a:	85ca                	mv	a1,s2
    176c:	00160c93          	addi	s9,a2,1
    1770:	9982                	jalr	s3
    1772:	41bc87b3          	sub	a5,s9,s11
    1776:	97ea                	add	a5,a5,s10
    1778:	0007c503          	lbu	a0,0(a5)
    177c:	fd71                	bnez	a0,1758 <_vsnprintf+0x370>
    177e:	0a041263          	bnez	s0,1822 <_vsnprintf+0x43a>
    1782:	5432                	lw	s0,44(sp)
    1784:	8de6                	mv	s11,s9
    1786:	b975                	j	1442 <_vsnprintf+0x5a>
    1788:	4018                	lw	a4,0(s0)
    178a:	0216e693          	ori	a3,a3,33
    178e:	47a1                	li	a5,8
    1790:	866e                	mv	a2,s11
    1792:	c236                	sw	a3,4(sp)
    1794:	c03e                	sw	a5,0(sp)
    1796:	88da                	mv	a7,s6
    1798:	4841                	li	a6,16
    179a:	4781                	li	a5,0
    179c:	86a6                	mv	a3,s1
    179e:	85ca                	mv	a1,s2
    17a0:	854e                	mv	a0,s3
    17a2:	adcff0ef          	jal	ra,a7e <_ntoa_long>
    17a6:	0411                	addi	s0,s0,4
    17a8:	8daa                	mv	s11,a0
    17aa:	b961                	j	1442 <_vsnprintf+0x5a>
    17ac:	000bc503          	lbu	a0,0(s7)
    17b0:	7ac00993          	li	s3,1964
    17b4:	4d81                	li	s11,0
    17b6:	c60513e3          	bnez	a0,141c <_vsnprintf+0x34>
    17ba:	4401                	li	s0,0
    17bc:	d49de4e3          	bltu	s11,s1,1504 <_vsnprintf+0x11c>
    17c0:	b381                	j	1500 <_vsnprintf+0x118>
    17c2:	00042b03          	lw	s6,0(s0)
    17c6:	00264503          	lbu	a0,2(a2)
    17ca:	00360b93          	addi	s7,a2,3
    17ce:	fffb4793          	not	a5,s6
    17d2:	87fd                	srai	a5,a5,0x1f
    17d4:	00fb7b33          	and	s6,s6,a5
    17d8:	0411                	addi	s0,s0,4
    17da:	0609                	addi	a2,a2,2
    17dc:	b96d                	j	1496 <_vsnprintf+0xae>
    17de:	22050963          	beqz	a0,1a10 <_vsnprintf+0x628>
    17e2:	fffb0c93          	addi	s9,s6,-1
    17e6:	bf25                	j	171e <_vsnprintf+0x336>
    17e8:	0df57793          	andi	a5,a0,223
    17ec:	04700713          	li	a4,71
    17f0:	04e78b63          	beq	a5,a4,1846 <_vsnprintf+0x45e>
    17f4:	04500793          	li	a5,69
    17f8:	06f50163          	beq	a0,a5,185a <_vsnprintf+0x472>
    17fc:	041d                	addi	s0,s0,7
    17fe:	9861                	andi	s0,s0,-8
    1800:	4018                	lw	a4,0(s0)
    1802:	405c                	lw	a5,4(s0)
    1804:	866e                	mv	a2,s11
    1806:	c036                	sw	a3,0(sp)
    1808:	88e2                	mv	a7,s8
    180a:	885a                	mv	a6,s6
    180c:	86a6                	mv	a3,s1
    180e:	85ca                	mv	a1,s2
    1810:	854e                	mv	a0,s3
    1812:	be2ff0ef          	jal	ra,bf4 <_etoa>
    1816:	0421                	addi	s0,s0,8
    1818:	8daa                	mv	s11,a0
    181a:	b125                	j	1442 <_vsnprintf+0x5a>
    181c:	0206e693          	ori	a3,a3,32
    1820:	bdb5                	j	169c <_vsnprintf+0x2b4>
    1822:	8de6                	mv	s11,s9
    1824:	57a2                	lw	a5,40(sp)
    1826:	1187f963          	bgeu	a5,s8,1938 <_vsnprintf+0x550>
    182a:	01bc0733          	add	a4,s8,s11
    182e:	40f70cb3          	sub	s9,a4,a5
    1832:	866e                	mv	a2,s11
    1834:	86a6                	mv	a3,s1
    1836:	0d85                	addi	s11,s11,1
    1838:	85ca                	mv	a1,s2
    183a:	02000513          	li	a0,32
    183e:	9982                	jalr	s3
    1840:	ffbc99e3          	bne	s9,s11,1832 <_vsnprintf+0x44a>
    1844:	bf3d                	j	1782 <_vsnprintf+0x39a>
    1846:	6785                	lui	a5,0x1
    1848:	80078793          	addi	a5,a5,-2048 # 800 <_out_rev+0x52>
    184c:	0fd57513          	andi	a0,a0,253
    1850:	04500713          	li	a4,69
    1854:	8edd                	or	a3,a3,a5
    1856:	fae513e3          	bne	a0,a4,17fc <_vsnprintf+0x414>
    185a:	0206e693          	ori	a3,a3,32
    185e:	bf79                	j	17fc <_vsnprintf+0x414>
    1860:	00264503          	lbu	a0,2(a2)
    1864:	0c06e693          	ori	a3,a3,192
    1868:	00360b93          	addi	s7,a2,3
    186c:	b1b1                	j	14b8 <_vsnprintf+0xd0>
    186e:	41ac87b3          	sub	a5,s9,s10
    1872:	d43e                	sw	a5,40(sp)
    1874:	b5d1                	j	1738 <_vsnprintf+0x350>
    1876:	ff36f593          	andi	a1,a3,-13
    187a:	4006f793          	andi	a5,a3,1024
    187e:	0205e593          	ori	a1,a1,32
    1882:	4841                	li	a6,16
    1884:	10078863          	beqz	a5,1994 <_vsnprintf+0x5ac>
    1888:	99f9                	andi	a1,a1,-2
    188a:	06900793          	li	a5,105
    188e:	2005f693          	andi	a3,a1,512
    1892:	d6f50ee3          	beq	a0,a5,160e <_vsnprintf+0x226>
    1896:	06400793          	li	a5,100
    189a:	d6f50ae3          	beq	a0,a5,160e <_vsnprintf+0x226>
    189e:	12069763          	bnez	a3,19cc <_vsnprintf+0x5e4>
    18a2:	1005f793          	andi	a5,a1,256
    18a6:	00440c93          	addi	s9,s0,4
    18aa:	10079f63          	bnez	a5,19c8 <_vsnprintf+0x5e0>
    18ae:	0405f793          	andi	a5,a1,64
    18b2:	ebe5                	bnez	a5,19a2 <_vsnprintf+0x5ba>
    18b4:	0805f793          	andi	a5,a1,128
    18b8:	10078863          	beqz	a5,19c8 <_vsnprintf+0x5e0>
    18bc:	00045703          	lhu	a4,0(s0)
    18c0:	866e                	mv	a2,s11
    18c2:	c22e                	sw	a1,4(sp)
    18c4:	c062                	sw	s8,0(sp)
    18c6:	88da                	mv	a7,s6
    18c8:	4781                	li	a5,0
    18ca:	b341                	j	164a <_vsnprintf+0x262>
    18cc:	8cb2                	mv	s9,a2
    18ce:	bd45                	j	177e <_vsnprintf+0x396>
    18d0:	4785                	li	a5,1
    18d2:	1587f563          	bgeu	a5,s8,1a1c <_vsnprintf+0x634>
    18d6:	fffd8c93          	addi	s9,s11,-1
    18da:	9ce2                	add	s9,s9,s8
    18dc:	a011                	j	18e0 <_vsnprintf+0x4f8>
    18de:	0d05                	addi	s10,s10,1
    18e0:	866e                	mv	a2,s11
    18e2:	86a6                	mv	a3,s1
    18e4:	85ca                	mv	a1,s2
    18e6:	02000513          	li	a0,32
    18ea:	8dea                	mv	s11,s10
    18ec:	9982                	jalr	s3
    18ee:	ff9d18e3          	bne	s10,s9,18de <_vsnprintf+0x4f6>
    18f2:	001d0d93          	addi	s11,s10,1
    18f6:	00044503          	lbu	a0,0(s0)
    18fa:	86a6                	mv	a3,s1
    18fc:	8666                	mv	a2,s9
    18fe:	85ca                	mv	a1,s2
    1900:	9982                	jalr	s3
    1902:	845a                	mv	s0,s6
    1904:	be3d                	j	1442 <_vsnprintf+0x5a>
    1906:	5722                	lw	a4,40(sp)
    1908:	00170793          	addi	a5,a4,1
    190c:	11877463          	bgeu	a4,s8,1a14 <_vsnprintf+0x62c>
    1910:	01bc07b3          	add	a5,s8,s11
    1914:	40e78cb3          	sub	s9,a5,a4
    1918:	866e                	mv	a2,s11
    191a:	86a6                	mv	a3,s1
    191c:	0d85                	addi	s11,s11,1
    191e:	85ca                	mv	a1,s2
    1920:	02000513          	li	a0,32
    1924:	9982                	jalr	s3
    1926:	ffbc99e3          	bne	s9,s11,1918 <_vsnprintf+0x530>
    192a:	000d4503          	lbu	a0,0(s10)
    192e:	001c0793          	addi	a5,s8,1
    1932:	d43e                	sw	a5,40(sp)
    1934:	e20510e3          	bnez	a0,1754 <_vsnprintf+0x36c>
    1938:	8cee                	mv	s9,s11
    193a:	b5a1                	j	1782 <_vsnprintf+0x39a>
    193c:	041d                	addi	s0,s0,7
    193e:	9861                	andi	s0,s0,-8
    1940:	00442f03          	lw	t5,4(s0)
    1944:	401c                	lw	a5,0(s0)
    1946:	88c2                	mv	a7,a6
    1948:	41ff5693          	srai	a3,t5,0x1f
    194c:	8fb5                	xor	a5,a5,a3
    194e:	40d78733          	sub	a4,a5,a3
    1952:	01e6c533          	xor	a0,a3,t5
    1956:	00e7b7b3          	sltu	a5,a5,a4
    195a:	40d506b3          	sub	a3,a0,a3
    195e:	866e                	mv	a2,s11
    1960:	c62e                	sw	a1,12(sp)
    1962:	c462                	sw	s8,8(sp)
    1964:	c25a                	sw	s6,4(sp)
    1966:	c002                	sw	zero,0(sp)
    1968:	01ff5813          	srli	a6,t5,0x1f
    196c:	40f687b3          	sub	a5,a3,a5
    1970:	86a6                	mv	a3,s1
    1972:	85ca                	mv	a1,s2
    1974:	854e                	mv	a0,s3
    1976:	98aff0ef          	jal	ra,b00 <_ntoa_long_long>
    197a:	0421                	addi	s0,s0,8
    197c:	8daa                	mv	s11,a0
    197e:	b4d1                	j	1442 <_vsnprintf+0x5a>
    1980:	4006f793          	andi	a5,a3,1024
    1984:	4841                	li	a6,16
    1986:	ff36f593          	andi	a1,a3,-13
    198a:	f00780e3          	beqz	a5,188a <_vsnprintf+0x4a2>
    198e:	bded                	j	1888 <_vsnprintf+0x4a0>
    1990:	4829                	li	a6,10
    1992:	bddd                	j	1888 <_vsnprintf+0x4a0>
    1994:	2006f693          	andi	a3,a3,512
    1998:	b719                	j	189e <_vsnprintf+0x4b6>
    199a:	00044783          	lbu	a5,0(s0)
    199e:	873e                	mv	a4,a5
    19a0:	b145                	j	1640 <_vsnprintf+0x258>
    19a2:	00044703          	lbu	a4,0(s0)
    19a6:	bf29                	j	18c0 <_vsnprintf+0x4d8>
    19a8:	8dea                	mv	s11,s10
    19aa:	845a                	mv	s0,s6
    19ac:	bc59                	j	1442 <_vsnprintf+0x5a>
    19ae:	4821                	li	a6,8
    19b0:	85b6                	mv	a1,a3
    19b2:	06400713          	li	a4,100
    19b6:	4005f793          	andi	a5,a1,1024
    19ba:	06e51463          	bne	a0,a4,1a22 <_vsnprintf+0x63a>
    19be:	2005f693          	andi	a3,a1,512
    19c2:	c40786e3          	beqz	a5,160e <_vsnprintf+0x226>
    19c6:	b5c9                	j	1888 <_vsnprintf+0x4a0>
    19c8:	4018                	lw	a4,0(s0)
    19ca:	bddd                	j	18c0 <_vsnprintf+0x4d8>
    19cc:	041d                	addi	s0,s0,7
    19ce:	9861                	andi	s0,s0,-8
    19d0:	4018                	lw	a4,0(s0)
    19d2:	405c                	lw	a5,4(s0)
    19d4:	88c2                	mv	a7,a6
    19d6:	866e                	mv	a2,s11
    19d8:	c62e                	sw	a1,12(sp)
    19da:	c462                	sw	s8,8(sp)
    19dc:	c25a                	sw	s6,4(sp)
    19de:	c002                	sw	zero,0(sp)
    19e0:	4801                	li	a6,0
    19e2:	b779                	j	1970 <_vsnprintf+0x588>
    19e4:	401c                	lw	a5,0(s0)
    19e6:	866e                	mv	a2,s11
    19e8:	c22e                	sw	a1,4(sp)
    19ea:	41f7d713          	srai	a4,a5,0x1f
    19ee:	00f746b3          	xor	a3,a4,a5
    19f2:	c062                	sw	s8,0(sp)
    19f4:	88da                	mv	a7,s6
    19f6:	83fd                	srli	a5,a5,0x1f
    19f8:	40e68733          	sub	a4,a3,a4
    19fc:	b1b9                	j	164a <_vsnprintf+0x262>
    19fe:	4809                	li	a6,2
    1a00:	bf45                	j	19b0 <_vsnprintf+0x5c8>
    1a02:	401c                	lw	a5,0(s0)
    1a04:	41f7d693          	srai	a3,a5,0x1f
    1a08:	00f6c733          	xor	a4,a3,a5
    1a0c:	8f15                	sub	a4,a4,a3
    1a0e:	b90d                	j	1640 <_vsnprintf+0x258>
    1a10:	d402                	sw	zero,40(sp)
    1a12:	b31d                	j	1738 <_vsnprintf+0x350>
    1a14:	d43e                	sw	a5,40(sp)
    1a16:	d2051fe3          	bnez	a0,1754 <_vsnprintf+0x36c>
    1a1a:	bf39                	j	1938 <_vsnprintf+0x550>
    1a1c:	8cee                	mv	s9,s11
    1a1e:	8dea                	mv	s11,s10
    1a20:	bdd9                	j	18f6 <_vsnprintf+0x50e>
    1a22:	86ae                	mv	a3,a1
    1a24:	b78d                	j	1986 <_vsnprintf+0x59e>
    1a26:	4829                	li	a6,10
    1a28:	b769                	j	19b2 <_vsnprintf+0x5ca>

00001a2a <puts>:
    1a2a:	1141                	addi	sp,sp,-16
    1a2c:	c422                	sw	s0,8(sp)
    1a2e:	c606                	sw	ra,12(sp)
    1a30:	842a                	mv	s0,a0
    1a32:	00054503          	lbu	a0,0(a0)
    1a36:	c901                	beqz	a0,1a46 <puts+0x1c>
    1a38:	55fd                	li	a1,-1
    1a3a:	0405                	addi	s0,s0,1
    1a3c:	d19fe0ef          	jal	ra,754 <fputc>
    1a40:	00044503          	lbu	a0,0(s0)
    1a44:	f975                	bnez	a0,1a38 <puts+0xe>
    1a46:	55fd                	li	a1,-1
    1a48:	4529                	li	a0,10
    1a4a:	d0bfe0ef          	jal	ra,754 <fputc>
    1a4e:	40b2                	lw	ra,12(sp)
    1a50:	4422                	lw	s0,8(sp)
    1a52:	4501                	li	a0,0
    1a54:	0141                	addi	sp,sp,16
    1a56:	8082                	ret

00001a58 <printf>:
    1a58:	7139                	addi	sp,sp,-64
    1a5a:	02410313          	addi	t1,sp,36
    1a5e:	d636                	sw	a3,44(sp)
    1a60:	86aa                	mv	a3,a0
    1a62:	6505                	lui	a0,0x1
    1a64:	d22e                	sw	a1,36(sp)
    1a66:	d432                	sw	a2,40(sp)
    1a68:	d83a                	sw	a4,48(sp)
    1a6a:	002c                	addi	a1,sp,8
    1a6c:	871a                	mv	a4,t1
    1a6e:	567d                	li	a2,-1
    1a70:	3de50513          	addi	a0,a0,990 # 13de <_out_char>
    1a74:	ce06                	sw	ra,28(sp)
    1a76:	da3e                	sw	a5,52(sp)
    1a78:	dc42                	sw	a6,56(sp)
    1a7a:	de46                	sw	a7,60(sp)
    1a7c:	c61a                	sw	t1,12(sp)
    1a7e:	96bff0ef          	jal	ra,13e8 <_vsnprintf>
    1a82:	40f2                	lw	ra,28(sp)
    1a84:	6121                	addi	sp,sp,64
    1a86:	8082                	ret

00001a88 <ck_uart_set_parity>:
    1a88:	c54c                	sw	a1,12(a0)
    1a8a:	4785                	li	a5,1
    1a8c:	04f58363          	beq	a1,a5,1ad2 <ck_uart_set_parity+0x4a>
    1a90:	4789                	li	a5,2
    1a92:	00f58d63          	beq	a1,a5,1aac <ck_uart_set_parity+0x24>
    1a96:	00058363          	beqz	a1,1a9c <ck_uart_set_parity+0x14>
    1a9a:	8082                	ret
    1a9c:	4158                	lw	a4,4(a0)
    1a9e:	00c74783          	lbu	a5,12(a4)
    1aa2:	0f77f793          	andi	a5,a5,247
    1aa6:	00f70623          	sb	a5,12(a4)
    1aaa:	8082                	ret
    1aac:	4158                	lw	a4,4(a0)
    1aae:	00c74783          	lbu	a5,12(a4)
    1ab2:	0ff7f793          	andi	a5,a5,255
    1ab6:	0087e793          	ori	a5,a5,8
    1aba:	00f70623          	sb	a5,12(a4)
    1abe:	4158                	lw	a4,4(a0)
    1ac0:	00c74783          	lbu	a5,12(a4)
    1ac4:	0ff7f793          	andi	a5,a5,255
    1ac8:	0107e793          	ori	a5,a5,16
    1acc:	00f70623          	sb	a5,12(a4)
    1ad0:	8082                	ret
    1ad2:	4158                	lw	a4,4(a0)
    1ad4:	00c74783          	lbu	a5,12(a4)
    1ad8:	0ff7f793          	andi	a5,a5,255
    1adc:	0087e793          	ori	a5,a5,8
    1ae0:	00f70623          	sb	a5,12(a4)
    1ae4:	4158                	lw	a4,4(a0)
    1ae6:	00c74783          	lbu	a5,12(a4)
    1aea:	0ef7f793          	andi	a5,a5,239
    1aee:	00f70623          	sb	a5,12(a4)
    1af2:	8082                	ret

00001af4 <ck_uart_set_wordsize>:
    1af4:	c94c                	sw	a1,20(a0)
    1af6:	4789                	li	a5,2
    1af8:	04f58d63          	beq	a1,a5,1b52 <ck_uart_set_wordsize+0x5e>
    1afc:	02b7e563          	bltu	a5,a1,1b26 <ck_uart_set_wordsize+0x32>
    1b00:	04058163          	beqz	a1,1b42 <ck_uart_set_wordsize+0x4e>
    1b04:	4158                	lw	a4,4(a0)
    1b06:	00c74783          	lbu	a5,12(a4)
    1b0a:	0fd7f793          	andi	a5,a5,253
    1b0e:	00f70623          	sb	a5,12(a4)
    1b12:	4158                	lw	a4,4(a0)
    1b14:	00c74783          	lbu	a5,12(a4)
    1b18:	0ff7f793          	andi	a5,a5,255
    1b1c:	0017e793          	ori	a5,a5,1
    1b20:	00f70623          	sb	a5,12(a4)
    1b24:	8082                	ret
    1b26:	478d                	li	a5,3
    1b28:	00f59c63          	bne	a1,a5,1b40 <ck_uart_set_wordsize+0x4c>
    1b2c:	4158                	lw	a4,4(a0)
    1b2e:	00c74783          	lbu	a5,12(a4)
    1b32:	0ff7f793          	andi	a5,a5,255
    1b36:	0037e793          	ori	a5,a5,3
    1b3a:	00f70623          	sb	a5,12(a4)
    1b3e:	8082                	ret
    1b40:	8082                	ret
    1b42:	4158                	lw	a4,4(a0)
    1b44:	00c74783          	lbu	a5,12(a4)
    1b48:	0fc7f793          	andi	a5,a5,252
    1b4c:	00f70623          	sb	a5,12(a4)
    1b50:	8082                	ret
    1b52:	4158                	lw	a4,4(a0)
    1b54:	00c74783          	lbu	a5,12(a4)
    1b58:	0fe7f793          	andi	a5,a5,254
    1b5c:	00f70623          	sb	a5,12(a4)
    1b60:	4158                	lw	a4,4(a0)
    1b62:	00c74783          	lbu	a5,12(a4)
    1b66:	0ff7f793          	andi	a5,a5,255
    1b6a:	0027e793          	ori	a5,a5,2
    1b6e:	00f70623          	sb	a5,12(a4)
    1b72:	8082                	ret

00001b74 <ck_uart_open>:
    1b74:	e981                	bnez	a1,1b84 <ck_uart_open+0x10>
    1b76:	400157b7          	lui	a5,0x40015
    1b7a:	00052023          	sw	zero,0(a0)
    1b7e:	c15c                	sw	a5,4(a0)
    1b80:	4501                	li	a0,0
    1b82:	8082                	ret
    1b84:	4505                	li	a0,1
    1b86:	8082                	ret

00001b88 <ck_uart_init>:
    1b88:	4118                	lw	a4,0(a0)
    1b8a:	67c1                	lui	a5,0x10
    1b8c:	17fd                	addi	a5,a5,-1
    1b8e:	0af70163          	beq	a4,a5,1c30 <ck_uart_init+0xa8>
    1b92:	4194                	lw	a3,0(a1)
    1b94:	05f5e7b7          	lui	a5,0x5f5e
    1b98:	10078793          	addi	a5,a5,256 # 5f5e100 <__erodata+0x5f59710>
    1b9c:	02d7d7b3          	divu	a5,a5,a3
    1ba0:	4158                	lw	a4,4(a0)
    1ba2:	1141                	addi	sp,sp,-16
    1ba4:	c606                	sw	ra,12(sp)
    1ba6:	c422                	sw	s0,8(sp)
    1ba8:	c226                	sw	s1,4(sp)
    1baa:	c514                	sw	a3,8(a0)
    1bac:	00c74683          	lbu	a3,12(a4)
    1bb0:	84ae                	mv	s1,a1
    1bb2:	842a                	mv	s0,a0
    1bb4:	f806e693          	ori	a3,a3,-128
    1bb8:	0ff6f693          	andi	a3,a3,255
    1bbc:	00d70623          	sb	a3,12(a4)
    1bc0:	0047d693          	srli	a3,a5,0x4
    1bc4:	0ff6f693          	andi	a3,a3,255
    1bc8:	83b1                	srli	a5,a5,0xc
    1bca:	00d70023          	sb	a3,0(a4)
    1bce:	0ff7f793          	andi	a5,a5,255
    1bd2:	00f70223          	sb	a5,4(a4)
    1bd6:	00c74783          	lbu	a5,12(a4)
    1bda:	07f7f793          	andi	a5,a5,127
    1bde:	00f70623          	sb	a5,12(a4)
    1be2:	458c                	lw	a1,8(a1)
    1be4:	3555                	jal	1a88 <ck_uart_set_parity>
    1be6:	44cc                	lw	a1,12(s1)
    1be8:	8522                	mv	a0,s0
    1bea:	3729                	jal	1af4 <ck_uart_set_wordsize>
    1bec:	40dc                	lw	a5,4(s1)
    1bee:	c81c                	sw	a5,16(s0)
    1bf0:	cb85                	beqz	a5,1c20 <ck_uart_init+0x98>
    1bf2:	4705                	li	a4,1
    1bf4:	00e78c63          	beq	a5,a4,1c0c <ck_uart_init+0x84>
    1bf8:	4898                	lw	a4,16(s1)
    1bfa:	48dc                	lw	a5,20(s1)
    1bfc:	40b2                	lw	ra,12(sp)
    1bfe:	cc18                	sw	a4,24(s0)
    1c00:	cc5c                	sw	a5,28(s0)
    1c02:	4422                	lw	s0,8(sp)
    1c04:	4492                	lw	s1,4(sp)
    1c06:	4501                	li	a0,0
    1c08:	0141                	addi	sp,sp,16
    1c0a:	8082                	ret
    1c0c:	4058                	lw	a4,4(s0)
    1c0e:	00c74783          	lbu	a5,12(a4)
    1c12:	0ff7f793          	andi	a5,a5,255
    1c16:	0047e793          	ori	a5,a5,4
    1c1a:	00f70623          	sb	a5,12(a4)
    1c1e:	bfe9                	j	1bf8 <ck_uart_init+0x70>
    1c20:	4058                	lw	a4,4(s0)
    1c22:	00c74783          	lbu	a5,12(a4)
    1c26:	0fb7f793          	andi	a5,a5,251
    1c2a:	00f70623          	sb	a5,12(a4)
    1c2e:	b7e9                	j	1bf8 <ck_uart_init+0x70>
    1c30:	4505                	li	a0,1
    1c32:	8082                	ret

00001c34 <ck_uart_putc>:
    1c34:	4d5c                	lw	a5,28(a0)
    1c36:	cb99                	beqz	a5,1c4c <ck_uart_putc+0x18>
    1c38:	4158                	lw	a4,4(a0)
    1c3a:	01474783          	lbu	a5,20(a4)
    1c3e:	0207f793          	andi	a5,a5,32
    1c42:	dfe5                	beqz	a5,1c3a <ck_uart_putc+0x6>
    1c44:	00b70023          	sb	a1,0(a4)
    1c48:	4501                	li	a0,0
    1c4a:	8082                	ret
    1c4c:	4505                	li	a0,1
    1c4e:	8082                	ret

00001c50 <__udivdi3>:
    1c50:	88aa                	mv	a7,a0
    1c52:	87ae                	mv	a5,a1
    1c54:	8832                	mv	a6,a2
    1c56:	8536                	mv	a0,a3
    1c58:	8346                	mv	t1,a7
    1c5a:	20069663          	bnez	a3,1e66 <__udivdi3+0x216>
    1c5e:	00003697          	auipc	a3,0x3
    1c62:	c9268693          	addi	a3,a3,-878 # 48f0 <__clz_tab>
    1c66:	0ac5ff63          	bgeu	a1,a2,1d24 <__udivdi3+0xd4>
    1c6a:	6741                	lui	a4,0x10
    1c6c:	0ae67563          	bgeu	a2,a4,1d16 <__udivdi3+0xc6>
    1c70:	0ff00713          	li	a4,255
    1c74:	00c73733          	sltu	a4,a4,a2
    1c78:	070e                	slli	a4,a4,0x3
    1c7a:	00e65533          	srl	a0,a2,a4
    1c7e:	96aa                	add	a3,a3,a0
    1c80:	0006c683          	lbu	a3,0(a3)
    1c84:	02000513          	li	a0,32
    1c88:	9736                	add	a4,a4,a3
    1c8a:	40e506b3          	sub	a3,a0,a4
    1c8e:	00e50b63          	beq	a0,a4,1ca4 <__udivdi3+0x54>
    1c92:	00d795b3          	sll	a1,a5,a3
    1c96:	00e8d733          	srl	a4,a7,a4
    1c9a:	00d61833          	sll	a6,a2,a3
    1c9e:	8dd9                	or	a1,a1,a4
    1ca0:	00d89333          	sll	t1,a7,a3
    1ca4:	01085893          	srli	a7,a6,0x10
    1ca8:	0315d6b3          	divu	a3,a1,a7
    1cac:	01081613          	slli	a2,a6,0x10
    1cb0:	8241                	srli	a2,a2,0x10
    1cb2:	01035793          	srli	a5,t1,0x10
    1cb6:	0315f733          	remu	a4,a1,a7
    1cba:	8536                	mv	a0,a3
    1cbc:	02d605b3          	mul	a1,a2,a3
    1cc0:	0742                	slli	a4,a4,0x10
    1cc2:	8fd9                	or	a5,a5,a4
    1cc4:	00b7fc63          	bgeu	a5,a1,1cdc <__udivdi3+0x8c>
    1cc8:	97c2                	add	a5,a5,a6
    1cca:	fff68513          	addi	a0,a3,-1
    1cce:	0107e763          	bltu	a5,a6,1cdc <__udivdi3+0x8c>
    1cd2:	00b7f563          	bgeu	a5,a1,1cdc <__udivdi3+0x8c>
    1cd6:	ffe68513          	addi	a0,a3,-2
    1cda:	97c2                	add	a5,a5,a6
    1cdc:	8f8d                	sub	a5,a5,a1
    1cde:	0317f733          	remu	a4,a5,a7
    1ce2:	0342                	slli	t1,t1,0x10
    1ce4:	01035313          	srli	t1,t1,0x10
    1ce8:	0317d7b3          	divu	a5,a5,a7
    1cec:	0742                	slli	a4,a4,0x10
    1cee:	00676333          	or	t1,a4,t1
    1cf2:	02f606b3          	mul	a3,a2,a5
    1cf6:	863e                	mv	a2,a5
    1cf8:	00d37b63          	bgeu	t1,a3,1d0e <__udivdi3+0xbe>
    1cfc:	9342                	add	t1,t1,a6
    1cfe:	fff78613          	addi	a2,a5,-1
    1d02:	01036663          	bltu	t1,a6,1d0e <__udivdi3+0xbe>
    1d06:	00d37463          	bgeu	t1,a3,1d0e <__udivdi3+0xbe>
    1d0a:	ffe78613          	addi	a2,a5,-2
    1d0e:	0542                	slli	a0,a0,0x10
    1d10:	8d51                	or	a0,a0,a2
    1d12:	4581                	li	a1,0
    1d14:	a85d                	j	1dca <__udivdi3+0x17a>
    1d16:	01000537          	lui	a0,0x1000
    1d1a:	4741                	li	a4,16
    1d1c:	f4a66fe3          	bltu	a2,a0,1c7a <__udivdi3+0x2a>
    1d20:	4761                	li	a4,24
    1d22:	bfa1                	j	1c7a <__udivdi3+0x2a>
    1d24:	e601                	bnez	a2,1d2c <__udivdi3+0xdc>
    1d26:	4705                	li	a4,1
    1d28:	02c75833          	divu	a6,a4,a2
    1d2c:	6741                	lui	a4,0x10
    1d2e:	08e87f63          	bgeu	a6,a4,1dcc <__udivdi3+0x17c>
    1d32:	0ff00713          	li	a4,255
    1d36:	01077363          	bgeu	a4,a6,1d3c <__udivdi3+0xec>
    1d3a:	4521                	li	a0,8
    1d3c:	00a85733          	srl	a4,a6,a0
    1d40:	96ba                	add	a3,a3,a4
    1d42:	0006c703          	lbu	a4,0(a3)
    1d46:	02000613          	li	a2,32
    1d4a:	972a                	add	a4,a4,a0
    1d4c:	40e606b3          	sub	a3,a2,a4
    1d50:	08e61563          	bne	a2,a4,1dda <__udivdi3+0x18a>
    1d54:	410787b3          	sub	a5,a5,a6
    1d58:	4585                	li	a1,1
    1d5a:	01085893          	srli	a7,a6,0x10
    1d5e:	01081613          	slli	a2,a6,0x10
    1d62:	8241                	srli	a2,a2,0x10
    1d64:	01035713          	srli	a4,t1,0x10
    1d68:	0317f6b3          	remu	a3,a5,a7
    1d6c:	0317d7b3          	divu	a5,a5,a7
    1d70:	06c2                	slli	a3,a3,0x10
    1d72:	8f55                	or	a4,a4,a3
    1d74:	02f60e33          	mul	t3,a2,a5
    1d78:	853e                	mv	a0,a5
    1d7a:	01c77c63          	bgeu	a4,t3,1d92 <__udivdi3+0x142>
    1d7e:	9742                	add	a4,a4,a6
    1d80:	fff78513          	addi	a0,a5,-1
    1d84:	01076763          	bltu	a4,a6,1d92 <__udivdi3+0x142>
    1d88:	01c77563          	bgeu	a4,t3,1d92 <__udivdi3+0x142>
    1d8c:	ffe78513          	addi	a0,a5,-2
    1d90:	9742                	add	a4,a4,a6
    1d92:	41c70733          	sub	a4,a4,t3
    1d96:	031777b3          	remu	a5,a4,a7
    1d9a:	0342                	slli	t1,t1,0x10
    1d9c:	01035313          	srli	t1,t1,0x10
    1da0:	03175733          	divu	a4,a4,a7
    1da4:	07c2                	slli	a5,a5,0x10
    1da6:	0067e333          	or	t1,a5,t1
    1daa:	02e606b3          	mul	a3,a2,a4
    1dae:	863a                	mv	a2,a4
    1db0:	00d37b63          	bgeu	t1,a3,1dc6 <__udivdi3+0x176>
    1db4:	9342                	add	t1,t1,a6
    1db6:	fff70613          	addi	a2,a4,-1 # ffff <__erodata+0xb60f>
    1dba:	01036663          	bltu	t1,a6,1dc6 <__udivdi3+0x176>
    1dbe:	00d37463          	bgeu	t1,a3,1dc6 <__udivdi3+0x176>
    1dc2:	ffe70613          	addi	a2,a4,-2
    1dc6:	0542                	slli	a0,a0,0x10
    1dc8:	8d51                	or	a0,a0,a2
    1dca:	8082                	ret
    1dcc:	01000737          	lui	a4,0x1000
    1dd0:	4541                	li	a0,16
    1dd2:	f6e865e3          	bltu	a6,a4,1d3c <__udivdi3+0xec>
    1dd6:	4561                	li	a0,24
    1dd8:	b795                	j	1d3c <__udivdi3+0xec>
    1dda:	00d81833          	sll	a6,a6,a3
    1dde:	00e7d533          	srl	a0,a5,a4
    1de2:	00d89333          	sll	t1,a7,a3
    1de6:	00d797b3          	sll	a5,a5,a3
    1dea:	00e8d733          	srl	a4,a7,a4
    1dee:	01085893          	srli	a7,a6,0x10
    1df2:	00f76633          	or	a2,a4,a5
    1df6:	03157733          	remu	a4,a0,a7
    1dfa:	01081793          	slli	a5,a6,0x10
    1dfe:	83c1                	srli	a5,a5,0x10
    1e00:	01065593          	srli	a1,a2,0x10
    1e04:	03155533          	divu	a0,a0,a7
    1e08:	0742                	slli	a4,a4,0x10
    1e0a:	8f4d                	or	a4,a4,a1
    1e0c:	02a786b3          	mul	a3,a5,a0
    1e10:	85aa                	mv	a1,a0
    1e12:	00d77c63          	bgeu	a4,a3,1e2a <__udivdi3+0x1da>
    1e16:	9742                	add	a4,a4,a6
    1e18:	fff50593          	addi	a1,a0,-1 # ffffff <__erodata+0xffb60f>
    1e1c:	01076763          	bltu	a4,a6,1e2a <__udivdi3+0x1da>
    1e20:	00d77563          	bgeu	a4,a3,1e2a <__udivdi3+0x1da>
    1e24:	ffe50593          	addi	a1,a0,-2
    1e28:	9742                	add	a4,a4,a6
    1e2a:	40d706b3          	sub	a3,a4,a3
    1e2e:	0316f733          	remu	a4,a3,a7
    1e32:	0642                	slli	a2,a2,0x10
    1e34:	8241                	srli	a2,a2,0x10
    1e36:	0316d6b3          	divu	a3,a3,a7
    1e3a:	0742                	slli	a4,a4,0x10
    1e3c:	02d78533          	mul	a0,a5,a3
    1e40:	00c767b3          	or	a5,a4,a2
    1e44:	8736                	mv	a4,a3
    1e46:	00a7fc63          	bgeu	a5,a0,1e5e <__udivdi3+0x20e>
    1e4a:	97c2                	add	a5,a5,a6
    1e4c:	fff68713          	addi	a4,a3,-1
    1e50:	0107e763          	bltu	a5,a6,1e5e <__udivdi3+0x20e>
    1e54:	00a7f563          	bgeu	a5,a0,1e5e <__udivdi3+0x20e>
    1e58:	ffe68713          	addi	a4,a3,-2
    1e5c:	97c2                	add	a5,a5,a6
    1e5e:	05c2                	slli	a1,a1,0x10
    1e60:	8f89                	sub	a5,a5,a0
    1e62:	8dd9                	or	a1,a1,a4
    1e64:	bddd                	j	1d5a <__udivdi3+0x10a>
    1e66:	14d5e263          	bltu	a1,a3,1faa <__udivdi3+0x35a>
    1e6a:	6741                	lui	a4,0x10
    1e6c:	02e6ff63          	bgeu	a3,a4,1eaa <__udivdi3+0x25a>
    1e70:	0ff00713          	li	a4,255
    1e74:	00d735b3          	sltu	a1,a4,a3
    1e78:	058e                	slli	a1,a1,0x3
    1e7a:	00b6d533          	srl	a0,a3,a1
    1e7e:	00003717          	auipc	a4,0x3
    1e82:	a7270713          	addi	a4,a4,-1422 # 48f0 <__clz_tab>
    1e86:	972a                	add	a4,a4,a0
    1e88:	00074703          	lbu	a4,0(a4)
    1e8c:	02000513          	li	a0,32
    1e90:	972e                	add	a4,a4,a1
    1e92:	40e505b3          	sub	a1,a0,a4
    1e96:	02e51163          	bne	a0,a4,1eb8 <__udivdi3+0x268>
    1e9a:	4505                	li	a0,1
    1e9c:	f2f6e7e3          	bltu	a3,a5,1dca <__udivdi3+0x17a>
    1ea0:	00c8b533          	sltu	a0,a7,a2
    1ea4:	00154513          	xori	a0,a0,1
    1ea8:	b70d                	j	1dca <__udivdi3+0x17a>
    1eaa:	01000737          	lui	a4,0x1000
    1eae:	45c1                	li	a1,16
    1eb0:	fce6e5e3          	bltu	a3,a4,1e7a <__udivdi3+0x22a>
    1eb4:	45e1                	li	a1,24
    1eb6:	b7d1                	j	1e7a <__udivdi3+0x22a>
    1eb8:	00e65833          	srl	a6,a2,a4
    1ebc:	00b696b3          	sll	a3,a3,a1
    1ec0:	00d86833          	or	a6,a6,a3
    1ec4:	00e7d333          	srl	t1,a5,a4
    1ec8:	01085e93          	srli	t4,a6,0x10
    1ecc:	03d376b3          	remu	a3,t1,t4
    1ed0:	00b797b3          	sll	a5,a5,a1
    1ed4:	00e8d733          	srl	a4,a7,a4
    1ed8:	00b61e33          	sll	t3,a2,a1
    1edc:	00f76633          	or	a2,a4,a5
    1ee0:	01081793          	slli	a5,a6,0x10
    1ee4:	83c1                	srli	a5,a5,0x10
    1ee6:	01065713          	srli	a4,a2,0x10
    1eea:	03d35333          	divu	t1,t1,t4
    1eee:	06c2                	slli	a3,a3,0x10
    1ef0:	8f55                	or	a4,a4,a3
    1ef2:	02678f33          	mul	t5,a5,t1
    1ef6:	851a                	mv	a0,t1
    1ef8:	01e77c63          	bgeu	a4,t5,1f10 <__udivdi3+0x2c0>
    1efc:	9742                	add	a4,a4,a6
    1efe:	fff30513          	addi	a0,t1,-1
    1f02:	01076763          	bltu	a4,a6,1f10 <__udivdi3+0x2c0>
    1f06:	01e77563          	bgeu	a4,t5,1f10 <__udivdi3+0x2c0>
    1f0a:	ffe30513          	addi	a0,t1,-2
    1f0e:	9742                	add	a4,a4,a6
    1f10:	41e70733          	sub	a4,a4,t5
    1f14:	03d776b3          	remu	a3,a4,t4
    1f18:	03d75733          	divu	a4,a4,t4
    1f1c:	06c2                	slli	a3,a3,0x10
    1f1e:	02e78333          	mul	t1,a5,a4
    1f22:	01061793          	slli	a5,a2,0x10
    1f26:	83c1                	srli	a5,a5,0x10
    1f28:	8fd5                	or	a5,a5,a3
    1f2a:	863a                	mv	a2,a4
    1f2c:	0067fc63          	bgeu	a5,t1,1f44 <__udivdi3+0x2f4>
    1f30:	97c2                	add	a5,a5,a6
    1f32:	fff70613          	addi	a2,a4,-1 # ffffff <__erodata+0xffb60f>
    1f36:	0107e763          	bltu	a5,a6,1f44 <__udivdi3+0x2f4>
    1f3a:	0067f563          	bgeu	a5,t1,1f44 <__udivdi3+0x2f4>
    1f3e:	ffe70613          	addi	a2,a4,-2
    1f42:	97c2                	add	a5,a5,a6
    1f44:	0542                	slli	a0,a0,0x10
    1f46:	6ec1                	lui	t4,0x10
    1f48:	8d51                	or	a0,a0,a2
    1f4a:	fffe8693          	addi	a3,t4,-1 # ffff <__erodata+0xb60f>
    1f4e:	010e5613          	srli	a2,t3,0x10
    1f52:	01055813          	srli	a6,a0,0x10
    1f56:	406787b3          	sub	a5,a5,t1
    1f5a:	00d57333          	and	t1,a0,a3
    1f5e:	00de76b3          	and	a3,t3,a3
    1f62:	02d30e33          	mul	t3,t1,a3
    1f66:	02d806b3          	mul	a3,a6,a3
    1f6a:	010e5713          	srli	a4,t3,0x10
    1f6e:	02c30333          	mul	t1,t1,a2
    1f72:	9336                	add	t1,t1,a3
    1f74:	971a                	add	a4,a4,t1
    1f76:	02c80833          	mul	a6,a6,a2
    1f7a:	00d77363          	bgeu	a4,a3,1f80 <__udivdi3+0x330>
    1f7e:	9876                	add	a6,a6,t4
    1f80:	01075693          	srli	a3,a4,0x10
    1f84:	9836                	add	a6,a6,a3
    1f86:	0307e063          	bltu	a5,a6,1fa6 <__udivdi3+0x356>
    1f8a:	d90794e3          	bne	a5,a6,1d12 <__udivdi3+0xc2>
    1f8e:	67c1                	lui	a5,0x10
    1f90:	17fd                	addi	a5,a5,-1
    1f92:	8f7d                	and	a4,a4,a5
    1f94:	0742                	slli	a4,a4,0x10
    1f96:	00fe7e33          	and	t3,t3,a5
    1f9a:	00b898b3          	sll	a7,a7,a1
    1f9e:	9772                	add	a4,a4,t3
    1fa0:	4581                	li	a1,0
    1fa2:	e2e8f4e3          	bgeu	a7,a4,1dca <__udivdi3+0x17a>
    1fa6:	157d                	addi	a0,a0,-1
    1fa8:	b3ad                	j	1d12 <__udivdi3+0xc2>
    1faa:	4581                	li	a1,0
    1fac:	4501                	li	a0,0
    1fae:	bd31                	j	1dca <__udivdi3+0x17a>

00001fb0 <__umoddi3>:
    1fb0:	832a                	mv	t1,a0
    1fb2:	8832                	mv	a6,a2
    1fb4:	87b6                	mv	a5,a3
    1fb6:	872e                	mv	a4,a1
    1fb8:	1c069563          	bnez	a3,2182 <__umoddi3+0x1d2>
    1fbc:	00003697          	auipc	a3,0x3
    1fc0:	93468693          	addi	a3,a3,-1740 # 48f0 <__clz_tab>
    1fc4:	0ac5f663          	bgeu	a1,a2,2070 <__umoddi3+0xc0>
    1fc8:	68c1                	lui	a7,0x10
    1fca:	09167c63          	bgeu	a2,a7,2062 <__umoddi3+0xb2>
    1fce:	0ff00893          	li	a7,255
    1fd2:	00c8f363          	bgeu	a7,a2,1fd8 <__umoddi3+0x28>
    1fd6:	47a1                	li	a5,8
    1fd8:	00f658b3          	srl	a7,a2,a5
    1fdc:	96c6                	add	a3,a3,a7
    1fde:	0006c683          	lbu	a3,0(a3)
    1fe2:	97b6                	add	a5,a5,a3
    1fe4:	02000693          	li	a3,32
    1fe8:	40f688b3          	sub	a7,a3,a5
    1fec:	00f68c63          	beq	a3,a5,2004 <__umoddi3+0x54>
    1ff0:	011595b3          	sll	a1,a1,a7
    1ff4:	00f357b3          	srl	a5,t1,a5
    1ff8:	01161833          	sll	a6,a2,a7
    1ffc:	00b7e733          	or	a4,a5,a1
    2000:	01131533          	sll	a0,t1,a7
    2004:	01085593          	srli	a1,a6,0x10
    2008:	02b777b3          	remu	a5,a4,a1
    200c:	01081613          	slli	a2,a6,0x10
    2010:	8241                	srli	a2,a2,0x10
    2012:	01055693          	srli	a3,a0,0x10
    2016:	02b75733          	divu	a4,a4,a1
    201a:	07c2                	slli	a5,a5,0x10
    201c:	8edd                	or	a3,a3,a5
    201e:	02e60733          	mul	a4,a2,a4
    2022:	00e6f863          	bgeu	a3,a4,2032 <__umoddi3+0x82>
    2026:	96c2                	add	a3,a3,a6
    2028:	0106e563          	bltu	a3,a6,2032 <__umoddi3+0x82>
    202c:	00e6f363          	bgeu	a3,a4,2032 <__umoddi3+0x82>
    2030:	96c2                	add	a3,a3,a6
    2032:	8e99                	sub	a3,a3,a4
    2034:	02b6f7b3          	remu	a5,a3,a1
    2038:	0542                	slli	a0,a0,0x10
    203a:	8141                	srli	a0,a0,0x10
    203c:	02b6d6b3          	divu	a3,a3,a1
    2040:	07c2                	slli	a5,a5,0x10
    2042:	8d5d                	or	a0,a0,a5
    2044:	02d606b3          	mul	a3,a2,a3
    2048:	00d57863          	bgeu	a0,a3,2058 <__umoddi3+0xa8>
    204c:	9542                	add	a0,a0,a6
    204e:	01056563          	bltu	a0,a6,2058 <__umoddi3+0xa8>
    2052:	00d57363          	bgeu	a0,a3,2058 <__umoddi3+0xa8>
    2056:	9542                	add	a0,a0,a6
    2058:	8d15                	sub	a0,a0,a3
    205a:	01155533          	srl	a0,a0,a7
    205e:	4581                	li	a1,0
    2060:	8082                	ret
    2062:	010008b7          	lui	a7,0x1000
    2066:	47c1                	li	a5,16
    2068:	f71668e3          	bltu	a2,a7,1fd8 <__umoddi3+0x28>
    206c:	47e1                	li	a5,24
    206e:	b7ad                	j	1fd8 <__umoddi3+0x28>
    2070:	e601                	bnez	a2,2078 <__umoddi3+0xc8>
    2072:	4705                	li	a4,1
    2074:	02c75833          	divu	a6,a4,a2
    2078:	6741                	lui	a4,0x10
    207a:	08e87363          	bgeu	a6,a4,2100 <__umoddi3+0x150>
    207e:	0ff00713          	li	a4,255
    2082:	01077363          	bgeu	a4,a6,2088 <__umoddi3+0xd8>
    2086:	47a1                	li	a5,8
    2088:	00f85733          	srl	a4,a6,a5
    208c:	96ba                	add	a3,a3,a4
    208e:	0006c603          	lbu	a2,0(a3)
    2092:	963e                	add	a2,a2,a5
    2094:	02000793          	li	a5,32
    2098:	40c788b3          	sub	a7,a5,a2
    209c:	06c79963          	bne	a5,a2,210e <__umoddi3+0x15e>
    20a0:	410585b3          	sub	a1,a1,a6
    20a4:	01085693          	srli	a3,a6,0x10
    20a8:	01081793          	slli	a5,a6,0x10
    20ac:	83c1                	srli	a5,a5,0x10
    20ae:	01055613          	srli	a2,a0,0x10
    20b2:	02d5f733          	remu	a4,a1,a3
    20b6:	02d5d5b3          	divu	a1,a1,a3
    20ba:	0742                	slli	a4,a4,0x10
    20bc:	8f51                	or	a4,a4,a2
    20be:	02b785b3          	mul	a1,a5,a1
    20c2:	00b77863          	bgeu	a4,a1,20d2 <__umoddi3+0x122>
    20c6:	9742                	add	a4,a4,a6
    20c8:	01076563          	bltu	a4,a6,20d2 <__umoddi3+0x122>
    20cc:	00b77363          	bgeu	a4,a1,20d2 <__umoddi3+0x122>
    20d0:	9742                	add	a4,a4,a6
    20d2:	40b705b3          	sub	a1,a4,a1
    20d6:	02d5f733          	remu	a4,a1,a3
    20da:	0542                	slli	a0,a0,0x10
    20dc:	8141                	srli	a0,a0,0x10
    20de:	02d5d5b3          	divu	a1,a1,a3
    20e2:	02b785b3          	mul	a1,a5,a1
    20e6:	01071793          	slli	a5,a4,0x10
    20ea:	8d5d                	or	a0,a0,a5
    20ec:	00b57863          	bgeu	a0,a1,20fc <__umoddi3+0x14c>
    20f0:	9542                	add	a0,a0,a6
    20f2:	01056563          	bltu	a0,a6,20fc <__umoddi3+0x14c>
    20f6:	00b57363          	bgeu	a0,a1,20fc <__umoddi3+0x14c>
    20fa:	9542                	add	a0,a0,a6
    20fc:	8d0d                	sub	a0,a0,a1
    20fe:	bfb1                	j	205a <__umoddi3+0xaa>
    2100:	01000737          	lui	a4,0x1000
    2104:	47c1                	li	a5,16
    2106:	f8e861e3          	bltu	a6,a4,2088 <__umoddi3+0xd8>
    210a:	47e1                	li	a5,24
    210c:	bfb5                	j	2088 <__umoddi3+0xd8>
    210e:	01181833          	sll	a6,a6,a7
    2112:	00c5d6b3          	srl	a3,a1,a2
    2116:	01085793          	srli	a5,a6,0x10
    211a:	02f6f733          	remu	a4,a3,a5
    211e:	011595b3          	sll	a1,a1,a7
    2122:	00c35633          	srl	a2,t1,a2
    2126:	8e4d                	or	a2,a2,a1
    2128:	01081593          	slli	a1,a6,0x10
    212c:	81c1                	srli	a1,a1,0x10
    212e:	01131533          	sll	a0,t1,a7
    2132:	01065313          	srli	t1,a2,0x10
    2136:	02f6d6b3          	divu	a3,a3,a5
    213a:	0742                	slli	a4,a4,0x10
    213c:	00676733          	or	a4,a4,t1
    2140:	02d586b3          	mul	a3,a1,a3
    2144:	00d77863          	bgeu	a4,a3,2154 <__umoddi3+0x1a4>
    2148:	9742                	add	a4,a4,a6
    214a:	01076563          	bltu	a4,a6,2154 <__umoddi3+0x1a4>
    214e:	00d77363          	bgeu	a4,a3,2154 <__umoddi3+0x1a4>
    2152:	9742                	add	a4,a4,a6
    2154:	40d706b3          	sub	a3,a4,a3
    2158:	02f6f733          	remu	a4,a3,a5
    215c:	0642                	slli	a2,a2,0x10
    215e:	8241                	srli	a2,a2,0x10
    2160:	02f6d6b3          	divu	a3,a3,a5
    2164:	0742                	slli	a4,a4,0x10
    2166:	02d586b3          	mul	a3,a1,a3
    216a:	00c765b3          	or	a1,a4,a2
    216e:	00d5f863          	bgeu	a1,a3,217e <__umoddi3+0x1ce>
    2172:	95c2                	add	a1,a1,a6
    2174:	0105e563          	bltu	a1,a6,217e <__umoddi3+0x1ce>
    2178:	00d5f363          	bgeu	a1,a3,217e <__umoddi3+0x1ce>
    217c:	95c2                	add	a1,a1,a6
    217e:	8d95                	sub	a1,a1,a3
    2180:	b715                	j	20a4 <__umoddi3+0xf4>
    2182:	ecd5efe3          	bltu	a1,a3,2060 <__umoddi3+0xb0>
    2186:	67c1                	lui	a5,0x10
    2188:	04f6f463          	bgeu	a3,a5,21d0 <__umoddi3+0x220>
    218c:	0ff00893          	li	a7,255
    2190:	00d8b7b3          	sltu	a5,a7,a3
    2194:	078e                	slli	a5,a5,0x3
    2196:	00f6d8b3          	srl	a7,a3,a5
    219a:	00002817          	auipc	a6,0x2
    219e:	75680813          	addi	a6,a6,1878 # 48f0 <__clz_tab>
    21a2:	9846                	add	a6,a6,a7
    21a4:	00084883          	lbu	a7,0(a6)
    21a8:	98be                	add	a7,a7,a5
    21aa:	02000793          	li	a5,32
    21ae:	41178833          	sub	a6,a5,a7
    21b2:	03179663          	bne	a5,a7,21de <__umoddi3+0x22e>
    21b6:	00b6e463          	bltu	a3,a1,21be <__umoddi3+0x20e>
    21ba:	00c36963          	bltu	t1,a2,21cc <__umoddi3+0x21c>
    21be:	40c30533          	sub	a0,t1,a2
    21c2:	8d95                	sub	a1,a1,a3
    21c4:	00a33733          	sltu	a4,t1,a0
    21c8:	40e58733          	sub	a4,a1,a4
    21cc:	85ba                	mv	a1,a4
    21ce:	bd49                	j	2060 <__umoddi3+0xb0>
    21d0:	01000837          	lui	a6,0x1000
    21d4:	47c1                	li	a5,16
    21d6:	fd06e0e3          	bltu	a3,a6,2196 <__umoddi3+0x1e6>
    21da:	47e1                	li	a5,24
    21dc:	bf6d                	j	2196 <__umoddi3+0x1e6>
    21de:	011657b3          	srl	a5,a2,a7
    21e2:	010696b3          	sll	a3,a3,a6
    21e6:	00d7ee33          	or	t3,a5,a3
    21ea:	0115d733          	srl	a4,a1,a7
    21ee:	010e5f13          	srli	t5,t3,0x10
    21f2:	01061eb3          	sll	t4,a2,a6
    21f6:	03e77633          	remu	a2,a4,t5
    21fa:	010595b3          	sll	a1,a1,a6
    21fe:	011357b3          	srl	a5,t1,a7
    2202:	8fcd                	or	a5,a5,a1
    2204:	010e1593          	slli	a1,t3,0x10
    2208:	81c1                	srli	a1,a1,0x10
    220a:	01031533          	sll	a0,t1,a6
    220e:	0107d693          	srli	a3,a5,0x10
    2212:	03e75733          	divu	a4,a4,t5
    2216:	0642                	slli	a2,a2,0x10
    2218:	8ed1                	or	a3,a3,a2
    221a:	02e58333          	mul	t1,a1,a4
    221e:	863a                	mv	a2,a4
    2220:	0066fc63          	bgeu	a3,t1,2238 <__umoddi3+0x288>
    2224:	96f2                	add	a3,a3,t3
    2226:	fff70613          	addi	a2,a4,-1 # ffffff <__erodata+0xffb60f>
    222a:	01c6e763          	bltu	a3,t3,2238 <__umoddi3+0x288>
    222e:	0066f563          	bgeu	a3,t1,2238 <__umoddi3+0x288>
    2232:	ffe70613          	addi	a2,a4,-2
    2236:	96f2                	add	a3,a3,t3
    2238:	406686b3          	sub	a3,a3,t1
    223c:	03e6f333          	remu	t1,a3,t5
    2240:	03e6d6b3          	divu	a3,a3,t5
    2244:	0342                	slli	t1,t1,0x10
    2246:	02d58733          	mul	a4,a1,a3
    224a:	01079593          	slli	a1,a5,0x10
    224e:	81c1                	srli	a1,a1,0x10
    2250:	00b365b3          	or	a1,t1,a1
    2254:	87b6                	mv	a5,a3
    2256:	00e5fc63          	bgeu	a1,a4,226e <__umoddi3+0x2be>
    225a:	95f2                	add	a1,a1,t3
    225c:	fff68793          	addi	a5,a3,-1
    2260:	01c5e763          	bltu	a1,t3,226e <__umoddi3+0x2be>
    2264:	00e5f563          	bgeu	a1,a4,226e <__umoddi3+0x2be>
    2268:	ffe68793          	addi	a5,a3,-2
    226c:	95f2                	add	a1,a1,t3
    226e:	0642                	slli	a2,a2,0x10
    2270:	6f41                	lui	t5,0x10
    2272:	8e5d                	or	a2,a2,a5
    2274:	ffff0693          	addi	a3,t5,-1 # ffff <__erodata+0xb60f>
    2278:	00d67333          	and	t1,a2,a3
    227c:	8d99                	sub	a1,a1,a4
    227e:	8241                	srli	a2,a2,0x10
    2280:	010ed713          	srli	a4,t4,0x10
    2284:	00def6b3          	and	a3,t4,a3
    2288:	02d307b3          	mul	a5,t1,a3
    228c:	02d606b3          	mul	a3,a2,a3
    2290:	02e30333          	mul	t1,t1,a4
    2294:	02e60633          	mul	a2,a2,a4
    2298:	9336                	add	t1,t1,a3
    229a:	0107d713          	srli	a4,a5,0x10
    229e:	971a                	add	a4,a4,t1
    22a0:	00d77363          	bgeu	a4,a3,22a6 <__umoddi3+0x2f6>
    22a4:	967a                	add	a2,a2,t5
    22a6:	01075693          	srli	a3,a4,0x10
    22aa:	96b2                	add	a3,a3,a2
    22ac:	6641                	lui	a2,0x10
    22ae:	167d                	addi	a2,a2,-1
    22b0:	8f71                	and	a4,a4,a2
    22b2:	0742                	slli	a4,a4,0x10
    22b4:	8ff1                	and	a5,a5,a2
    22b6:	97ba                	add	a5,a5,a4
    22b8:	00d5e663          	bltu	a1,a3,22c4 <__umoddi3+0x314>
    22bc:	00d59b63          	bne	a1,a3,22d2 <__umoddi3+0x322>
    22c0:	00f57963          	bgeu	a0,a5,22d2 <__umoddi3+0x322>
    22c4:	41d78633          	sub	a2,a5,t4
    22c8:	00c7b7b3          	sltu	a5,a5,a2
    22cc:	97f2                	add	a5,a5,t3
    22ce:	8e9d                	sub	a3,a3,a5
    22d0:	87b2                	mv	a5,a2
    22d2:	40f507b3          	sub	a5,a0,a5
    22d6:	00f53533          	sltu	a0,a0,a5
    22da:	8d95                	sub	a1,a1,a3
    22dc:	8d89                	sub	a1,a1,a0
    22de:	011598b3          	sll	a7,a1,a7
    22e2:	0107d533          	srl	a0,a5,a6
    22e6:	00a8e533          	or	a0,a7,a0
    22ea:	0105d5b3          	srl	a1,a1,a6
    22ee:	bb8d                	j	2060 <__umoddi3+0xb0>

000022f0 <__adddf3>:
    22f0:	1101                	addi	sp,sp,-32
    22f2:	ce06                	sw	ra,28(sp)
    22f4:	cc22                	sw	s0,24(sp)
    22f6:	ca26                	sw	s1,20(sp)
    22f8:	c84a                	sw	s2,16(sp)
    22fa:	c64e                	sw	s3,12(sp)
    22fc:	c452                	sw	s4,8(sp)
    22fe:	002029f3          	frrm	s3
    2302:	001008b7          	lui	a7,0x100
    2306:	18fd                	addi	a7,a7,-1
    2308:	00b8f733          	and	a4,a7,a1
    230c:	0145d413          	srli	s0,a1,0x14
    2310:	01f5d493          	srli	s1,a1,0x1f
    2314:	0146d593          	srli	a1,a3,0x14
    2318:	00371793          	slli	a5,a4,0x3
    231c:	00d8f8b3          	and	a7,a7,a3
    2320:	01d55713          	srli	a4,a0,0x1d
    2324:	7ff47413          	andi	s0,s0,2047
    2328:	7ff5f593          	andi	a1,a1,2047
    232c:	8f5d                	or	a4,a4,a5
    232e:	01f6d313          	srli	t1,a3,0x1f
    2332:	00351793          	slli	a5,a0,0x3
    2336:	01d65693          	srli	a3,a2,0x1d
    233a:	088e                	slli	a7,a7,0x3
    233c:	40b40533          	sub	a0,s0,a1
    2340:	00361813          	slli	a6,a2,0x3
    2344:	0116e6b3          	or	a3,a3,a7
    2348:	862a                	mv	a2,a0
    234a:	34649563          	bne	s1,t1,2694 <__adddf3+0x3a4>
    234e:	10a05a63          	blez	a0,2462 <__adddf3+0x172>
    2352:	04059463          	bnez	a1,239a <__adddf3+0xaa>
    2356:	0106e533          	or	a0,a3,a6
    235a:	e511                	bnez	a0,2366 <__adddf3+0x76>
    235c:	7ff00693          	li	a3,2047
    2360:	2ad61c63          	bne	a2,a3,2618 <__adddf3+0x328>
    2364:	a839                	j	2382 <__adddf3+0x92>
    2366:	fff60513          	addi	a0,a2,-1 # ffff <__erodata+0xb60f>
    236a:	e901                	bnez	a0,237a <__adddf3+0x8a>
    236c:	983e                	add	a6,a6,a5
    236e:	96ba                	add	a3,a3,a4
    2370:	00f837b3          	sltu	a5,a6,a5
    2374:	96be                	add	a3,a3,a5
    2376:	4605                	li	a2,1
    2378:	a059                	j	23fe <__adddf3+0x10e>
    237a:	7ff00893          	li	a7,2047
    237e:	05161163          	bne	a2,a7,23c0 <__adddf3+0xd0>
    2382:	00f766b3          	or	a3,a4,a5
    2386:	70068063          	beqz	a3,2a86 <__adddf3+0x796>
    238a:	004006b7          	lui	a3,0x400
    238e:	8ef9                	and	a3,a3,a4
    2390:	4401                	li	s0,0
    2392:	20069263          	bnez	a3,2596 <__adddf3+0x2a6>
    2396:	45c1                	li	a1,16
    2398:	aafd                	j	2596 <__adddf3+0x2a6>
    239a:	7ff00613          	li	a2,2047
    239e:	00c41e63          	bne	s0,a2,23ba <__adddf3+0xca>
    23a2:	00f766b3          	or	a3,a4,a5
    23a6:	6e068363          	beqz	a3,2a8c <__adddf3+0x79c>
    23aa:	004006b7          	lui	a3,0x400
    23ae:	8ef9                	and	a3,a3,a4
    23b0:	12068563          	beqz	a3,24da <__adddf3+0x1ea>
    23b4:	7ff00613          	li	a2,2047
    23b8:	a485                	j	2618 <__adddf3+0x328>
    23ba:	00800637          	lui	a2,0x800
    23be:	8ed1                	or	a3,a3,a2
    23c0:	03800613          	li	a2,56
    23c4:	08a64a63          	blt	a2,a0,2458 <__adddf3+0x168>
    23c8:	467d                	li	a2,31
    23ca:	06a64063          	blt	a2,a0,242a <__adddf3+0x13a>
    23ce:	02000613          	li	a2,32
    23d2:	8e09                	sub	a2,a2,a0
    23d4:	00a858b3          	srl	a7,a6,a0
    23d8:	00c695b3          	sll	a1,a3,a2
    23dc:	00c81833          	sll	a6,a6,a2
    23e0:	0115e5b3          	or	a1,a1,a7
    23e4:	01003833          	snez	a6,a6
    23e8:	0105e833          	or	a6,a1,a6
    23ec:	00a6d533          	srl	a0,a3,a0
    23f0:	983e                	add	a6,a6,a5
    23f2:	953a                	add	a0,a0,a4
    23f4:	00f837b3          	sltu	a5,a6,a5
    23f8:	00f506b3          	add	a3,a0,a5
    23fc:	8622                	mv	a2,s0
    23fe:	008007b7          	lui	a5,0x800
    2402:	8ff5                	and	a5,a5,a3
    2404:	cbb5                	beqz	a5,2478 <__adddf3+0x188>
    2406:	0605                	addi	a2,a2,1
    2408:	7ff00793          	li	a5,2047
    240c:	26f60363          	beq	a2,a5,2672 <__adddf3+0x382>
    2410:	ff800737          	lui	a4,0xff800
    2414:	177d                	addi	a4,a4,-1
    2416:	00185793          	srli	a5,a6,0x1
    241a:	8f75                	and	a4,a4,a3
    241c:	00187813          	andi	a6,a6,1
    2420:	0107e833          	or	a6,a5,a6
    2424:	01f71793          	slli	a5,a4,0x1f
    2428:	a2ed                	j	2612 <__adddf3+0x322>
    242a:	fe050593          	addi	a1,a0,-32
    242e:	02000893          	li	a7,32
    2432:	00b6d5b3          	srl	a1,a3,a1
    2436:	4601                	li	a2,0
    2438:	01150863          	beq	a0,a7,2448 <__adddf3+0x158>
    243c:	04000613          	li	a2,64
    2440:	40a60533          	sub	a0,a2,a0
    2444:	00a69633          	sll	a2,a3,a0
    2448:	01066833          	or	a6,a2,a6
    244c:	01003833          	snez	a6,a6
    2450:	0105e833          	or	a6,a1,a6
    2454:	4501                	li	a0,0
    2456:	bf69                	j	23f0 <__adddf3+0x100>
    2458:	0106e833          	or	a6,a3,a6
    245c:	01003833          	snez	a6,a6
    2460:	bfd5                	j	2454 <__adddf3+0x164>
    2462:	c97d                	beqz	a0,2558 <__adddf3+0x268>
    2464:	40858633          	sub	a2,a1,s0
    2468:	e821                	bnez	s0,24b8 <__adddf3+0x1c8>
    246a:	00f76533          	or	a0,a4,a5
    246e:	e911                	bnez	a0,2482 <__adddf3+0x192>
    2470:	7ff00793          	li	a5,2047
    2474:	02f60663          	beq	a2,a5,24a0 <__adddf3+0x1b0>
    2478:	8736                	mv	a4,a3
    247a:	87c2                	mv	a5,a6
    247c:	40060563          	beqz	a2,2886 <__adddf3+0x596>
    2480:	aa61                	j	2618 <__adddf3+0x328>
    2482:	fff60893          	addi	a7,a2,-1 # 7fffff <__erodata+0x7fb60f>
    2486:	00089963          	bnez	a7,2498 <__adddf3+0x1a8>
    248a:	97c2                	add	a5,a5,a6
    248c:	0107b833          	sltu	a6,a5,a6
    2490:	96ba                	add	a3,a3,a4
    2492:	96c2                	add	a3,a3,a6
    2494:	883e                	mv	a6,a5
    2496:	b5c5                	j	2376 <__adddf3+0x86>
    2498:	7ff00513          	li	a0,2047
    249c:	04a61563          	bne	a2,a0,24e6 <__adddf3+0x1f6>
    24a0:	0106e7b3          	or	a5,a3,a6
    24a4:	5e078763          	beqz	a5,2a92 <__adddf3+0x7a2>
    24a8:	004007b7          	lui	a5,0x400
    24ac:	8ff5                	and	a5,a5,a3
    24ae:	8736                	mv	a4,a3
    24b0:	5e079363          	bnez	a5,2a96 <__adddf3+0x7a6>
    24b4:	87c2                	mv	a5,a6
    24b6:	b5c5                	j	2396 <__adddf3+0xa6>
    24b8:	7ff00513          	li	a0,2047
    24bc:	02a59163          	bne	a1,a0,24de <__adddf3+0x1ee>
    24c0:	0106e7b3          	or	a5,a3,a6
    24c4:	5a078463          	beqz	a5,2a6c <__adddf3+0x77c>
    24c8:	004007b7          	lui	a5,0x400
    24cc:	8ff5                	and	a5,a5,a3
    24ce:	8736                	mv	a4,a3
    24d0:	5a079363          	bnez	a5,2a76 <__adddf3+0x786>
    24d4:	87c2                	mv	a5,a6
    24d6:	7ff00613          	li	a2,2047
    24da:	4401                	li	s0,0
    24dc:	bd6d                	j	2396 <__adddf3+0xa6>
    24de:	00800537          	lui	a0,0x800
    24e2:	8f49                	or	a4,a4,a0
    24e4:	88b2                	mv	a7,a2
    24e6:	03800613          	li	a2,56
    24ea:	07164363          	blt	a2,a7,2550 <__adddf3+0x260>
    24ee:	467d                	li	a2,31
    24f0:	03164b63          	blt	a2,a7,2526 <__adddf3+0x236>
    24f4:	02000513          	li	a0,32
    24f8:	41150533          	sub	a0,a0,a7
    24fc:	00a71633          	sll	a2,a4,a0
    2500:	0117d333          	srl	t1,a5,a7
    2504:	00a797b3          	sll	a5,a5,a0
    2508:	00666633          	or	a2,a2,t1
    250c:	00f037b3          	snez	a5,a5
    2510:	8fd1                	or	a5,a5,a2
    2512:	01175733          	srl	a4,a4,a7
    2516:	97c2                	add	a5,a5,a6
    2518:	9736                	add	a4,a4,a3
    251a:	0107b6b3          	sltu	a3,a5,a6
    251e:	96ba                	add	a3,a3,a4
    2520:	883e                	mv	a6,a5
    2522:	862e                	mv	a2,a1
    2524:	bde9                	j	23fe <__adddf3+0x10e>
    2526:	fe088613          	addi	a2,a7,-32 # fffe0 <__erodata+0xfb5f0>
    252a:	02000313          	li	t1,32
    252e:	00c75633          	srl	a2,a4,a2
    2532:	4501                	li	a0,0
    2534:	00688863          	beq	a7,t1,2544 <__adddf3+0x254>
    2538:	04000513          	li	a0,64
    253c:	41150533          	sub	a0,a0,a7
    2540:	00a71533          	sll	a0,a4,a0
    2544:	8fc9                	or	a5,a5,a0
    2546:	00f037b3          	snez	a5,a5
    254a:	8fd1                	or	a5,a5,a2
    254c:	4701                	li	a4,0
    254e:	b7e1                	j	2516 <__adddf3+0x226>
    2550:	8fd9                	or	a5,a5,a4
    2552:	00f037b3          	snez	a5,a5
    2556:	bfdd                	j	254c <__adddf3+0x25c>
    2558:	00140613          	addi	a2,s0,1
    255c:	7fe67513          	andi	a0,a2,2046
    2560:	ed41                	bnez	a0,25f8 <__adddf3+0x308>
    2562:	00f76533          	or	a0,a4,a5
    2566:	e421                	bnez	s0,25ae <__adddf3+0x2be>
    2568:	4c050563          	beqz	a0,2a32 <__adddf3+0x742>
    256c:	0106e633          	or	a2,a3,a6
    2570:	30060b63          	beqz	a2,2886 <__adddf3+0x596>
    2574:	983e                	add	a6,a6,a5
    2576:	00f837b3          	sltu	a5,a6,a5
    257a:	9736                	add	a4,a4,a3
    257c:	973e                	add	a4,a4,a5
    257e:	008007b7          	lui	a5,0x800
    2582:	8ff9                	and	a5,a5,a4
    2584:	4a078863          	beqz	a5,2a34 <__adddf3+0x744>
    2588:	ff8007b7          	lui	a5,0xff800
    258c:	17fd                	addi	a5,a5,-1
    258e:	8f7d                	and	a4,a4,a5
    2590:	4581                	li	a1,0
    2592:	87c2                	mv	a5,a6
    2594:	4605                	li	a2,1
    2596:	0077f693          	andi	a3,a5,7
    259a:	e6d5                	bnez	a3,2646 <__adddf3+0x356>
    259c:	58040363          	beqz	s0,2b22 <__adddf3+0x832>
    25a0:	0015f693          	andi	a3,a1,1
    25a4:	56068f63          	beqz	a3,2b22 <__adddf3+0x832>
    25a8:	0025e593          	ori	a1,a1,2
    25ac:	ab9d                	j	2b22 <__adddf3+0x832>
    25ae:	7ff00613          	li	a2,2047
    25b2:	02c41d63          	bne	s0,a2,25ec <__adddf3+0x2fc>
    25b6:	5e050563          	beqz	a0,2ba0 <__adddf3+0x8b0>
    25ba:	00400637          	lui	a2,0x400
    25be:	8e79                	and	a2,a2,a4
    25c0:	00163613          	seqz	a2,a2
    25c4:	0612                	slli	a2,a2,0x4
    25c6:	54859363          	bne	a1,s0,2b0c <__adddf3+0x81c>
    25ca:	85b2                	mv	a1,a2
    25cc:	0106e633          	or	a2,a3,a6
    25d0:	c611                	beqz	a2,25dc <__adddf3+0x2ec>
    25d2:	00400637          	lui	a2,0x400
    25d6:	8e75                	and	a2,a2,a3
    25d8:	e211                	bnez	a2,25dc <__adddf3+0x2ec>
    25da:	45c1                	li	a1,16
    25dc:	52051963          	bnez	a0,2b0e <__adddf3+0x81e>
    25e0:	8736                	mv	a4,a3
    25e2:	87c2                	mv	a5,a6
    25e4:	4401                	li	s0,0
    25e6:	7ff00613          	li	a2,2047
    25ea:	b775                	j	2596 <__adddf3+0x2a6>
    25ec:	00c59463          	bne	a1,a2,25f4 <__adddf3+0x304>
    25f0:	4581                	li	a1,0
    25f2:	bfe9                	j	25cc <__adddf3+0x2dc>
    25f4:	4581                	li	a1,0
    25f6:	b7dd                	j	25dc <__adddf3+0x2ec>
    25f8:	7ff00593          	li	a1,2047
    25fc:	02b60063          	beq	a2,a1,261c <__adddf3+0x32c>
    2600:	983e                	add	a6,a6,a5
    2602:	00f837b3          	sltu	a5,a6,a5
    2606:	9736                	add	a4,a4,a3
    2608:	973e                	add	a4,a4,a5
    260a:	01f71793          	slli	a5,a4,0x1f
    260e:	00185813          	srli	a6,a6,0x1
    2612:	0107e7b3          	or	a5,a5,a6
    2616:	8305                	srli	a4,a4,0x1
    2618:	4401                	li	s0,0
    261a:	a9bd                	j	2a98 <__adddf3+0x7a8>
    261c:	00098763          	beqz	s3,262a <__adddf3+0x33a>
    2620:	478d                	li	a5,3
    2622:	00f99763          	bne	s3,a5,2630 <__adddf3+0x340>
    2626:	00049a63          	bnez	s1,263a <__adddf3+0x34a>
    262a:	7ff00613          	li	a2,2047
    262e:	a889                	j	2680 <__adddf3+0x390>
    2630:	4789                	li	a5,2
    2632:	00f99463          	bne	s3,a5,263a <__adddf3+0x34a>
    2636:	fe049ae3          	bnez	s1,262a <__adddf3+0x33a>
    263a:	4401                	li	s0,0
    263c:	577d                	li	a4,-1
    263e:	57fd                	li	a5,-1
    2640:	7fe00613          	li	a2,2046
    2644:	4595                	li	a1,5
    2646:	4689                	li	a3,2
    2648:	0015e593          	ori	a1,a1,1
    264c:	48d98763          	beq	s3,a3,2ada <__adddf3+0x7ea>
    2650:	468d                	li	a3,3
    2652:	48d98063          	beq	s3,a3,2ad2 <__adddf3+0x7e2>
    2656:	48099363          	bnez	s3,2adc <__adddf3+0x7ec>
    265a:	00f7f693          	andi	a3,a5,15
    265e:	4511                	li	a0,4
    2660:	46a68e63          	beq	a3,a0,2adc <__adddf3+0x7ec>
    2664:	00478693          	addi	a3,a5,4 # ff800004 <__kernel_stack+0xdf74000c>
    2668:	00f6b7b3          	sltu	a5,a3,a5
    266c:	973e                	add	a4,a4,a5
    266e:	87b6                	mv	a5,a3
    2670:	a1b5                	j	2adc <__adddf3+0x7ec>
    2672:	00098763          	beqz	s3,2680 <__adddf3+0x390>
    2676:	478d                	li	a5,3
    2678:	00f99863          	bne	s3,a5,2688 <__adddf3+0x398>
    267c:	3e049f63          	bnez	s1,2a7a <__adddf3+0x78a>
    2680:	4701                	li	a4,0
    2682:	4781                	li	a5,0
    2684:	4595                	li	a1,5
    2686:	a971                	j	2b22 <__adddf3+0x832>
    2688:	4789                	li	a5,2
    268a:	3ef99863          	bne	s3,a5,2a7a <__adddf3+0x78a>
    268e:	fe0499e3          	bnez	s1,2680 <__adddf3+0x390>
    2692:	b765                	j	263a <__adddf3+0x34a>
    2694:	0ca05763          	blez	a0,2762 <__adddf3+0x472>
    2698:	08059263          	bnez	a1,271c <__adddf3+0x42c>
    269c:	0106e533          	or	a0,a3,a6
    26a0:	ca050ee3          	beqz	a0,235c <__adddf3+0x6c>
    26a4:	fff60513          	addi	a0,a2,-1 # 3fffff <__erodata+0x3fb60f>
    26a8:	e911                	bnez	a0,26bc <__adddf3+0x3cc>
    26aa:	41078833          	sub	a6,a5,a6
    26ae:	40d706b3          	sub	a3,a4,a3
    26b2:	0107b7b3          	sltu	a5,a5,a6
    26b6:	8e9d                	sub	a3,a3,a5
    26b8:	4605                	li	a2,1
    26ba:	a0a9                	j	2704 <__adddf3+0x414>
    26bc:	7ff00893          	li	a7,2047
    26c0:	cd1601e3          	beq	a2,a7,2382 <__adddf3+0x92>
    26c4:	03800613          	li	a2,56
    26c8:	08a64863          	blt	a2,a0,2758 <__adddf3+0x468>
    26cc:	467d                	li	a2,31
    26ce:	04a64f63          	blt	a2,a0,272c <__adddf3+0x43c>
    26d2:	02000613          	li	a2,32
    26d6:	8e09                	sub	a2,a2,a0
    26d8:	00c695b3          	sll	a1,a3,a2
    26dc:	00a858b3          	srl	a7,a6,a0
    26e0:	00c81833          	sll	a6,a6,a2
    26e4:	0115e5b3          	or	a1,a1,a7
    26e8:	01003833          	snez	a6,a6
    26ec:	0105e833          	or	a6,a1,a6
    26f0:	00a6d6b3          	srl	a3,a3,a0
    26f4:	41078833          	sub	a6,a5,a6
    26f8:	40d706b3          	sub	a3,a4,a3
    26fc:	0107b7b3          	sltu	a5,a5,a6
    2700:	8e9d                	sub	a3,a3,a5
    2702:	8622                	mv	a2,s0
    2704:	00800937          	lui	s2,0x800
    2708:	0126f7b3          	and	a5,a3,s2
    270c:	d60786e3          	beqz	a5,2478 <__adddf3+0x188>
    2710:	197d                	addi	s2,s2,-1
    2712:	0126f933          	and	s2,a3,s2
    2716:	8a42                	mv	s4,a6
    2718:	8432                	mv	s0,a2
    271a:	a4b5                	j	2986 <__adddf3+0x696>
    271c:	7ff00613          	li	a2,2047
    2720:	c8c401e3          	beq	s0,a2,23a2 <__adddf3+0xb2>
    2724:	00800637          	lui	a2,0x800
    2728:	8ed1                	or	a3,a3,a2
    272a:	bf69                	j	26c4 <__adddf3+0x3d4>
    272c:	fe050593          	addi	a1,a0,-32 # 7fffe0 <__erodata+0x7fb5f0>
    2730:	02000893          	li	a7,32
    2734:	00b6d5b3          	srl	a1,a3,a1
    2738:	4601                	li	a2,0
    273a:	01150763          	beq	a0,a7,2748 <__adddf3+0x458>
    273e:	04000613          	li	a2,64
    2742:	8e09                	sub	a2,a2,a0
    2744:	00c69633          	sll	a2,a3,a2
    2748:	01066833          	or	a6,a2,a6
    274c:	01003833          	snez	a6,a6
    2750:	0105e833          	or	a6,a1,a6
    2754:	4681                	li	a3,0
    2756:	bf79                	j	26f4 <__adddf3+0x404>
    2758:	0106e833          	or	a6,a3,a6
    275c:	01003833          	snez	a6,a6
    2760:	bfd5                	j	2754 <__adddf3+0x464>
    2762:	cd75                	beqz	a0,285e <__adddf3+0x56e>
    2764:	40858633          	sub	a2,a1,s0
    2768:	e439                	bnez	s0,27b6 <__adddf3+0x4c6>
    276a:	00f76533          	or	a0,a4,a5
    276e:	e509                	bnez	a0,2778 <__adddf3+0x488>
    2770:	7ff00793          	li	a5,2047
    2774:	849a                	mv	s1,t1
    2776:	b9fd                	j	2474 <__adddf3+0x184>
    2778:	fff60893          	addi	a7,a2,-1 # 7fffff <__erodata+0x7fb60f>
    277c:	00089c63          	bnez	a7,2794 <__adddf3+0x4a4>
    2780:	40f807b3          	sub	a5,a6,a5
    2784:	00f83833          	sltu	a6,a6,a5
    2788:	8e99                	sub	a3,a3,a4
    278a:	410686b3          	sub	a3,a3,a6
    278e:	849a                	mv	s1,t1
    2790:	883e                	mv	a6,a5
    2792:	b71d                	j	26b8 <__adddf3+0x3c8>
    2794:	7ff00513          	li	a0,2047
    2798:	04a61663          	bne	a2,a0,27e4 <__adddf3+0x4f4>
    279c:	0106e7b3          	or	a5,a3,a6
    27a0:	2e078e63          	beqz	a5,2a9c <__adddf3+0x7ac>
    27a4:	004007b7          	lui	a5,0x400
    27a8:	8ff5                	and	a5,a5,a3
    27aa:	8736                	mv	a4,a3
    27ac:	2e079b63          	bnez	a5,2aa2 <__adddf3+0x7b2>
    27b0:	87c2                	mv	a5,a6
    27b2:	849a                	mv	s1,t1
    27b4:	b6cd                	j	2396 <__adddf3+0xa6>
    27b6:	7ff00513          	li	a0,2047
    27ba:	02a59163          	bne	a1,a0,27dc <__adddf3+0x4ec>
    27be:	0106e7b3          	or	a5,a3,a6
    27c2:	2e078363          	beqz	a5,2aa8 <__adddf3+0x7b8>
    27c6:	004007b7          	lui	a5,0x400
    27ca:	8ff5                	and	a5,a5,a3
    27cc:	8736                	mv	a4,a3
    27ce:	2e079163          	bnez	a5,2ab0 <__adddf3+0x7c0>
    27d2:	87c2                	mv	a5,a6
    27d4:	7ff00613          	li	a2,2047
    27d8:	849a                	mv	s1,t1
    27da:	b301                	j	24da <__adddf3+0x1ea>
    27dc:	00800537          	lui	a0,0x800
    27e0:	8f49                	or	a4,a4,a0
    27e2:	88b2                	mv	a7,a2
    27e4:	03800613          	li	a2,56
    27e8:	07164763          	blt	a2,a7,2856 <__adddf3+0x566>
    27ec:	467d                	li	a2,31
    27ee:	03164f63          	blt	a2,a7,282c <__adddf3+0x53c>
    27f2:	02000513          	li	a0,32
    27f6:	41150533          	sub	a0,a0,a7
    27fa:	00a71633          	sll	a2,a4,a0
    27fe:	0117de33          	srl	t3,a5,a7
    2802:	00a797b3          	sll	a5,a5,a0
    2806:	01c66633          	or	a2,a2,t3
    280a:	00f037b3          	snez	a5,a5
    280e:	8fd1                	or	a5,a5,a2
    2810:	01175733          	srl	a4,a4,a7
    2814:	40f807b3          	sub	a5,a6,a5
    2818:	40e68733          	sub	a4,a3,a4
    281c:	00f836b3          	sltu	a3,a6,a5
    2820:	40d706b3          	sub	a3,a4,a3
    2824:	883e                	mv	a6,a5
    2826:	862e                	mv	a2,a1
    2828:	849a                	mv	s1,t1
    282a:	bde9                	j	2704 <__adddf3+0x414>
    282c:	fe088613          	addi	a2,a7,-32
    2830:	02000e13          	li	t3,32
    2834:	00c75633          	srl	a2,a4,a2
    2838:	4501                	li	a0,0
    283a:	01c88863          	beq	a7,t3,284a <__adddf3+0x55a>
    283e:	04000513          	li	a0,64
    2842:	41150533          	sub	a0,a0,a7
    2846:	00a71533          	sll	a0,a4,a0
    284a:	8fc9                	or	a5,a5,a0
    284c:	00f037b3          	snez	a5,a5
    2850:	8fd1                	or	a5,a5,a2
    2852:	4701                	li	a4,0
    2854:	b7c1                	j	2814 <__adddf3+0x524>
    2856:	8fd9                	or	a5,a5,a4
    2858:	00f037b3          	snez	a5,a5
    285c:	bfdd                	j	2852 <__adddf3+0x562>
    285e:	00140613          	addi	a2,s0,1
    2862:	7fe67613          	andi	a2,a2,2046
    2866:	ea7d                	bnez	a2,295c <__adddf3+0x66c>
    2868:	00f768b3          	or	a7,a4,a5
    286c:	0106e533          	or	a0,a3,a6
    2870:	e05d                	bnez	s0,2916 <__adddf3+0x626>
    2872:	06089263          	bnez	a7,28d6 <__adddf3+0x5e6>
    2876:	1c051163          	bnez	a0,2a38 <__adddf3+0x748>
    287a:	ffe98493          	addi	s1,s3,-2
    287e:	0014b493          	seqz	s1,s1
    2882:	4701                	li	a4,0
    2884:	4781                	li	a5,0
    2886:	00e7e6b3          	or	a3,a5,a4
    288a:	24068063          	beqz	a3,2aca <__adddf3+0x7da>
    288e:	01f7d693          	srli	a3,a5,0x1f
    2892:	00171413          	slli	s0,a4,0x1
    2896:	9436                	add	s0,s0,a3
    2898:	00179693          	slli	a3,a5,0x1
    289c:	0076f613          	andi	a2,a3,7
    28a0:	4581                	li	a1,0
    28a2:	c605                	beqz	a2,28ca <__adddf3+0x5da>
    28a4:	4609                	li	a2,2
    28a6:	1ac98963          	beq	s3,a2,2a58 <__adddf3+0x768>
    28aa:	460d                	li	a2,3
    28ac:	18c98c63          	beq	s3,a2,2a44 <__adddf3+0x754>
    28b0:	4585                	li	a1,1
    28b2:	00099c63          	bnez	s3,28ca <__adddf3+0x5da>
    28b6:	00f6f613          	andi	a2,a3,15
    28ba:	4511                	li	a0,4
    28bc:	00a60763          	beq	a2,a0,28ca <__adddf3+0x5da>
    28c0:	ffc6b693          	sltiu	a3,a3,-4
    28c4:	0016c693          	xori	a3,a3,1
    28c8:	9436                	add	s0,s0,a3
    28ca:	8061                	srli	s0,s0,0x18
    28cc:	00144413          	xori	s0,s0,1
    28d0:	8805                	andi	s0,s0,1
    28d2:	4601                	li	a2,0
    28d4:	b1c9                	j	2596 <__adddf3+0x2a6>
    28d6:	d945                	beqz	a0,2886 <__adddf3+0x596>
    28d8:	410785b3          	sub	a1,a5,a6
    28dc:	00b7b533          	sltu	a0,a5,a1
    28e0:	40d70633          	sub	a2,a4,a3
    28e4:	8e09                	sub	a2,a2,a0
    28e6:	00800537          	lui	a0,0x800
    28ea:	8d71                	and	a0,a0,a2
    28ec:	c919                	beqz	a0,2902 <__adddf3+0x612>
    28ee:	40f807b3          	sub	a5,a6,a5
    28f2:	40e68733          	sub	a4,a3,a4
    28f6:	00f83833          	sltu	a6,a6,a5
    28fa:	41070733          	sub	a4,a4,a6
    28fe:	849a                	mv	s1,t1
    2900:	b759                	j	2886 <__adddf3+0x596>
    2902:	00c5e7b3          	or	a5,a1,a2
    2906:	12079c63          	bnez	a5,2a3e <__adddf3+0x74e>
    290a:	ffe98493          	addi	s1,s3,-2
    290e:	0014b493          	seqz	s1,s1
    2912:	4701                	li	a4,0
    2914:	bf8d                	j	2886 <__adddf3+0x596>
    2916:	7ff00613          	li	a2,2047
    291a:	00c41e63          	bne	s0,a2,2936 <__adddf3+0x646>
    291e:	26088963          	beqz	a7,2b90 <__adddf3+0x8a0>
    2922:	00400637          	lui	a2,0x400
    2926:	8e79                	and	a2,a2,a4
    2928:	00163613          	seqz	a2,a2
    292c:	0612                	slli	a2,a2,0x4
    292e:	26859563          	bne	a1,s0,2b98 <__adddf3+0x8a8>
    2932:	85b2                	mv	a1,a2
    2934:	a021                	j	293c <__adddf3+0x64c>
    2936:	02c59163          	bne	a1,a2,2958 <__adddf3+0x668>
    293a:	4581                	li	a1,0
    293c:	c511                	beqz	a0,2948 <__adddf3+0x658>
    293e:	00400637          	lui	a2,0x400
    2942:	8e75                	and	a2,a2,a3
    2944:	e211                	bnez	a2,2948 <__adddf3+0x658>
    2946:	45c1                	li	a1,16
    2948:	24089963          	bnez	a7,2b9a <__adddf3+0x8aa>
    294c:	16050763          	beqz	a0,2aba <__adddf3+0x7ca>
    2950:	8736                	mv	a4,a3
    2952:	87c2                	mv	a5,a6
    2954:	849a                	mv	s1,t1
    2956:	b179                	j	25e4 <__adddf3+0x2f4>
    2958:	4581                	li	a1,0
    295a:	b7fd                	j	2948 <__adddf3+0x658>
    295c:	41078a33          	sub	s4,a5,a6
    2960:	0147b633          	sltu	a2,a5,s4
    2964:	40d70933          	sub	s2,a4,a3
    2968:	40c90933          	sub	s2,s2,a2
    296c:	00800637          	lui	a2,0x800
    2970:	00c97633          	and	a2,s2,a2
    2974:	c62d                	beqz	a2,29de <__adddf3+0x6ee>
    2976:	40f80a33          	sub	s4,a6,a5
    297a:	8e99                	sub	a3,a3,a4
    297c:	01483833          	sltu	a6,a6,s4
    2980:	41068933          	sub	s2,a3,a6
    2984:	849a                	mv	s1,t1
    2986:	06090063          	beqz	s2,29e6 <__adddf3+0x6f6>
    298a:	854a                	mv	a0,s2
    298c:	337010ef          	jal	ra,44c2 <__clzsi2>
    2990:	ff850613          	addi	a2,a0,-8 # 7ffff8 <__erodata+0x7fb608>
    2994:	47fd                	li	a5,31
    2996:	04c7ce63          	blt	a5,a2,29f2 <__adddf3+0x702>
    299a:	02000693          	li	a3,32
    299e:	8e91                	sub	a3,a3,a2
    29a0:	00c91733          	sll	a4,s2,a2
    29a4:	00da56b3          	srl	a3,s4,a3
    29a8:	8ed9                	or	a3,a3,a4
    29aa:	00ca1833          	sll	a6,s4,a2
    29ae:	06864b63          	blt	a2,s0,2a24 <__adddf3+0x734>
    29b2:	8e01                	sub	a2,a2,s0
    29b4:	00160713          	addi	a4,a2,1 # 800001 <__erodata+0x7fb611>
    29b8:	47fd                	li	a5,31
    29ba:	04e7c263          	blt	a5,a4,29fe <__adddf3+0x70e>
    29be:	02000613          	li	a2,32
    29c2:	8e19                	sub	a2,a2,a4
    29c4:	00c697b3          	sll	a5,a3,a2
    29c8:	00e85533          	srl	a0,a6,a4
    29cc:	00c81633          	sll	a2,a6,a2
    29d0:	8fc9                	or	a5,a5,a0
    29d2:	00c03633          	snez	a2,a2
    29d6:	8fd1                	or	a5,a5,a2
    29d8:	00e6d733          	srl	a4,a3,a4
    29dc:	b56d                	j	2886 <__adddf3+0x596>
    29de:	012a67b3          	or	a5,s4,s2
    29e2:	f3d5                	bnez	a5,2986 <__adddf3+0x696>
    29e4:	b71d                	j	290a <__adddf3+0x61a>
    29e6:	8552                	mv	a0,s4
    29e8:	2db010ef          	jal	ra,44c2 <__clzsi2>
    29ec:	02050513          	addi	a0,a0,32
    29f0:	b745                	j	2990 <__adddf3+0x6a0>
    29f2:	fd850693          	addi	a3,a0,-40
    29f6:	00da16b3          	sll	a3,s4,a3
    29fa:	4801                	li	a6,0
    29fc:	bf4d                	j	29ae <__adddf3+0x6be>
    29fe:	1605                	addi	a2,a2,-31
    2a00:	02000593          	li	a1,32
    2a04:	00c6d633          	srl	a2,a3,a2
    2a08:	4781                	li	a5,0
    2a0a:	00b70763          	beq	a4,a1,2a18 <__adddf3+0x728>
    2a0e:	04000793          	li	a5,64
    2a12:	8f99                	sub	a5,a5,a4
    2a14:	00f697b3          	sll	a5,a3,a5
    2a18:	00f867b3          	or	a5,a6,a5
    2a1c:	00f037b3          	snez	a5,a5
    2a20:	8fd1                	or	a5,a5,a2
    2a22:	bdc5                	j	2912 <__adddf3+0x622>
    2a24:	ff8007b7          	lui	a5,0xff800
    2a28:	17fd                	addi	a5,a5,-1
    2a2a:	40c40633          	sub	a2,s0,a2
    2a2e:	8efd                	and	a3,a3,a5
    2a30:	b4a1                	j	2478 <__adddf3+0x188>
    2a32:	8736                	mv	a4,a3
    2a34:	87c2                	mv	a5,a6
    2a36:	bd81                	j	2886 <__adddf3+0x596>
    2a38:	8736                	mv	a4,a3
    2a3a:	87c2                	mv	a5,a6
    2a3c:	b5c9                	j	28fe <__adddf3+0x60e>
    2a3e:	8732                	mv	a4,a2
    2a40:	87ae                	mv	a5,a1
    2a42:	b591                	j	2886 <__adddf3+0x596>
    2a44:	85a6                	mv	a1,s1
    2a46:	e80492e3          	bnez	s1,28ca <__adddf3+0x5da>
    2a4a:	ff86b693          	sltiu	a3,a3,-8
    2a4e:	0016c693          	xori	a3,a3,1
    2a52:	9436                	add	s0,s0,a3
    2a54:	4585                	li	a1,1
    2a56:	bd95                	j	28ca <__adddf3+0x5da>
    2a58:	4585                	li	a1,1
    2a5a:	e60488e3          	beqz	s1,28ca <__adddf3+0x5da>
    2a5e:	ff86b693          	sltiu	a3,a3,-8
    2a62:	0016c693          	xori	a3,a3,1
    2a66:	9436                	add	s0,s0,a3
    2a68:	85a6                	mv	a1,s1
    2a6a:	b585                	j	28ca <__adddf3+0x5da>
    2a6c:	4701                	li	a4,0
    2a6e:	7ff00613          	li	a2,2047
    2a72:	4581                	li	a1,0
    2a74:	a07d                	j	2b22 <__adddf3+0x832>
    2a76:	87c2                	mv	a5,a6
    2a78:	ba35                	j	23b4 <__adddf3+0xc4>
    2a7a:	577d                	li	a4,-1
    2a7c:	57fd                	li	a5,-1
    2a7e:	7fe00613          	li	a2,2046
    2a82:	4401                	li	s0,0
    2a84:	b6c1                	j	2644 <__adddf3+0x354>
    2a86:	4701                	li	a4,0
    2a88:	4781                	li	a5,0
    2a8a:	a861                	j	2b22 <__adddf3+0x832>
    2a8c:	4701                	li	a4,0
    2a8e:	4781                	li	a5,0
    2a90:	bff9                	j	2a6e <__adddf3+0x77e>
    2a92:	4701                	li	a4,0
    2a94:	bff9                	j	2a72 <__adddf3+0x782>
    2a96:	87c2                	mv	a5,a6
    2a98:	4581                	li	a1,0
    2a9a:	bcf5                	j	2596 <__adddf3+0x2a6>
    2a9c:	4701                	li	a4,0
    2a9e:	849a                	mv	s1,t1
    2aa0:	bfc9                	j	2a72 <__adddf3+0x782>
    2aa2:	87c2                	mv	a5,a6
    2aa4:	849a                	mv	s1,t1
    2aa6:	bfcd                	j	2a98 <__adddf3+0x7a8>
    2aa8:	4701                	li	a4,0
    2aaa:	7ff00613          	li	a2,2047
    2aae:	bfc5                	j	2a9e <__adddf3+0x7ae>
    2ab0:	87c2                	mv	a5,a6
    2ab2:	7ff00613          	li	a2,2047
    2ab6:	849a                	mv	s1,t1
    2ab8:	b685                	j	2618 <__adddf3+0x328>
    2aba:	4781                	li	a5,0
    2abc:	4481                	li	s1,0
    2abe:	00400737          	lui	a4,0x400
    2ac2:	7ff00613          	li	a2,2047
    2ac6:	45c1                	li	a1,16
    2ac8:	a8a9                	j	2b22 <__adddf3+0x832>
    2aca:	4701                	li	a4,0
    2acc:	4781                	li	a5,0
    2ace:	4601                	li	a2,0
    2ad0:	b74d                	j	2a72 <__adddf3+0x782>
    2ad2:	e489                	bnez	s1,2adc <__adddf3+0x7ec>
    2ad4:	00878693          	addi	a3,a5,8 # ff800008 <__kernel_stack+0xdf740010>
    2ad8:	be41                	j	2668 <__adddf3+0x378>
    2ada:	fced                	bnez	s1,2ad4 <__adddf3+0x7e4>
    2adc:	ac0416e3          	bnez	s0,25a8 <__adddf3+0x2b8>
    2ae0:	a089                	j	2b22 <__adddf3+0x832>
    2ae2:	4781                	li	a5,0
    2ae4:	02098063          	beqz	s3,2b04 <__adddf3+0x814>
    2ae8:	470d                	li	a4,3
    2aea:	00e99863          	bne	s3,a4,2afa <__adddf3+0x80a>
    2aee:	00048b63          	beqz	s1,2b04 <__adddf3+0x814>
    2af2:	57fd                	li	a5,-1
    2af4:	7fe00613          	li	a2,2046
    2af8:	a031                	j	2b04 <__adddf3+0x814>
    2afa:	4709                	li	a4,2
    2afc:	fee99be3          	bne	s3,a4,2af2 <__adddf3+0x802>
    2b00:	fe0489e3          	beqz	s1,2af2 <__adddf3+0x802>
    2b04:	0055e593          	ori	a1,a1,5
    2b08:	873e                	mv	a4,a5
    2b0a:	a80d                	j	2b3c <__adddf3+0x84c>
    2b0c:	85b2                	mv	a1,a2
    2b0e:	0106e6b3          	or	a3,a3,a6
    2b12:	ac0689e3          	beqz	a3,25e4 <__adddf3+0x2f4>
    2b16:	4481                	li	s1,0
    2b18:	00400737          	lui	a4,0x400
    2b1c:	4781                	li	a5,0
    2b1e:	7ff00613          	li	a2,2047
    2b22:	008006b7          	lui	a3,0x800
    2b26:	8ef9                	and	a3,a3,a4
    2b28:	ca91                	beqz	a3,2b3c <__adddf3+0x84c>
    2b2a:	0605                	addi	a2,a2,1
    2b2c:	7ff00693          	li	a3,2047
    2b30:	fad609e3          	beq	a2,a3,2ae2 <__adddf3+0x7f2>
    2b34:	ff8006b7          	lui	a3,0xff800
    2b38:	16fd                	addi	a3,a3,-1
    2b3a:	8f75                	and	a4,a4,a3
    2b3c:	0037d513          	srli	a0,a5,0x3
    2b40:	7ff00693          	li	a3,2047
    2b44:	01d71793          	slli	a5,a4,0x1d
    2b48:	8fc9                	or	a5,a5,a0
    2b4a:	830d                	srli	a4,a4,0x3
    2b4c:	00d61963          	bne	a2,a3,2b5e <__adddf3+0x86e>
    2b50:	8fd9                	or	a5,a5,a4
    2b52:	4701                	li	a4,0
    2b54:	c789                	beqz	a5,2b5e <__adddf3+0x86e>
    2b56:	00080737          	lui	a4,0x80
    2b5a:	4781                	li	a5,0
    2b5c:	4481                	li	s1,0
    2b5e:	7ff006b7          	lui	a3,0x7ff00
    2b62:	0652                	slli	a2,a2,0x14
    2b64:	0732                	slli	a4,a4,0xc
    2b66:	8e75                	and	a2,a2,a3
    2b68:	8331                	srli	a4,a4,0xc
    2b6a:	8f51                	or	a4,a4,a2
    2b6c:	04fe                	slli	s1,s1,0x1f
    2b6e:	009766b3          	or	a3,a4,s1
    2b72:	873e                	mv	a4,a5
    2b74:	87b6                	mv	a5,a3
    2b76:	c199                	beqz	a1,2b7c <__adddf3+0x88c>
    2b78:	0015a073          	csrs	fflags,a1
    2b7c:	40f2                	lw	ra,28(sp)
    2b7e:	4462                	lw	s0,24(sp)
    2b80:	44d2                	lw	s1,20(sp)
    2b82:	4942                	lw	s2,16(sp)
    2b84:	49b2                	lw	s3,12(sp)
    2b86:	4a22                	lw	s4,8(sp)
    2b88:	853a                	mv	a0,a4
    2b8a:	85be                	mv	a1,a5
    2b8c:	6105                	addi	sp,sp,32
    2b8e:	8082                	ret
    2b90:	da8585e3          	beq	a1,s0,293a <__adddf3+0x64a>
    2b94:	4581                	li	a1,0
    2b96:	bb5d                	j	294c <__adddf3+0x65c>
    2b98:	85b2                	mv	a1,a2
    2b9a:	a40505e3          	beqz	a0,25e4 <__adddf3+0x2f4>
    2b9e:	bfa5                	j	2b16 <__adddf3+0x826>
    2ba0:	a48588e3          	beq	a1,s0,25f0 <__adddf3+0x300>
    2ba4:	4581                	li	a1,0
    2ba6:	bc2d                	j	25e0 <__adddf3+0x2f0>

00002ba8 <__divdf3>:
    2ba8:	7179                	addi	sp,sp,-48
    2baa:	d422                	sw	s0,40(sp)
    2bac:	ca56                	sw	s5,20(sp)
    2bae:	c266                	sw	s9,4(sp)
    2bb0:	d606                	sw	ra,44(sp)
    2bb2:	d226                	sw	s1,36(sp)
    2bb4:	d04a                	sw	s2,32(sp)
    2bb6:	ce4e                	sw	s3,28(sp)
    2bb8:	cc52                	sw	s4,24(sp)
    2bba:	c85a                	sw	s6,16(sp)
    2bbc:	c65e                	sw	s7,12(sp)
    2bbe:	c462                	sw	s8,8(sp)
    2bc0:	842a                	mv	s0,a0
    2bc2:	8cb2                	mv	s9,a2
    2bc4:	8ab6                	mv	s5,a3
    2bc6:	00202973          	frrm	s2
    2bca:	0145db13          	srli	s6,a1,0x14
    2bce:	00c59b93          	slli	s7,a1,0xc
    2bd2:	7ffb7b13          	andi	s6,s6,2047
    2bd6:	00cbdb93          	srli	s7,s7,0xc
    2bda:	01f5da13          	srli	s4,a1,0x1f
    2bde:	020b0663          	beqz	s6,2c0a <__divdf3+0x62>
    2be2:	7ff00793          	li	a5,2047
    2be6:	06fb0b63          	beq	s6,a5,2c5c <__divdf3+0xb4>
    2bea:	01d55713          	srli	a4,a0,0x1d
    2bee:	0b8e                	slli	s7,s7,0x3
    2bf0:	01776bb3          	or	s7,a4,s7
    2bf4:	008007b7          	lui	a5,0x800
    2bf8:	00fbebb3          	or	s7,s7,a5
    2bfc:	00351993          	slli	s3,a0,0x3
    2c00:	c01b0b13          	addi	s6,s6,-1023
    2c04:	4c01                	li	s8,0
    2c06:	4481                	li	s1,0
    2c08:	a0bd                	j	2c76 <__divdf3+0xce>
    2c0a:	00abe7b3          	or	a5,s7,a0
    2c0e:	c7e9                	beqz	a5,2cd8 <__divdf3+0x130>
    2c10:	020b8b63          	beqz	s7,2c46 <__divdf3+0x9e>
    2c14:	855e                	mv	a0,s7
    2c16:	0ad010ef          	jal	ra,44c2 <__clzsi2>
    2c1a:	ff550713          	addi	a4,a0,-11
    2c1e:	47f1                	li	a5,28
    2c20:	02e7c863          	blt	a5,a4,2c50 <__divdf3+0xa8>
    2c24:	46f5                	li	a3,29
    2c26:	ff850993          	addi	s3,a0,-8
    2c2a:	8e99                	sub	a3,a3,a4
    2c2c:	013b9bb3          	sll	s7,s7,s3
    2c30:	00d456b3          	srl	a3,s0,a3
    2c34:	0176ebb3          	or	s7,a3,s7
    2c38:	013419b3          	sll	s3,s0,s3
    2c3c:	c0d00593          	li	a1,-1011
    2c40:	40a58b33          	sub	s6,a1,a0
    2c44:	b7c1                	j	2c04 <__divdf3+0x5c>
    2c46:	07d010ef          	jal	ra,44c2 <__clzsi2>
    2c4a:	02050513          	addi	a0,a0,32
    2c4e:	b7f1                	j	2c1a <__divdf3+0x72>
    2c50:	fd850b93          	addi	s7,a0,-40
    2c54:	01741bb3          	sll	s7,s0,s7
    2c58:	4981                	li	s3,0
    2c5a:	b7cd                	j	2c3c <__divdf3+0x94>
    2c5c:	00abe433          	or	s0,s7,a0
    2c60:	c049                	beqz	s0,2ce2 <__divdf3+0x13a>
    2c62:	000807b7          	lui	a5,0x80
    2c66:	00fbf7b3          	and	a5,s7,a5
    2c6a:	89aa                	mv	s3,a0
    2c6c:	7ff00b13          	li	s6,2047
    2c70:	4c0d                	li	s8,3
    2c72:	44c1                	li	s1,16
    2c74:	fbc9                	bnez	a5,2c06 <__divdf3+0x5e>
    2c76:	00ca9513          	slli	a0,s5,0xc
    2c7a:	00c55413          	srli	s0,a0,0xc
    2c7e:	014ad513          	srli	a0,s5,0x14
    2c82:	7ff57593          	andi	a1,a0,2047
    2c86:	87e6                	mv	a5,s9
    2c88:	01fada93          	srli	s5,s5,0x1f
    2c8c:	c1ad                	beqz	a1,2cee <__divdf3+0x146>
    2c8e:	7ff00713          	li	a4,2047
    2c92:	0ae58963          	beq	a1,a4,2d44 <__divdf3+0x19c>
    2c96:	01dcd793          	srli	a5,s9,0x1d
    2c9a:	00341513          	slli	a0,s0,0x3
    2c9e:	8d5d                	or	a0,a0,a5
    2ca0:	00800437          	lui	s0,0x800
    2ca4:	8c49                	or	s0,s0,a0
    2ca6:	003c9793          	slli	a5,s9,0x3
    2caa:	c0158513          	addi	a0,a1,-1023
    2cae:	4701                	li	a4,0
    2cb0:	002c1693          	slli	a3,s8,0x2
    2cb4:	8ed9                	or	a3,a3,a4
    2cb6:	40ab05b3          	sub	a1,s6,a0
    2cba:	16fd                	addi	a3,a3,-1
    2cbc:	4539                	li	a0,14
    2cbe:	015a4633          	xor	a2,s4,s5
    2cc2:	0ad56a63          	bltu	a0,a3,2d76 <__divdf3+0x1ce>
    2cc6:	00002517          	auipc	a0,0x2
    2cca:	bb250513          	addi	a0,a0,-1102 # 4878 <pow10.0+0x50>
    2cce:	068a                	slli	a3,a3,0x2
    2cd0:	96aa                	add	a3,a3,a0
    2cd2:	4294                	lw	a3,0(a3)
    2cd4:	96aa                	add	a3,a3,a0
    2cd6:	8682                	jr	a3
    2cd8:	4b81                	li	s7,0
    2cda:	4981                	li	s3,0
    2cdc:	4b01                	li	s6,0
    2cde:	4c05                	li	s8,1
    2ce0:	b71d                	j	2c06 <__divdf3+0x5e>
    2ce2:	4b81                	li	s7,0
    2ce4:	4981                	li	s3,0
    2ce6:	7ff00b13          	li	s6,2047
    2cea:	4c09                	li	s8,2
    2cec:	bf29                	j	2c06 <__divdf3+0x5e>
    2cee:	019467b3          	or	a5,s0,s9
    2cf2:	c7ad                	beqz	a5,2d5c <__divdf3+0x1b4>
    2cf4:	02040c63          	beqz	s0,2d2c <__divdf3+0x184>
    2cf8:	8522                	mv	a0,s0
    2cfa:	7c8010ef          	jal	ra,44c2 <__clzsi2>
    2cfe:	85aa                	mv	a1,a0
    2d00:	ff558693          	addi	a3,a1,-11
    2d04:	47f1                	li	a5,28
    2d06:	02d7c963          	blt	a5,a3,2d38 <__divdf3+0x190>
    2d0a:	4775                	li	a4,29
    2d0c:	ff858793          	addi	a5,a1,-8
    2d10:	8f15                	sub	a4,a4,a3
    2d12:	00f41533          	sll	a0,s0,a5
    2d16:	00ecd733          	srl	a4,s9,a4
    2d1a:	00a76433          	or	s0,a4,a0
    2d1e:	00fc97b3          	sll	a5,s9,a5
    2d22:	c0d00713          	li	a4,-1011
    2d26:	40b70533          	sub	a0,a4,a1
    2d2a:	b751                	j	2cae <__divdf3+0x106>
    2d2c:	8566                	mv	a0,s9
    2d2e:	794010ef          	jal	ra,44c2 <__clzsi2>
    2d32:	02050593          	addi	a1,a0,32
    2d36:	b7e9                	j	2d00 <__divdf3+0x158>
    2d38:	fd858513          	addi	a0,a1,-40
    2d3c:	00ac9433          	sll	s0,s9,a0
    2d40:	4781                	li	a5,0
    2d42:	b7c5                	j	2d22 <__divdf3+0x17a>
    2d44:	01946633          	or	a2,s0,s9
    2d48:	ce19                	beqz	a2,2d66 <__divdf3+0x1be>
    2d4a:	00080737          	lui	a4,0x80
    2d4e:	8f61                	and	a4,a4,s0
    2d50:	7ff00513          	li	a0,2047
    2d54:	ef19                	bnez	a4,2d72 <__divdf3+0x1ca>
    2d56:	470d                	li	a4,3
    2d58:	44c1                	li	s1,16
    2d5a:	bf99                	j	2cb0 <__divdf3+0x108>
    2d5c:	4401                	li	s0,0
    2d5e:	4781                	li	a5,0
    2d60:	4501                	li	a0,0
    2d62:	4705                	li	a4,1
    2d64:	b7b1                	j	2cb0 <__divdf3+0x108>
    2d66:	4401                	li	s0,0
    2d68:	4781                	li	a5,0
    2d6a:	7ff00513          	li	a0,2047
    2d6e:	4709                	li	a4,2
    2d70:	b781                	j	2cb0 <__divdf3+0x108>
    2d72:	470d                	li	a4,3
    2d74:	bf35                	j	2cb0 <__divdf3+0x108>
    2d76:	01746663          	bltu	s0,s7,2d82 <__divdf3+0x1da>
    2d7a:	268b9463          	bne	s7,s0,2fe2 <__divdf3+0x43a>
    2d7e:	26f9e263          	bltu	s3,a5,2fe2 <__divdf3+0x43a>
    2d82:	01fb9513          	slli	a0,s7,0x1f
    2d86:	0019d713          	srli	a4,s3,0x1
    2d8a:	01f99693          	slli	a3,s3,0x1f
    2d8e:	001bdb93          	srli	s7,s7,0x1
    2d92:	00e569b3          	or	s3,a0,a4
    2d96:	00841513          	slli	a0,s0,0x8
    2d9a:	0187d813          	srli	a6,a5,0x18
    2d9e:	00a86833          	or	a6,a6,a0
    2da2:	8141                	srli	a0,a0,0x10
    2da4:	02abde33          	divu	t3,s7,a0
    2da8:	01081f13          	slli	t5,a6,0x10
    2dac:	010f5f13          	srli	t5,t5,0x10
    2db0:	00879893          	slli	a7,a5,0x8
    2db4:	0109d793          	srli	a5,s3,0x10
    2db8:	02abfbb3          	remu	s7,s7,a0
    2dbc:	8372                	mv	t1,t3
    2dbe:	03cf0733          	mul	a4,t5,t3
    2dc2:	0bc2                	slli	s7,s7,0x10
    2dc4:	0177e7b3          	or	a5,a5,s7
    2dc8:	00e7fc63          	bgeu	a5,a4,2de0 <__divdf3+0x238>
    2dcc:	97c2                	add	a5,a5,a6
    2dce:	fffe0313          	addi	t1,t3,-1
    2dd2:	0107e763          	bltu	a5,a6,2de0 <__divdf3+0x238>
    2dd6:	00e7f563          	bgeu	a5,a4,2de0 <__divdf3+0x238>
    2dda:	ffee0313          	addi	t1,t3,-2
    2dde:	97c2                	add	a5,a5,a6
    2de0:	8f99                	sub	a5,a5,a4
    2de2:	02a7deb3          	divu	t4,a5,a0
    2de6:	01099713          	slli	a4,s3,0x10
    2dea:	8341                	srli	a4,a4,0x10
    2dec:	02a7f7b3          	remu	a5,a5,a0
    2df0:	89f6                	mv	s3,t4
    2df2:	03df0e33          	mul	t3,t5,t4
    2df6:	07c2                	slli	a5,a5,0x10
    2df8:	8f5d                	or	a4,a4,a5
    2dfa:	01c77c63          	bgeu	a4,t3,2e12 <__divdf3+0x26a>
    2dfe:	9742                	add	a4,a4,a6
    2e00:	fffe8993          	addi	s3,t4,-1
    2e04:	01076763          	bltu	a4,a6,2e12 <__divdf3+0x26a>
    2e08:	01c77563          	bgeu	a4,t3,2e12 <__divdf3+0x26a>
    2e0c:	ffee8993          	addi	s3,t4,-2
    2e10:	9742                	add	a4,a4,a6
    2e12:	0342                	slli	t1,t1,0x10
    2e14:	013369b3          	or	s3,t1,s3
    2e18:	6341                	lui	t1,0x10
    2e1a:	fff30e93          	addi	t4,t1,-1 # ffff <__erodata+0xb60f>
    2e1e:	0109d293          	srli	t0,s3,0x10
    2e22:	0108df93          	srli	t6,a7,0x10
    2e26:	41c70733          	sub	a4,a4,t3
    2e2a:	01d9fe33          	and	t3,s3,t4
    2e2e:	01d8feb3          	and	t4,a7,t4
    2e32:	03de07b3          	mul	a5,t3,t4
    2e36:	03d28433          	mul	s0,t0,t4
    2e3a:	03cf8e33          	mul	t3,t6,t3
    2e3e:	008e03b3          	add	t2,t3,s0
    2e42:	0107de13          	srli	t3,a5,0x10
    2e46:	9e1e                	add	t3,t3,t2
    2e48:	03f282b3          	mul	t0,t0,t6
    2e4c:	008e7363          	bgeu	t3,s0,2e52 <__divdf3+0x2aa>
    2e50:	929a                	add	t0,t0,t1
    2e52:	63c1                	lui	t2,0x10
    2e54:	010e5313          	srli	t1,t3,0x10
    2e58:	13fd                	addi	t2,t2,-1
    2e5a:	929a                	add	t0,t0,t1
    2e5c:	007e7333          	and	t1,t3,t2
    2e60:	0342                	slli	t1,t1,0x10
    2e62:	0077f7b3          	and	a5,a5,t2
    2e66:	933e                	add	t1,t1,a5
    2e68:	00576763          	bltu	a4,t0,2e76 <__divdf3+0x2ce>
    2e6c:	844e                	mv	s0,s3
    2e6e:	02571e63          	bne	a4,t0,2eaa <__divdf3+0x302>
    2e72:	0266fc63          	bgeu	a3,t1,2eaa <__divdf3+0x302>
    2e76:	96c6                	add	a3,a3,a7
    2e78:	0116b7b3          	sltu	a5,a3,a7
    2e7c:	97c2                	add	a5,a5,a6
    2e7e:	973e                	add	a4,a4,a5
    2e80:	fff98413          	addi	s0,s3,-1
    2e84:	00e86663          	bltu	a6,a4,2e90 <__divdf3+0x2e8>
    2e88:	02e81163          	bne	a6,a4,2eaa <__divdf3+0x302>
    2e8c:	0116ef63          	bltu	a3,a7,2eaa <__divdf3+0x302>
    2e90:	00576663          	bltu	a4,t0,2e9c <__divdf3+0x2f4>
    2e94:	00e29b63          	bne	t0,a4,2eaa <__divdf3+0x302>
    2e98:	0066f963          	bgeu	a3,t1,2eaa <__divdf3+0x302>
    2e9c:	96c6                	add	a3,a3,a7
    2e9e:	0116b7b3          	sltu	a5,a3,a7
    2ea2:	97c2                	add	a5,a5,a6
    2ea4:	ffe98413          	addi	s0,s3,-2
    2ea8:	973e                	add	a4,a4,a5
    2eaa:	40668333          	sub	t1,a3,t1
    2eae:	40570733          	sub	a4,a4,t0
    2eb2:	0066b6b3          	sltu	a3,a3,t1
    2eb6:	8f15                	sub	a4,a4,a3
    2eb8:	57fd                	li	a5,-1
    2eba:	0ee80763          	beq	a6,a4,2fa8 <__divdf3+0x400>
    2ebe:	02a752b3          	divu	t0,a4,a0
    2ec2:	01035793          	srli	a5,t1,0x10
    2ec6:	02a77733          	remu	a4,a4,a0
    2eca:	8696                	mv	a3,t0
    2ecc:	025f0e33          	mul	t3,t5,t0
    2ed0:	0742                	slli	a4,a4,0x10
    2ed2:	8f5d                	or	a4,a4,a5
    2ed4:	01c77c63          	bgeu	a4,t3,2eec <__divdf3+0x344>
    2ed8:	9742                	add	a4,a4,a6
    2eda:	fff28693          	addi	a3,t0,-1
    2ede:	01076763          	bltu	a4,a6,2eec <__divdf3+0x344>
    2ee2:	01c77563          	bgeu	a4,t3,2eec <__divdf3+0x344>
    2ee6:	ffe28693          	addi	a3,t0,-2
    2eea:	9742                	add	a4,a4,a6
    2eec:	41c70733          	sub	a4,a4,t3
    2ef0:	02a75e33          	divu	t3,a4,a0
    2ef4:	01031793          	slli	a5,t1,0x10
    2ef8:	83c1                	srli	a5,a5,0x10
    2efa:	02a77733          	remu	a4,a4,a0
    2efe:	03cf0f33          	mul	t5,t5,t3
    2f02:	0742                	slli	a4,a4,0x10
    2f04:	8f5d                	or	a4,a4,a5
    2f06:	87f2                	mv	a5,t3
    2f08:	01e77c63          	bgeu	a4,t5,2f20 <__divdf3+0x378>
    2f0c:	9742                	add	a4,a4,a6
    2f0e:	fffe0793          	addi	a5,t3,-1
    2f12:	01076763          	bltu	a4,a6,2f20 <__divdf3+0x378>
    2f16:	01e77563          	bgeu	a4,t5,2f20 <__divdf3+0x378>
    2f1a:	ffee0793          	addi	a5,t3,-2
    2f1e:	9742                	add	a4,a4,a6
    2f20:	06c2                	slli	a3,a3,0x10
    2f22:	8edd                	or	a3,a3,a5
    2f24:	01069793          	slli	a5,a3,0x10
    2f28:	83c1                	srli	a5,a5,0x10
    2f2a:	0106d313          	srli	t1,a3,0x10
    2f2e:	026f8e33          	mul	t3,t6,t1
    2f32:	41e70733          	sub	a4,a4,t5
    2f36:	02ff8fb3          	mul	t6,t6,a5
    2f3a:	02fe8f33          	mul	t5,t4,a5
    2f3e:	03d30eb3          	mul	t4,t1,t4
    2f42:	010f5793          	srli	a5,t5,0x10
    2f46:	9ff6                	add	t6,t6,t4
    2f48:	97fe                	add	a5,a5,t6
    2f4a:	01d7f463          	bgeu	a5,t4,2f52 <__divdf3+0x3aa>
    2f4e:	6541                	lui	a0,0x10
    2f50:	9e2a                	add	t3,t3,a0
    2f52:	0107d313          	srli	t1,a5,0x10
    2f56:	9372                	add	t1,t1,t3
    2f58:	6e41                	lui	t3,0x10
    2f5a:	1e7d                	addi	t3,t3,-1
    2f5c:	01c7f533          	and	a0,a5,t3
    2f60:	0542                	slli	a0,a0,0x10
    2f62:	01cf7f33          	and	t5,t5,t3
    2f66:	957a                	add	a0,a0,t5
    2f68:	00676663          	bltu	a4,t1,2f74 <__divdf3+0x3cc>
    2f6c:	2c671263          	bne	a4,t1,3230 <__divdf3+0x688>
    2f70:	87b6                	mv	a5,a3
    2f72:	c91d                	beqz	a0,2fa8 <__divdf3+0x400>
    2f74:	9742                	add	a4,a4,a6
    2f76:	fff68793          	addi	a5,a3,-1 # 7fefffff <__kernel_stack+0x5fe40007>
    2f7a:	03076163          	bltu	a4,a6,2f9c <__divdf3+0x3f4>
    2f7e:	00676663          	bltu	a4,t1,2f8a <__divdf3+0x3e2>
    2f82:	2a671663          	bne	a4,t1,322e <__divdf3+0x686>
    2f86:	00a8fd63          	bgeu	a7,a0,2fa0 <__divdf3+0x3f8>
    2f8a:	ffe68793          	addi	a5,a3,-2
    2f8e:	00189693          	slli	a3,a7,0x1
    2f92:	0116b8b3          	sltu	a7,a3,a7
    2f96:	9846                	add	a6,a6,a7
    2f98:	9742                	add	a4,a4,a6
    2f9a:	88b6                	mv	a7,a3
    2f9c:	00671463          	bne	a4,t1,2fa4 <__divdf3+0x3fc>
    2fa0:	00a88463          	beq	a7,a0,2fa8 <__divdf3+0x400>
    2fa4:	0017e793          	ori	a5,a5,1
    2fa8:	3ff58813          	addi	a6,a1,1023
    2fac:	11005863          	blez	a6,30bc <__divdf3+0x514>
    2fb0:	0077f713          	andi	a4,a5,7
    2fb4:	cf25                	beqz	a4,302c <__divdf3+0x484>
    2fb6:	4709                	li	a4,2
    2fb8:	0014e493          	ori	s1,s1,1
    2fbc:	06e90763          	beq	s2,a4,302a <__divdf3+0x482>
    2fc0:	470d                	li	a4,3
    2fc2:	06e90063          	beq	s2,a4,3022 <__divdf3+0x47a>
    2fc6:	06091363          	bnez	s2,302c <__divdf3+0x484>
    2fca:	00f7f713          	andi	a4,a5,15
    2fce:	4691                	li	a3,4
    2fd0:	04d70e63          	beq	a4,a3,302c <__divdf3+0x484>
    2fd4:	00478713          	addi	a4,a5,4 # 80004 <__erodata+0x7b614>
    2fd8:	00f737b3          	sltu	a5,a4,a5
    2fdc:	943e                	add	s0,s0,a5
    2fde:	87ba                	mv	a5,a4
    2fe0:	a0b1                	j	302c <__divdf3+0x484>
    2fe2:	15fd                	addi	a1,a1,-1
    2fe4:	4681                	li	a3,0
    2fe6:	bb45                	j	2d96 <__divdf3+0x1ee>
    2fe8:	8652                	mv	a2,s4
    2fea:	845e                	mv	s0,s7
    2fec:	87ce                	mv	a5,s3
    2fee:	8762                	mv	a4,s8
    2ff0:	468d                	li	a3,3
    2ff2:	22d70763          	beq	a4,a3,3220 <__divdf3+0x678>
    2ff6:	4685                	li	a3,1
    2ff8:	22d70163          	beq	a4,a3,321a <__divdf3+0x672>
    2ffc:	4689                	li	a3,2
    2ffe:	fad715e3          	bne	a4,a3,2fa8 <__divdf3+0x400>
    3002:	a029                	j	300c <__divdf3+0x464>
    3004:	8656                	mv	a2,s5
    3006:	b7ed                	j	2ff0 <__divdf3+0x448>
    3008:	0084e493          	ori	s1,s1,8
    300c:	4501                	li	a0,0
    300e:	4781                	li	a5,0
    3010:	7ff00713          	li	a4,2047
    3014:	a091                	j	3058 <__divdf3+0x4b0>
    3016:	00080437          	lui	s0,0x80
    301a:	4781                	li	a5,0
    301c:	4601                	li	a2,0
    301e:	470d                	li	a4,3
    3020:	bfc1                	j	2ff0 <__divdf3+0x448>
    3022:	e609                	bnez	a2,302c <__divdf3+0x484>
    3024:	00878713          	addi	a4,a5,8
    3028:	bf45                	j	2fd8 <__divdf3+0x430>
    302a:	fe6d                	bnez	a2,3024 <__divdf3+0x47c>
    302c:	01000737          	lui	a4,0x1000
    3030:	8f61                	and	a4,a4,s0
    3032:	c719                	beqz	a4,3040 <__divdf3+0x498>
    3034:	ff000737          	lui	a4,0xff000
    3038:	177d                	addi	a4,a4,-1
    303a:	8c79                	and	s0,s0,a4
    303c:	40058813          	addi	a6,a1,1024
    3040:	7fe00713          	li	a4,2046
    3044:	05074663          	blt	a4,a6,3090 <__divdf3+0x4e8>
    3048:	0037d713          	srli	a4,a5,0x3
    304c:	01d41793          	slli	a5,s0,0x1d
    3050:	8fd9                	or	a5,a5,a4
    3052:	00345513          	srli	a0,s0,0x3
    3056:	8742                	mv	a4,a6
    3058:	0752                	slli	a4,a4,0x14
    305a:	7ff006b7          	lui	a3,0x7ff00
    305e:	0532                	slli	a0,a0,0xc
    3060:	8f75                	and	a4,a4,a3
    3062:	8131                	srli	a0,a0,0xc
    3064:	8d59                	or	a0,a0,a4
    3066:	067e                	slli	a2,a2,0x1f
    3068:	00c56733          	or	a4,a0,a2
    306c:	85ba                	mv	a1,a4
    306e:	853e                	mv	a0,a5
    3070:	c099                	beqz	s1,3076 <__divdf3+0x4ce>
    3072:	0014a073          	csrs	fflags,s1
    3076:	50b2                	lw	ra,44(sp)
    3078:	5422                	lw	s0,40(sp)
    307a:	5492                	lw	s1,36(sp)
    307c:	5902                	lw	s2,32(sp)
    307e:	49f2                	lw	s3,28(sp)
    3080:	4a62                	lw	s4,24(sp)
    3082:	4ad2                	lw	s5,20(sp)
    3084:	4b42                	lw	s6,16(sp)
    3086:	4bb2                	lw	s7,12(sp)
    3088:	4c22                	lw	s8,8(sp)
    308a:	4c92                	lw	s9,4(sp)
    308c:	6145                	addi	sp,sp,48
    308e:	8082                	ret
    3090:	4789                	li	a5,2
    3092:	02f90363          	beq	s2,a5,30b8 <__divdf3+0x510>
    3096:	478d                	li	a5,3
    3098:	00f90863          	beq	s2,a5,30a8 <__divdf3+0x500>
    309c:	00091763          	bnez	s2,30aa <__divdf3+0x502>
    30a0:	4781                	li	a5,0
    30a2:	7ff00713          	li	a4,2047
    30a6:	a029                	j	30b0 <__divdf3+0x508>
    30a8:	de65                	beqz	a2,30a0 <__divdf3+0x4f8>
    30aa:	57fd                	li	a5,-1
    30ac:	7fe00713          	li	a4,2046
    30b0:	0054e493          	ori	s1,s1,5
    30b4:	853e                	mv	a0,a5
    30b6:	b74d                	j	3058 <__divdf3+0x4b0>
    30b8:	f665                	bnez	a2,30a0 <__divdf3+0x4f8>
    30ba:	bfc5                	j	30aa <__divdf3+0x502>
    30bc:	4705                	li	a4,1
    30be:	04081463          	bnez	a6,3106 <__divdf3+0x55e>
    30c2:	0077f693          	andi	a3,a5,7
    30c6:	8722                	mv	a4,s0
    30c8:	ca9d                	beqz	a3,30fe <__divdf3+0x556>
    30ca:	4689                	li	a3,2
    30cc:	0014e493          	ori	s1,s1,1
    30d0:	02d90663          	beq	s2,a3,30fc <__divdf3+0x554>
    30d4:	468d                	li	a3,3
    30d6:	00d90f63          	beq	s2,a3,30f4 <__divdf3+0x54c>
    30da:	02091263          	bnez	s2,30fe <__divdf3+0x556>
    30de:	00f7f693          	andi	a3,a5,15
    30e2:	4511                	li	a0,4
    30e4:	00a68d63          	beq	a3,a0,30fe <__divdf3+0x556>
    30e8:	ffc7b713          	sltiu	a4,a5,-4
    30ec:	00174713          	xori	a4,a4,1
    30f0:	9722                	add	a4,a4,s0
    30f2:	a031                	j	30fe <__divdf3+0x556>
    30f4:	e609                	bnez	a2,30fe <__divdf3+0x556>
    30f6:	ff87b713          	sltiu	a4,a5,-8
    30fa:	bfcd                	j	30ec <__divdf3+0x544>
    30fc:	fe6d                	bnez	a2,30f6 <__divdf3+0x54e>
    30fe:	8361                	srli	a4,a4,0x18
    3100:	00174713          	xori	a4,a4,1
    3104:	8b05                	andi	a4,a4,1
    3106:	4505                	li	a0,1
    3108:	41050533          	sub	a0,a0,a6
    310c:	03800693          	li	a3,56
    3110:	0ca6c263          	blt	a3,a0,31d4 <__divdf3+0x62c>
    3114:	46fd                	li	a3,31
    3116:	04a6ca63          	blt	a3,a0,316a <__divdf3+0x5c2>
    311a:	41e58593          	addi	a1,a1,1054
    311e:	00a7d833          	srl	a6,a5,a0
    3122:	00b416b3          	sll	a3,s0,a1
    3126:	00b797b3          	sll	a5,a5,a1
    312a:	0106e6b3          	or	a3,a3,a6
    312e:	00f037b3          	snez	a5,a5
    3132:	8fd5                	or	a5,a5,a3
    3134:	00a45533          	srl	a0,s0,a0
    3138:	0077f693          	andi	a3,a5,7
    313c:	c2ad                	beqz	a3,319e <__divdf3+0x5f6>
    313e:	4689                	li	a3,2
    3140:	0014e493          	ori	s1,s1,1
    3144:	04d90c63          	beq	s2,a3,319c <__divdf3+0x5f4>
    3148:	468d                	li	a3,3
    314a:	04d90563          	beq	s2,a3,3194 <__divdf3+0x5ec>
    314e:	04091863          	bnez	s2,319e <__divdf3+0x5f6>
    3152:	00f7f693          	andi	a3,a5,15
    3156:	4591                	li	a1,4
    3158:	04b68363          	beq	a3,a1,319e <__divdf3+0x5f6>
    315c:	00478693          	addi	a3,a5,4
    3160:	00f6b7b3          	sltu	a5,a3,a5
    3164:	953e                	add	a0,a0,a5
    3166:	87b6                	mv	a5,a3
    3168:	a81d                	j	319e <__divdf3+0x5f6>
    316a:	5685                	li	a3,-31
    316c:	410686b3          	sub	a3,a3,a6
    3170:	02000893          	li	a7,32
    3174:	00d456b3          	srl	a3,s0,a3
    3178:	4801                	li	a6,0
    317a:	01150663          	beq	a0,a7,3186 <__divdf3+0x5de>
    317e:	43e58593          	addi	a1,a1,1086
    3182:	00b41833          	sll	a6,s0,a1
    3186:	00f867b3          	or	a5,a6,a5
    318a:	00f037b3          	snez	a5,a5
    318e:	8fd5                	or	a5,a5,a3
    3190:	4501                	li	a0,0
    3192:	b75d                	j	3138 <__divdf3+0x590>
    3194:	e609                	bnez	a2,319e <__divdf3+0x5f6>
    3196:	00878693          	addi	a3,a5,8
    319a:	b7d9                	j	3160 <__divdf3+0x5b8>
    319c:	fe6d                	bnez	a2,3196 <__divdf3+0x5ee>
    319e:	008006b7          	lui	a3,0x800
    31a2:	8ee9                	and	a3,a3,a0
    31a4:	ca81                	beqz	a3,31b4 <__divdf3+0x60c>
    31a6:	0014e493          	ori	s1,s1,1
    31aa:	4501                	li	a0,0
    31ac:	4781                	li	a5,0
    31ae:	e305                	bnez	a4,31ce <__divdf3+0x626>
    31b0:	4705                	li	a4,1
    31b2:	b55d                	j	3058 <__divdf3+0x4b0>
    31b4:	0037d693          	srli	a3,a5,0x3
    31b8:	01d51793          	slli	a5,a0,0x1d
    31bc:	8fd5                	or	a5,a5,a3
    31be:	810d                	srli	a0,a0,0x3
    31c0:	e8070ce3          	beqz	a4,3058 <__divdf3+0x4b0>
    31c4:	0014f713          	andi	a4,s1,1
    31c8:	e80708e3          	beqz	a4,3058 <__divdf3+0x4b0>
    31cc:	4701                	li	a4,0
    31ce:	0024e493          	ori	s1,s1,2
    31d2:	b559                	j	3058 <__divdf3+0x4b0>
    31d4:	8fc1                	or	a5,a5,s0
    31d6:	cf91                	beqz	a5,31f2 <__divdf3+0x64a>
    31d8:	4789                	li	a5,2
    31da:	0014e493          	ori	s1,s1,1
    31de:	02f90363          	beq	s2,a5,3204 <__divdf3+0x65c>
    31e2:	478d                	li	a5,3
    31e4:	00f90c63          	beq	s2,a5,31fc <__divdf3+0x654>
    31e8:	4785                	li	a5,1
    31ea:	00091363          	bnez	s2,31f0 <__divdf3+0x648>
    31ee:	4795                	li	a5,5
    31f0:	838d                	srli	a5,a5,0x3
    31f2:	0024e493          	ori	s1,s1,2
    31f6:	4501                	li	a0,0
    31f8:	4701                	li	a4,0
    31fa:	bdb9                	j	3058 <__divdf3+0x4b0>
    31fc:	47a5                	li	a5,9
    31fe:	da6d                	beqz	a2,31f0 <__divdf3+0x648>
    3200:	4785                	li	a5,1
    3202:	b7fd                	j	31f0 <__divdf3+0x648>
    3204:	47a5                	li	a5,9
    3206:	f66d                	bnez	a2,31f0 <__divdf3+0x648>
    3208:	bfe5                	j	3200 <__divdf3+0x658>
    320a:	00080537          	lui	a0,0x80
    320e:	4781                	li	a5,0
    3210:	7ff00713          	li	a4,2047
    3214:	4601                	li	a2,0
    3216:	44c1                	li	s1,16
    3218:	b581                	j	3058 <__divdf3+0x4b0>
    321a:	4501                	li	a0,0
    321c:	4781                	li	a5,0
    321e:	bfe9                	j	31f8 <__divdf3+0x650>
    3220:	00080537          	lui	a0,0x80
    3224:	4781                	li	a5,0
    3226:	7ff00713          	li	a4,2047
    322a:	4601                	li	a2,0
    322c:	b535                	j	3058 <__divdf3+0x4b0>
    322e:	86be                	mv	a3,a5
    3230:	87b6                	mv	a5,a3
    3232:	bb8d                	j	2fa4 <__divdf3+0x3fc>

00003234 <__eqdf2>:
    3234:	882a                	mv	a6,a0
    3236:	002027f3          	frrm	a5
    323a:	001007b7          	lui	a5,0x100
    323e:	0145d893          	srli	a7,a1,0x14
    3242:	17fd                	addi	a5,a5,-1
    3244:	0146d313          	srli	t1,a3,0x14
    3248:	8e2a                	mv	t3,a0
    324a:	7ff8f893          	andi	a7,a7,2047
    324e:	7ff00513          	li	a0,2047
    3252:	00b7f733          	and	a4,a5,a1
    3256:	8eb2                	mv	t4,a2
    3258:	8ff5                	and	a5,a5,a3
    325a:	81fd                	srli	a1,a1,0x1f
    325c:	7ff37313          	andi	t1,t1,2047
    3260:	82fd                	srli	a3,a3,0x1f
    3262:	00a89863          	bne	a7,a0,3272 <__eqdf2+0x3e>
    3266:	01076533          	or	a0,a4,a6
    326a:	e531                	bnez	a0,32b6 <__eqdf2+0x82>
    326c:	07131463          	bne	t1,a7,32d4 <__eqdf2+0xa0>
    3270:	a019                	j	3276 <__eqdf2+0x42>
    3272:	00a31563          	bne	t1,a0,327c <__eqdf2+0x48>
    3276:	00c7e533          	or	a0,a5,a2
    327a:	e515                	bnez	a0,32a6 <__eqdf2+0x72>
    327c:	4505                	li	a0,1
    327e:	04689c63          	bne	a7,t1,32d6 <__eqdf2+0xa2>
    3282:	04f71a63          	bne	a4,a5,32d6 <__eqdf2+0xa2>
    3286:	05de1863          	bne	t3,t4,32d6 <__eqdf2+0xa2>
    328a:	00d58c63          	beq	a1,a3,32a2 <__eqdf2+0x6e>
    328e:	04089463          	bnez	a7,32d6 <__eqdf2+0xa2>
    3292:	01076733          	or	a4,a4,a6
    3296:	00e03533          	snez	a0,a4
    329a:	8082                	ret
    329c:	00186073          	csrsi	fflags,16
    32a0:	a815                	j	32d4 <__eqdf2+0xa0>
    32a2:	4501                	li	a0,0
    32a4:	8082                	ret
    32a6:	7ff00693          	li	a3,2047
    32aa:	02d89163          	bne	a7,a3,32cc <__eqdf2+0x98>
    32ae:	01076833          	or	a6,a4,a6
    32b2:	00080d63          	beqz	a6,32cc <__eqdf2+0x98>
    32b6:	000806b7          	lui	a3,0x80
    32ba:	8f75                	and	a4,a4,a3
    32bc:	d365                	beqz	a4,329c <__eqdf2+0x68>
    32be:	7ff00713          	li	a4,2047
    32c2:	4505                	li	a0,1
    32c4:	00e31963          	bne	t1,a4,32d6 <__eqdf2+0xa2>
    32c8:	8e5d                	or	a2,a2,a5
    32ca:	c611                	beqz	a2,32d6 <__eqdf2+0xa2>
    32cc:	00080737          	lui	a4,0x80
    32d0:	8ff9                	and	a5,a5,a4
    32d2:	d7e9                	beqz	a5,329c <__eqdf2+0x68>
    32d4:	4505                	li	a0,1
    32d6:	8082                	ret

000032d8 <__gedf2>:
    32d8:	87aa                	mv	a5,a0
    32da:	00202773          	frrm	a4
    32de:	00100737          	lui	a4,0x100
    32e2:	177d                	addi	a4,a4,-1
    32e4:	0145d813          	srli	a6,a1,0x14
    32e8:	00b778b3          	and	a7,a4,a1
    32ec:	832a                	mv	t1,a0
    32ee:	7ff87813          	andi	a6,a6,2047
    32f2:	01f5d513          	srli	a0,a1,0x1f
    32f6:	7ff00e93          	li	t4,2047
    32fa:	0146d593          	srli	a1,a3,0x14
    32fe:	8f75                	and	a4,a4,a3
    3300:	8e32                	mv	t3,a2
    3302:	7ff5f593          	andi	a1,a1,2047
    3306:	82fd                	srli	a3,a3,0x1f
    3308:	01d81a63          	bne	a6,t4,331c <__gedf2+0x44>
    330c:	00f8eeb3          	or	t4,a7,a5
    3310:	060e8963          	beqz	t4,3382 <__gedf2+0xaa>
    3314:	00186073          	csrsi	fflags,16
    3318:	5579                	li	a0,-2
    331a:	8082                	ret
    331c:	01d59663          	bne	a1,t4,3328 <__gedf2+0x50>
    3320:	00c76eb3          	or	t4,a4,a2
    3324:	fe0e98e3          	bnez	t4,3314 <__gedf2+0x3c>
    3328:	04081f63          	bnez	a6,3386 <__gedf2+0xae>
    332c:	00f8e7b3          	or	a5,a7,a5
    3330:	0017b793          	seqz	a5,a5
    3334:	e199                	bnez	a1,333a <__gedf2+0x62>
    3336:	8e59                	or	a2,a2,a4
    3338:	c221                	beqz	a2,3378 <__gedf2+0xa0>
    333a:	00079a63          	bnez	a5,334e <__gedf2+0x76>
    333e:	00d51463          	bne	a0,a3,3346 <__gedf2+0x6e>
    3342:	0105da63          	bge	a1,a6,3356 <__gedf2+0x7e>
    3346:	02050763          	beqz	a0,3374 <__gedf2+0x9c>
    334a:	557d                	li	a0,-1
    334c:	8082                	ret
    334e:	557d                	li	a0,-1
    3350:	c699                	beqz	a3,335e <__gedf2+0x86>
    3352:	8536                	mv	a0,a3
    3354:	8082                	ret
    3356:	00b85563          	bge	a6,a1,3360 <__gedf2+0x88>
    335a:	fe0508e3          	beqz	a0,334a <__gedf2+0x72>
    335e:	8082                	ret
    3360:	ff1763e3          	bltu	a4,a7,3346 <__gedf2+0x6e>
    3364:	00e89c63          	bne	a7,a4,337c <__gedf2+0xa4>
    3368:	fc6e6fe3          	bltu	t3,t1,3346 <__gedf2+0x6e>
    336c:	ffc367e3          	bltu	t1,t3,335a <__gedf2+0x82>
    3370:	4501                	li	a0,0
    3372:	8082                	ret
    3374:	4505                	li	a0,1
    3376:	8082                	ret
    3378:	ffe5                	bnez	a5,3370 <__gedf2+0x98>
    337a:	b7f1                	j	3346 <__gedf2+0x6e>
    337c:	fce8efe3          	bltu	a7,a4,335a <__gedf2+0x82>
    3380:	bfc5                	j	3370 <__gedf2+0x98>
    3382:	f9058fe3          	beq	a1,a6,3320 <__gedf2+0x48>
    3386:	fa059ce3          	bnez	a1,333e <__gedf2+0x66>
    338a:	4781                	li	a5,0
    338c:	b76d                	j	3336 <__gedf2+0x5e>

0000338e <__ledf2>:
    338e:	87aa                	mv	a5,a0
    3390:	00202773          	frrm	a4
    3394:	00100737          	lui	a4,0x100
    3398:	177d                	addi	a4,a4,-1
    339a:	0145d813          	srli	a6,a1,0x14
    339e:	00b778b3          	and	a7,a4,a1
    33a2:	832a                	mv	t1,a0
    33a4:	7ff87813          	andi	a6,a6,2047
    33a8:	01f5d513          	srli	a0,a1,0x1f
    33ac:	7ff00e93          	li	t4,2047
    33b0:	0146d593          	srli	a1,a3,0x14
    33b4:	8f75                	and	a4,a4,a3
    33b6:	8e32                	mv	t3,a2
    33b8:	7ff5f593          	andi	a1,a1,2047
    33bc:	82fd                	srli	a3,a3,0x1f
    33be:	01d81a63          	bne	a6,t4,33d2 <__ledf2+0x44>
    33c2:	00f8eeb3          	or	t4,a7,a5
    33c6:	060e8963          	beqz	t4,3438 <__ledf2+0xaa>
    33ca:	00186073          	csrsi	fflags,16
    33ce:	4509                	li	a0,2
    33d0:	8082                	ret
    33d2:	01d59663          	bne	a1,t4,33de <__ledf2+0x50>
    33d6:	00c76eb3          	or	t4,a4,a2
    33da:	fe0e98e3          	bnez	t4,33ca <__ledf2+0x3c>
    33de:	04081f63          	bnez	a6,343c <__ledf2+0xae>
    33e2:	00f8e7b3          	or	a5,a7,a5
    33e6:	0017b793          	seqz	a5,a5
    33ea:	e199                	bnez	a1,33f0 <__ledf2+0x62>
    33ec:	8e59                	or	a2,a2,a4
    33ee:	c221                	beqz	a2,342e <__ledf2+0xa0>
    33f0:	00079a63          	bnez	a5,3404 <__ledf2+0x76>
    33f4:	00d51463          	bne	a0,a3,33fc <__ledf2+0x6e>
    33f8:	0105da63          	bge	a1,a6,340c <__ledf2+0x7e>
    33fc:	02050763          	beqz	a0,342a <__ledf2+0x9c>
    3400:	557d                	li	a0,-1
    3402:	8082                	ret
    3404:	557d                	li	a0,-1
    3406:	c699                	beqz	a3,3414 <__ledf2+0x86>
    3408:	8536                	mv	a0,a3
    340a:	8082                	ret
    340c:	00b85563          	bge	a6,a1,3416 <__ledf2+0x88>
    3410:	fe0508e3          	beqz	a0,3400 <__ledf2+0x72>
    3414:	8082                	ret
    3416:	ff1763e3          	bltu	a4,a7,33fc <__ledf2+0x6e>
    341a:	00e89c63          	bne	a7,a4,3432 <__ledf2+0xa4>
    341e:	fc6e6fe3          	bltu	t3,t1,33fc <__ledf2+0x6e>
    3422:	ffc367e3          	bltu	t1,t3,3410 <__ledf2+0x82>
    3426:	4501                	li	a0,0
    3428:	8082                	ret
    342a:	4505                	li	a0,1
    342c:	8082                	ret
    342e:	ffe5                	bnez	a5,3426 <__ledf2+0x98>
    3430:	b7f1                	j	33fc <__ledf2+0x6e>
    3432:	fce8efe3          	bltu	a7,a4,3410 <__ledf2+0x82>
    3436:	bfc5                	j	3426 <__ledf2+0x98>
    3438:	f9058fe3          	beq	a1,a6,33d6 <__ledf2+0x48>
    343c:	fa059ce3          	bnez	a1,33f4 <__ledf2+0x66>
    3440:	4781                	li	a5,0
    3442:	b76d                	j	33ec <__ledf2+0x5e>

00003444 <__muldf3>:
    3444:	7179                	addi	sp,sp,-48
    3446:	d422                	sw	s0,40(sp)
    3448:	ca56                	sw	s5,20(sp)
    344a:	c266                	sw	s9,4(sp)
    344c:	d606                	sw	ra,44(sp)
    344e:	d226                	sw	s1,36(sp)
    3450:	d04a                	sw	s2,32(sp)
    3452:	ce4e                	sw	s3,28(sp)
    3454:	cc52                	sw	s4,24(sp)
    3456:	c85a                	sw	s6,16(sp)
    3458:	c65e                	sw	s7,12(sp)
    345a:	c462                	sw	s8,8(sp)
    345c:	842a                	mv	s0,a0
    345e:	8cb2                	mv	s9,a2
    3460:	8ab6                	mv	s5,a3
    3462:	00202973          	frrm	s2
    3466:	0145db93          	srli	s7,a1,0x14
    346a:	00c59993          	slli	s3,a1,0xc
    346e:	7ffbfb93          	andi	s7,s7,2047
    3472:	00c9d993          	srli	s3,s3,0xc
    3476:	01f5db13          	srli	s6,a1,0x1f
    347a:	020b8663          	beqz	s7,34a6 <__muldf3+0x62>
    347e:	7ff00793          	li	a5,2047
    3482:	06fb8b63          	beq	s7,a5,34f8 <__muldf3+0xb4>
    3486:	01d55793          	srli	a5,a0,0x1d
    348a:	098e                	slli	s3,s3,0x3
    348c:	0137e9b3          	or	s3,a5,s3
    3490:	008007b7          	lui	a5,0x800
    3494:	00f9e9b3          	or	s3,s3,a5
    3498:	00351a13          	slli	s4,a0,0x3
    349c:	c01b8b93          	addi	s7,s7,-1023
    34a0:	4c01                	li	s8,0
    34a2:	4481                	li	s1,0
    34a4:	a0bd                	j	3512 <__muldf3+0xce>
    34a6:	00a9e7b3          	or	a5,s3,a0
    34aa:	c7e1                	beqz	a5,3572 <__muldf3+0x12e>
    34ac:	02098b63          	beqz	s3,34e2 <__muldf3+0x9e>
    34b0:	854e                	mv	a0,s3
    34b2:	010010ef          	jal	ra,44c2 <__clzsi2>
    34b6:	ff550713          	addi	a4,a0,-11 # 7fff5 <__erodata+0x7b605>
    34ba:	47f1                	li	a5,28
    34bc:	02e7c863          	blt	a5,a4,34ec <__muldf3+0xa8>
    34c0:	47f5                	li	a5,29
    34c2:	ff850a13          	addi	s4,a0,-8
    34c6:	8f99                	sub	a5,a5,a4
    34c8:	014999b3          	sll	s3,s3,s4
    34cc:	00f457b3          	srl	a5,s0,a5
    34d0:	0137e9b3          	or	s3,a5,s3
    34d4:	01441a33          	sll	s4,s0,s4
    34d8:	c0d00b93          	li	s7,-1011
    34dc:	40ab8bb3          	sub	s7,s7,a0
    34e0:	b7c1                	j	34a0 <__muldf3+0x5c>
    34e2:	7e1000ef          	jal	ra,44c2 <__clzsi2>
    34e6:	02050513          	addi	a0,a0,32
    34ea:	b7f1                	j	34b6 <__muldf3+0x72>
    34ec:	fd850993          	addi	s3,a0,-40
    34f0:	013419b3          	sll	s3,s0,s3
    34f4:	4a01                	li	s4,0
    34f6:	b7cd                	j	34d8 <__muldf3+0x94>
    34f8:	00a9e433          	or	s0,s3,a0
    34fc:	c041                	beqz	s0,357c <__muldf3+0x138>
    34fe:	000807b7          	lui	a5,0x80
    3502:	00f9f7b3          	and	a5,s3,a5
    3506:	8a2a                	mv	s4,a0
    3508:	7ff00b93          	li	s7,2047
    350c:	4c0d                	li	s8,3
    350e:	44c1                	li	s1,16
    3510:	fbc9                	bnez	a5,34a2 <__muldf3+0x5e>
    3512:	014ad513          	srli	a0,s5,0x14
    3516:	00ca9413          	slli	s0,s5,0xc
    351a:	7ff57513          	andi	a0,a0,2047
    351e:	87e6                	mv	a5,s9
    3520:	8031                	srli	s0,s0,0xc
    3522:	01fada93          	srli	s5,s5,0x1f
    3526:	c12d                	beqz	a0,3588 <__muldf3+0x144>
    3528:	7ff00713          	li	a4,2047
    352c:	0ae50763          	beq	a0,a4,35da <__muldf3+0x196>
    3530:	01dcd793          	srli	a5,s9,0x1d
    3534:	040e                	slli	s0,s0,0x3
    3536:	8c5d                	or	s0,s0,a5
    3538:	008007b7          	lui	a5,0x800
    353c:	8c5d                	or	s0,s0,a5
    353e:	c0150513          	addi	a0,a0,-1023
    3542:	003c9793          	slli	a5,s9,0x3
    3546:	4701                	li	a4,0
    3548:	002c1693          	slli	a3,s8,0x2
    354c:	8ed9                	or	a3,a3,a4
    354e:	9baa                	add	s7,s7,a0
    3550:	16fd                	addi	a3,a3,-1
    3552:	4639                	li	a2,14
    3554:	015b45b3          	xor	a1,s6,s5
    3558:	001b8513          	addi	a0,s7,1
    355c:	0ed66b63          	bltu	a2,a3,3652 <__muldf3+0x20e>
    3560:	00001617          	auipc	a2,0x1
    3564:	35460613          	addi	a2,a2,852 # 48b4 <pow10.0+0x8c>
    3568:	068a                	slli	a3,a3,0x2
    356a:	96b2                	add	a3,a3,a2
    356c:	4294                	lw	a3,0(a3)
    356e:	96b2                	add	a3,a3,a2
    3570:	8682                	jr	a3
    3572:	4981                	li	s3,0
    3574:	4a01                	li	s4,0
    3576:	4b81                	li	s7,0
    3578:	4c05                	li	s8,1
    357a:	b725                	j	34a2 <__muldf3+0x5e>
    357c:	4981                	li	s3,0
    357e:	4a01                	li	s4,0
    3580:	7ff00b93          	li	s7,2047
    3584:	4c09                	li	s8,2
    3586:	bf31                	j	34a2 <__muldf3+0x5e>
    3588:	019467b3          	or	a5,s0,s9
    358c:	c3bd                	beqz	a5,35f2 <__muldf3+0x1ae>
    358e:	02040a63          	beqz	s0,35c2 <__muldf3+0x17e>
    3592:	8522                	mv	a0,s0
    3594:	72f000ef          	jal	ra,44c2 <__clzsi2>
    3598:	ff550693          	addi	a3,a0,-11
    359c:	47f1                	li	a5,28
    359e:	02d7c863          	blt	a5,a3,35ce <__muldf3+0x18a>
    35a2:	4775                	li	a4,29
    35a4:	ff850793          	addi	a5,a0,-8
    35a8:	8f15                	sub	a4,a4,a3
    35aa:	00f41433          	sll	s0,s0,a5
    35ae:	00ecd733          	srl	a4,s9,a4
    35b2:	8c59                	or	s0,s0,a4
    35b4:	00fc97b3          	sll	a5,s9,a5
    35b8:	c0d00713          	li	a4,-1011
    35bc:	40a70533          	sub	a0,a4,a0
    35c0:	b759                	j	3546 <__muldf3+0x102>
    35c2:	8566                	mv	a0,s9
    35c4:	6ff000ef          	jal	ra,44c2 <__clzsi2>
    35c8:	02050513          	addi	a0,a0,32
    35cc:	b7f1                	j	3598 <__muldf3+0x154>
    35ce:	fd850413          	addi	s0,a0,-40
    35d2:	008c9433          	sll	s0,s9,s0
    35d6:	4781                	li	a5,0
    35d8:	b7c5                	j	35b8 <__muldf3+0x174>
    35da:	01946633          	or	a2,s0,s9
    35de:	ce19                	beqz	a2,35fc <__muldf3+0x1b8>
    35e0:	00080737          	lui	a4,0x80
    35e4:	8f61                	and	a4,a4,s0
    35e6:	7ff00513          	li	a0,2047
    35ea:	ef19                	bnez	a4,3608 <__muldf3+0x1c4>
    35ec:	470d                	li	a4,3
    35ee:	44c1                	li	s1,16
    35f0:	bfa1                	j	3548 <__muldf3+0x104>
    35f2:	4401                	li	s0,0
    35f4:	4781                	li	a5,0
    35f6:	4501                	li	a0,0
    35f8:	4705                	li	a4,1
    35fa:	b7b9                	j	3548 <__muldf3+0x104>
    35fc:	4401                	li	s0,0
    35fe:	4781                	li	a5,0
    3600:	7ff00513          	li	a0,2047
    3604:	4709                	li	a4,2
    3606:	b789                	j	3548 <__muldf3+0x104>
    3608:	470d                	li	a4,3
    360a:	bf3d                	j	3548 <__muldf3+0x104>
    360c:	00080437          	lui	s0,0x80
    3610:	4781                	li	a5,0
    3612:	7ff00713          	li	a4,2047
    3616:	4581                	li	a1,0
    3618:	44c1                	li	s1,16
    361a:	0752                	slli	a4,a4,0x14
    361c:	7ff006b7          	lui	a3,0x7ff00
    3620:	0432                	slli	s0,s0,0xc
    3622:	8f75                	and	a4,a4,a3
    3624:	8031                	srli	s0,s0,0xc
    3626:	05fe                	slli	a1,a1,0x1f
    3628:	8c59                	or	s0,s0,a4
    362a:	00b46733          	or	a4,s0,a1
    362e:	853e                	mv	a0,a5
    3630:	85ba                	mv	a1,a4
    3632:	c099                	beqz	s1,3638 <__muldf3+0x1f4>
    3634:	0014a073          	csrs	fflags,s1
    3638:	50b2                	lw	ra,44(sp)
    363a:	5422                	lw	s0,40(sp)
    363c:	5492                	lw	s1,36(sp)
    363e:	5902                	lw	s2,32(sp)
    3640:	49f2                	lw	s3,28(sp)
    3642:	4a62                	lw	s4,24(sp)
    3644:	4ad2                	lw	s5,20(sp)
    3646:	4b42                	lw	s6,16(sp)
    3648:	4bb2                	lw	s7,12(sp)
    364a:	4c22                	lw	s8,8(sp)
    364c:	4c92                	lw	s9,4(sp)
    364e:	6145                	addi	sp,sp,48
    3650:	8082                	ret
    3652:	6ec1                	lui	t4,0x10
    3654:	fffe8e13          	addi	t3,t4,-1 # ffff <__erodata+0xb60f>
    3658:	010a5713          	srli	a4,s4,0x10
    365c:	0107d893          	srli	a7,a5,0x10
    3660:	01ca7a33          	and	s4,s4,t3
    3664:	01c7f7b3          	and	a5,a5,t3
    3668:	03488833          	mul	a6,a7,s4
    366c:	034786b3          	mul	a3,a5,s4
    3670:	02f70f33          	mul	t5,a4,a5
    3674:	01e80333          	add	t1,a6,t5
    3678:	0106d813          	srli	a6,a3,0x10
    367c:	981a                	add	a6,a6,t1
    367e:	03170633          	mul	a2,a4,a7
    3682:	01e87363          	bgeu	a6,t5,3688 <__muldf3+0x244>
    3686:	9676                	add	a2,a2,t4
    3688:	01085f93          	srli	t6,a6,0x10
    368c:	01c87833          	and	a6,a6,t3
    3690:	01c6f6b3          	and	a3,a3,t3
    3694:	01045e93          	srli	t4,s0,0x10
    3698:	01c47e33          	and	t3,s0,t3
    369c:	0842                	slli	a6,a6,0x10
    369e:	9836                	add	a6,a6,a3
    36a0:	03c70f33          	mul	t5,a4,t3
    36a4:	03ca06b3          	mul	a3,s4,t3
    36a8:	034e8a33          	mul	s4,t4,s4
    36ac:	01ea0333          	add	t1,s4,t5
    36b0:	0106da13          	srli	s4,a3,0x10
    36b4:	9a1a                	add	s4,s4,t1
    36b6:	03d70733          	mul	a4,a4,t4
    36ba:	01ea7463          	bgeu	s4,t5,36c2 <__muldf3+0x27e>
    36be:	6341                	lui	t1,0x10
    36c0:	971a                	add	a4,a4,t1
    36c2:	010a5313          	srli	t1,s4,0x10
    36c6:	933a                	add	t1,t1,a4
    36c8:	6741                	lui	a4,0x10
    36ca:	fff70f13          	addi	t5,a4,-1 # ffff <__erodata+0xb60f>
    36ce:	01ea7a33          	and	s4,s4,t5
    36d2:	01e6f6b3          	and	a3,a3,t5
    36d6:	0109d413          	srli	s0,s3,0x10
    36da:	0a42                	slli	s4,s4,0x10
    36dc:	01e9f9b3          	and	s3,s3,t5
    36e0:	03378f33          	mul	t5,a5,s3
    36e4:	9a36                	add	s4,s4,a3
    36e6:	9fd2                	add	t6,t6,s4
    36e8:	033886b3          	mul	a3,a7,s3
    36ec:	02f407b3          	mul	a5,s0,a5
    36f0:	028882b3          	mul	t0,a7,s0
    36f4:	00f688b3          	add	a7,a3,a5
    36f8:	010f5693          	srli	a3,t5,0x10
    36fc:	96c6                	add	a3,a3,a7
    36fe:	00f6f363          	bgeu	a3,a5,3704 <__muldf3+0x2c0>
    3702:	92ba                	add	t0,t0,a4
    3704:	6741                	lui	a4,0x10
    3706:	fff70793          	addi	a5,a4,-1 # ffff <__erodata+0xb60f>
    370a:	00ff7f33          	and	t5,t5,a5
    370e:	0106d893          	srli	a7,a3,0x10
    3712:	8efd                	and	a3,a3,a5
    3714:	03c987b3          	mul	a5,s3,t3
    3718:	06c2                	slli	a3,a3,0x10
    371a:	96fa                	add	a3,a3,t5
    371c:	9896                	add	a7,a7,t0
    371e:	03c40e33          	mul	t3,s0,t3
    3722:	033e89b3          	mul	s3,t4,s3
    3726:	028e8f33          	mul	t5,t4,s0
    372a:	99f2                	add	s3,s3,t3
    372c:	0107d413          	srli	s0,a5,0x10
    3730:	99a2                	add	s3,s3,s0
    3732:	01c9f363          	bgeu	s3,t3,3738 <__muldf3+0x2f4>
    3736:	9f3a                	add	t5,t5,a4
    3738:	6e41                	lui	t3,0x10
    373a:	1e7d                	addi	t3,t3,-1
    373c:	01c9f733          	and	a4,s3,t3
    3740:	01c7f7b3          	and	a5,a5,t3
    3744:	0742                	slli	a4,a4,0x10
    3746:	967e                	add	a2,a2,t6
    3748:	973e                	add	a4,a4,a5
    374a:	01463a33          	sltu	s4,a2,s4
    374e:	971a                	add	a4,a4,t1
    3750:	01470433          	add	s0,a4,s4
    3754:	9636                	add	a2,a2,a3
    3756:	00d636b3          	sltu	a3,a2,a3
    375a:	01140e33          	add	t3,s0,a7
    375e:	00de0eb3          	add	t4,t3,a3
    3762:	00673733          	sltu	a4,a4,t1
    3766:	01443433          	sltu	s0,s0,s4
    376a:	8c59                	or	s0,s0,a4
    376c:	00deb6b3          	sltu	a3,t4,a3
    3770:	0109d993          	srli	s3,s3,0x10
    3774:	011e38b3          	sltu	a7,t3,a7
    3778:	944e                	add	s0,s0,s3
    377a:	00d8e6b3          	or	a3,a7,a3
    377e:	9436                	add	s0,s0,a3
    3780:	947a                	add	s0,s0,t5
    3782:	017ed793          	srli	a5,t4,0x17
    3786:	0426                	slli	s0,s0,0x9
    3788:	8c5d                	or	s0,s0,a5
    378a:	00961793          	slli	a5,a2,0x9
    378e:	0107e7b3          	or	a5,a5,a6
    3792:	00f037b3          	snez	a5,a5
    3796:	825d                	srli	a2,a2,0x17
    3798:	01000737          	lui	a4,0x1000
    379c:	8fd1                	or	a5,a5,a2
    379e:	0ea6                	slli	t4,t4,0x9
    37a0:	8f61                	and	a4,a4,s0
    37a2:	01d7e7b3          	or	a5,a5,t4
    37a6:	cb25                	beqz	a4,3816 <__muldf3+0x3d2>
    37a8:	0017d713          	srli	a4,a5,0x1
    37ac:	8b85                	andi	a5,a5,1
    37ae:	8fd9                	or	a5,a5,a4
    37b0:	01f41713          	slli	a4,s0,0x1f
    37b4:	8fd9                	or	a5,a5,a4
    37b6:	8005                	srli	s0,s0,0x1
    37b8:	3ff50813          	addi	a6,a0,1023
    37bc:	0d005063          	blez	a6,387c <__muldf3+0x438>
    37c0:	0077f713          	andi	a4,a5,7
    37c4:	c325                	beqz	a4,3824 <__muldf3+0x3e0>
    37c6:	4709                	li	a4,2
    37c8:	0014e493          	ori	s1,s1,1
    37cc:	04e90b63          	beq	s2,a4,3822 <__muldf3+0x3de>
    37d0:	470d                	li	a4,3
    37d2:	04e90463          	beq	s2,a4,381a <__muldf3+0x3d6>
    37d6:	04091763          	bnez	s2,3824 <__muldf3+0x3e0>
    37da:	00f7f713          	andi	a4,a5,15
    37de:	4691                	li	a3,4
    37e0:	04d70263          	beq	a4,a3,3824 <__muldf3+0x3e0>
    37e4:	00478713          	addi	a4,a5,4 # 800004 <__erodata+0x7fb614>
    37e8:	00f737b3          	sltu	a5,a4,a5
    37ec:	943e                	add	s0,s0,a5
    37ee:	87ba                	mv	a5,a4
    37f0:	a815                	j	3824 <__muldf3+0x3e0>
    37f2:	85da                	mv	a1,s6
    37f4:	844e                	mv	s0,s3
    37f6:	87d2                	mv	a5,s4
    37f8:	8762                	mv	a4,s8
    37fa:	4689                	li	a3,2
    37fc:	1cd70763          	beq	a4,a3,39ca <__muldf3+0x586>
    3800:	468d                	li	a3,3
    3802:	1cd70963          	beq	a4,a3,39d4 <__muldf3+0x590>
    3806:	4685                	li	a3,1
    3808:	fad718e3          	bne	a4,a3,37b8 <__muldf3+0x374>
    380c:	4401                	li	s0,0
    380e:	4781                	li	a5,0
    3810:	a265                	j	39b8 <__muldf3+0x574>
    3812:	85d6                	mv	a1,s5
    3814:	b7dd                	j	37fa <__muldf3+0x3b6>
    3816:	855e                	mv	a0,s7
    3818:	b745                	j	37b8 <__muldf3+0x374>
    381a:	e589                	bnez	a1,3824 <__muldf3+0x3e0>
    381c:	00878713          	addi	a4,a5,8
    3820:	b7e1                	j	37e8 <__muldf3+0x3a4>
    3822:	fded                	bnez	a1,381c <__muldf3+0x3d8>
    3824:	01000737          	lui	a4,0x1000
    3828:	8f61                	and	a4,a4,s0
    382a:	c719                	beqz	a4,3838 <__muldf3+0x3f4>
    382c:	ff000737          	lui	a4,0xff000
    3830:	177d                	addi	a4,a4,-1
    3832:	8c79                	and	s0,s0,a4
    3834:	40050813          	addi	a6,a0,1024
    3838:	7fe00713          	li	a4,2046
    383c:	01074a63          	blt	a4,a6,3850 <__muldf3+0x40c>
    3840:	0037d713          	srli	a4,a5,0x3
    3844:	01d41793          	slli	a5,s0,0x1d
    3848:	8fd9                	or	a5,a5,a4
    384a:	800d                	srli	s0,s0,0x3
    384c:	8742                	mv	a4,a6
    384e:	b3f1                	j	361a <__muldf3+0x1d6>
    3850:	4789                	li	a5,2
    3852:	02f90363          	beq	s2,a5,3878 <__muldf3+0x434>
    3856:	478d                	li	a5,3
    3858:	00f90863          	beq	s2,a5,3868 <__muldf3+0x424>
    385c:	00091763          	bnez	s2,386a <__muldf3+0x426>
    3860:	4781                	li	a5,0
    3862:	7ff00713          	li	a4,2047
    3866:	a029                	j	3870 <__muldf3+0x42c>
    3868:	dde5                	beqz	a1,3860 <__muldf3+0x41c>
    386a:	57fd                	li	a5,-1
    386c:	7fe00713          	li	a4,2046
    3870:	0054e493          	ori	s1,s1,5
    3874:	843e                	mv	s0,a5
    3876:	b355                	j	361a <__muldf3+0x1d6>
    3878:	f5e5                	bnez	a1,3860 <__muldf3+0x41c>
    387a:	bfc5                	j	386a <__muldf3+0x426>
    387c:	4705                	li	a4,1
    387e:	04081463          	bnez	a6,38c6 <__muldf3+0x482>
    3882:	0077f693          	andi	a3,a5,7
    3886:	8722                	mv	a4,s0
    3888:	ca9d                	beqz	a3,38be <__muldf3+0x47a>
    388a:	4689                	li	a3,2
    388c:	0014e493          	ori	s1,s1,1
    3890:	02d90663          	beq	s2,a3,38bc <__muldf3+0x478>
    3894:	468d                	li	a3,3
    3896:	00d90f63          	beq	s2,a3,38b4 <__muldf3+0x470>
    389a:	02091263          	bnez	s2,38be <__muldf3+0x47a>
    389e:	00f7f693          	andi	a3,a5,15
    38a2:	4611                	li	a2,4
    38a4:	00c68d63          	beq	a3,a2,38be <__muldf3+0x47a>
    38a8:	ffc7b713          	sltiu	a4,a5,-4
    38ac:	00174713          	xori	a4,a4,1
    38b0:	9722                	add	a4,a4,s0
    38b2:	a031                	j	38be <__muldf3+0x47a>
    38b4:	e589                	bnez	a1,38be <__muldf3+0x47a>
    38b6:	ff87b713          	sltiu	a4,a5,-8
    38ba:	bfcd                	j	38ac <__muldf3+0x468>
    38bc:	fded                	bnez	a1,38b6 <__muldf3+0x472>
    38be:	8361                	srli	a4,a4,0x18
    38c0:	00174713          	xori	a4,a4,1
    38c4:	8b05                	andi	a4,a4,1
    38c6:	4685                	li	a3,1
    38c8:	410686b3          	sub	a3,a3,a6
    38cc:	03800613          	li	a2,56
    38d0:	0cd64263          	blt	a2,a3,3994 <__muldf3+0x550>
    38d4:	467d                	li	a2,31
    38d6:	04d64a63          	blt	a2,a3,392a <__muldf3+0x4e6>
    38da:	41e50513          	addi	a0,a0,1054
    38de:	00a41633          	sll	a2,s0,a0
    38e2:	00d7d833          	srl	a6,a5,a3
    38e6:	00a797b3          	sll	a5,a5,a0
    38ea:	01066633          	or	a2,a2,a6
    38ee:	00f037b3          	snez	a5,a5
    38f2:	8fd1                	or	a5,a5,a2
    38f4:	00d45433          	srl	s0,s0,a3
    38f8:	0077f693          	andi	a3,a5,7
    38fc:	c2ad                	beqz	a3,395e <__muldf3+0x51a>
    38fe:	4689                	li	a3,2
    3900:	0014e493          	ori	s1,s1,1
    3904:	04d90c63          	beq	s2,a3,395c <__muldf3+0x518>
    3908:	468d                	li	a3,3
    390a:	04d90563          	beq	s2,a3,3954 <__muldf3+0x510>
    390e:	04091863          	bnez	s2,395e <__muldf3+0x51a>
    3912:	00f7f693          	andi	a3,a5,15
    3916:	4611                	li	a2,4
    3918:	04c68363          	beq	a3,a2,395e <__muldf3+0x51a>
    391c:	00478693          	addi	a3,a5,4
    3920:	00f6b7b3          	sltu	a5,a3,a5
    3924:	943e                	add	s0,s0,a5
    3926:	87b6                	mv	a5,a3
    3928:	a81d                	j	395e <__muldf3+0x51a>
    392a:	5605                	li	a2,-31
    392c:	41060633          	sub	a2,a2,a6
    3930:	02000893          	li	a7,32
    3934:	00c45633          	srl	a2,s0,a2
    3938:	4801                	li	a6,0
    393a:	01168663          	beq	a3,a7,3946 <__muldf3+0x502>
    393e:	43e50513          	addi	a0,a0,1086
    3942:	00a41833          	sll	a6,s0,a0
    3946:	00f867b3          	or	a5,a6,a5
    394a:	00f037b3          	snez	a5,a5
    394e:	8fd1                	or	a5,a5,a2
    3950:	4401                	li	s0,0
    3952:	b75d                	j	38f8 <__muldf3+0x4b4>
    3954:	e589                	bnez	a1,395e <__muldf3+0x51a>
    3956:	00878693          	addi	a3,a5,8
    395a:	b7d9                	j	3920 <__muldf3+0x4dc>
    395c:	fded                	bnez	a1,3956 <__muldf3+0x512>
    395e:	008006b7          	lui	a3,0x800
    3962:	8ee1                	and	a3,a3,s0
    3964:	ca81                	beqz	a3,3974 <__muldf3+0x530>
    3966:	0014e493          	ori	s1,s1,1
    396a:	4401                	li	s0,0
    396c:	4781                	li	a5,0
    396e:	e305                	bnez	a4,398e <__muldf3+0x54a>
    3970:	4705                	li	a4,1
    3972:	b165                	j	361a <__muldf3+0x1d6>
    3974:	0037d693          	srli	a3,a5,0x3
    3978:	01d41793          	slli	a5,s0,0x1d
    397c:	8fd5                	or	a5,a5,a3
    397e:	800d                	srli	s0,s0,0x3
    3980:	c8070de3          	beqz	a4,361a <__muldf3+0x1d6>
    3984:	0014f713          	andi	a4,s1,1
    3988:	c80709e3          	beqz	a4,361a <__muldf3+0x1d6>
    398c:	4701                	li	a4,0
    398e:	0024e493          	ori	s1,s1,2
    3992:	b161                	j	361a <__muldf3+0x1d6>
    3994:	8fc1                	or	a5,a5,s0
    3996:	cf91                	beqz	a5,39b2 <__muldf3+0x56e>
    3998:	4789                	li	a5,2
    399a:	0014e493          	ori	s1,s1,1
    399e:	02f90363          	beq	s2,a5,39c4 <__muldf3+0x580>
    39a2:	478d                	li	a5,3
    39a4:	00f90c63          	beq	s2,a5,39bc <__muldf3+0x578>
    39a8:	4785                	li	a5,1
    39aa:	00091363          	bnez	s2,39b0 <__muldf3+0x56c>
    39ae:	4795                	li	a5,5
    39b0:	838d                	srli	a5,a5,0x3
    39b2:	0024e493          	ori	s1,s1,2
    39b6:	4401                	li	s0,0
    39b8:	4701                	li	a4,0
    39ba:	b185                	j	361a <__muldf3+0x1d6>
    39bc:	47a5                	li	a5,9
    39be:	d9ed                	beqz	a1,39b0 <__muldf3+0x56c>
    39c0:	4785                	li	a5,1
    39c2:	b7fd                	j	39b0 <__muldf3+0x56c>
    39c4:	47a5                	li	a5,9
    39c6:	f5ed                	bnez	a1,39b0 <__muldf3+0x56c>
    39c8:	bfe5                	j	39c0 <__muldf3+0x57c>
    39ca:	4401                	li	s0,0
    39cc:	4781                	li	a5,0
    39ce:	7ff00713          	li	a4,2047
    39d2:	b1a1                	j	361a <__muldf3+0x1d6>
    39d4:	00080437          	lui	s0,0x80
    39d8:	4781                	li	a5,0
    39da:	7ff00713          	li	a4,2047
    39de:	4581                	li	a1,0
    39e0:	b92d                	j	361a <__muldf3+0x1d6>

000039e2 <__subdf3>:
    39e2:	1101                	addi	sp,sp,-32
    39e4:	ce06                	sw	ra,28(sp)
    39e6:	cc22                	sw	s0,24(sp)
    39e8:	ca26                	sw	s1,20(sp)
    39ea:	c84a                	sw	s2,16(sp)
    39ec:	c64e                	sw	s3,12(sp)
    39ee:	c452                	sw	s4,8(sp)
    39f0:	002029f3          	frrm	s3
    39f4:	001008b7          	lui	a7,0x100
    39f8:	18fd                	addi	a7,a7,-1
    39fa:	00b8f733          	and	a4,a7,a1
    39fe:	0145d413          	srli	s0,a1,0x14
    3a02:	00d8f8b3          	and	a7,a7,a3
    3a06:	01f5d493          	srli	s1,a1,0x1f
    3a0a:	0146d593          	srli	a1,a3,0x14
    3a0e:	00371793          	slli	a5,a4,0x3
    3a12:	01f6d313          	srli	t1,a3,0x1f
    3a16:	01d55713          	srli	a4,a0,0x1d
    3a1a:	01d65693          	srli	a3,a2,0x1d
    3a1e:	088e                	slli	a7,a7,0x3
    3a20:	00361813          	slli	a6,a2,0x3
    3a24:	7ff5f593          	andi	a1,a1,2047
    3a28:	7ff00613          	li	a2,2047
    3a2c:	8f5d                	or	a4,a4,a5
    3a2e:	7ff47413          	andi	s0,s0,2047
    3a32:	00351793          	slli	a5,a0,0x3
    3a36:	0116e6b3          	or	a3,a3,a7
    3a3a:	00c59563          	bne	a1,a2,3a44 <__subdf3+0x62>
    3a3e:	0106e633          	or	a2,a3,a6
    3a42:	e219                	bnez	a2,3a48 <__subdf3+0x66>
    3a44:	00134313          	xori	t1,t1,1
    3a48:	40b40633          	sub	a2,s0,a1
    3a4c:	3c931c63          	bne	t1,s1,3e24 <__subdf3+0x442>
    3a50:	12c05163          	blez	a2,3b72 <__subdf3+0x190>
    3a54:	04059a63          	bnez	a1,3aa8 <__subdf3+0xc6>
    3a58:	0106e533          	or	a0,a3,a6
    3a5c:	e10d                	bnez	a0,3a7e <__subdf3+0x9c>
    3a5e:	7ff00693          	li	a3,2047
    3a62:	4401                	li	s0,0
    3a64:	24d61363          	bne	a2,a3,3caa <__subdf3+0x2c8>
    3a68:	00f766b3          	or	a3,a4,a5
    3a6c:	7a068763          	beqz	a3,421a <__subdf3+0x838>
    3a70:	00400437          	lui	s0,0x400
    3a74:	8c79                	and	s0,s0,a4
    3a76:	00143413          	seqz	s0,s0
    3a7a:	0412                	slli	s0,s0,0x4
    3a7c:	a43d                	j	3caa <__subdf3+0x2c8>
    3a7e:	fff60513          	addi	a0,a2,-1
    3a82:	e901                	bnez	a0,3a92 <__subdf3+0xb0>
    3a84:	983e                	add	a6,a6,a5
    3a86:	96ba                	add	a3,a3,a4
    3a88:	00f837b3          	sltu	a5,a6,a5
    3a8c:	96be                	add	a3,a3,a5
    3a8e:	4605                	li	a2,1
    3a90:	a041                	j	3b10 <__subdf3+0x12e>
    3a92:	7ff00893          	li	a7,2047
    3a96:	03161f63          	bne	a2,a7,3ad4 <__subdf3+0xf2>
    3a9a:	00f766b3          	or	a3,a4,a5
    3a9e:	fae9                	bnez	a3,3a70 <__subdf3+0x8e>
    3aa0:	4701                	li	a4,0
    3aa2:	4781                	li	a5,0
    3aa4:	4401                	li	s0,0
    3aa6:	ac9d                	j	3d1c <__subdf3+0x33a>
    3aa8:	7ff00593          	li	a1,2047
    3aac:	02b41063          	bne	s0,a1,3acc <__subdf3+0xea>
    3ab0:	00f766b3          	or	a3,a4,a5
    3ab4:	76068663          	beqz	a3,4220 <__subdf3+0x83e>
    3ab8:	004006b7          	lui	a3,0x400
    3abc:	8ef9                	and	a3,a3,a4
    3abe:	7ff00613          	li	a2,2047
    3ac2:	4581                	li	a1,0
    3ac4:	2e069263          	bnez	a3,3da8 <__subdf3+0x3c6>
    3ac8:	4441                	li	s0,16
    3aca:	a2c5                	j	3caa <__subdf3+0x2c8>
    3acc:	008005b7          	lui	a1,0x800
    3ad0:	8ecd                	or	a3,a3,a1
    3ad2:	8532                	mv	a0,a2
    3ad4:	03800613          	li	a2,56
    3ad8:	08a64863          	blt	a2,a0,3b68 <__subdf3+0x186>
    3adc:	467d                	li	a2,31
    3ade:	04a64f63          	blt	a2,a0,3b3c <__subdf3+0x15a>
    3ae2:	02000613          	li	a2,32
    3ae6:	8e09                	sub	a2,a2,a0
    3ae8:	00c695b3          	sll	a1,a3,a2
    3aec:	00a858b3          	srl	a7,a6,a0
    3af0:	00c81833          	sll	a6,a6,a2
    3af4:	0115e5b3          	or	a1,a1,a7
    3af8:	01003833          	snez	a6,a6
    3afc:	0105e833          	or	a6,a1,a6
    3b00:	00a6d6b3          	srl	a3,a3,a0
    3b04:	983e                	add	a6,a6,a5
    3b06:	96ba                	add	a3,a3,a4
    3b08:	00f837b3          	sltu	a5,a6,a5
    3b0c:	96be                	add	a3,a3,a5
    3b0e:	8622                	mv	a2,s0
    3b10:	008007b7          	lui	a5,0x800
    3b14:	8ff5                	and	a5,a5,a3
    3b16:	cbad                	beqz	a5,3b88 <__subdf3+0x1a6>
    3b18:	0605                	addi	a2,a2,1
    3b1a:	7ff00793          	li	a5,2047
    3b1e:	2ef60263          	beq	a2,a5,3e02 <__subdf3+0x420>
    3b22:	ff800737          	lui	a4,0xff800
    3b26:	177d                	addi	a4,a4,-1
    3b28:	00185793          	srli	a5,a6,0x1
    3b2c:	8f75                	and	a4,a4,a3
    3b2e:	00187813          	andi	a6,a6,1
    3b32:	0107e833          	or	a6,a5,a6
    3b36:	01f71793          	slli	a5,a4,0x1f
    3b3a:	a49d                	j	3da0 <__subdf3+0x3be>
    3b3c:	fe050593          	addi	a1,a0,-32
    3b40:	02000893          	li	a7,32
    3b44:	00b6d5b3          	srl	a1,a3,a1
    3b48:	4601                	li	a2,0
    3b4a:	01150763          	beq	a0,a7,3b58 <__subdf3+0x176>
    3b4e:	04000613          	li	a2,64
    3b52:	8e09                	sub	a2,a2,a0
    3b54:	00c69633          	sll	a2,a3,a2
    3b58:	01066833          	or	a6,a2,a6
    3b5c:	01003833          	snez	a6,a6
    3b60:	0105e833          	or	a6,a1,a6
    3b64:	4681                	li	a3,0
    3b66:	bf79                	j	3b04 <__subdf3+0x122>
    3b68:	0106e833          	or	a6,a3,a6
    3b6c:	01003833          	snez	a6,a6
    3b70:	bfd5                	j	3b64 <__subdf3+0x182>
    3b72:	ce65                	beqz	a2,3c6a <__subdf3+0x288>
    3b74:	40858633          	sub	a2,a1,s0
    3b78:	e829                	bnez	s0,3bca <__subdf3+0x1e8>
    3b7a:	00f76533          	or	a0,a4,a5
    3b7e:	e911                	bnez	a0,3b92 <__subdf3+0x1b0>
    3b80:	7ff00793          	li	a5,2047
    3b84:	02f60663          	beq	a2,a5,3bb0 <__subdf3+0x1ce>
    3b88:	8736                	mv	a4,a3
    3b8a:	87c2                	mv	a5,a6
    3b8c:	48060563          	beqz	a2,4016 <__subdf3+0x634>
    3b90:	ac19                	j	3da6 <__subdf3+0x3c4>
    3b92:	fff60893          	addi	a7,a2,-1
    3b96:	00089963          	bnez	a7,3ba8 <__subdf3+0x1c6>
    3b9a:	97c2                	add	a5,a5,a6
    3b9c:	0107b833          	sltu	a6,a5,a6
    3ba0:	96ba                	add	a3,a3,a4
    3ba2:	96c2                	add	a3,a3,a6
    3ba4:	883e                	mv	a6,a5
    3ba6:	b5e5                	j	3a8e <__subdf3+0xac>
    3ba8:	7ff00513          	li	a0,2047
    3bac:	04a61663          	bne	a2,a0,3bf8 <__subdf3+0x216>
    3bb0:	0106e7b3          	or	a5,a3,a6
    3bb4:	4701                	li	a4,0
    3bb6:	16078363          	beqz	a5,3d1c <__subdf3+0x33a>
    3bba:	004007b7          	lui	a5,0x400
    3bbe:	8ff5                	and	a5,a5,a3
    3bc0:	8736                	mv	a4,a3
    3bc2:	66079263          	bnez	a5,4226 <__subdf3+0x844>
    3bc6:	87c2                	mv	a5,a6
    3bc8:	a015                	j	3bec <__subdf3+0x20a>
    3bca:	7ff00513          	li	a0,2047
    3bce:	02a59163          	bne	a1,a0,3bf0 <__subdf3+0x20e>
    3bd2:	0106e7b3          	or	a5,a3,a6
    3bd6:	62078463          	beqz	a5,41fe <__subdf3+0x81c>
    3bda:	004007b7          	lui	a5,0x400
    3bde:	8ff5                	and	a5,a5,a3
    3be0:	8736                	mv	a4,a3
    3be2:	62079263          	bnez	a5,4206 <__subdf3+0x824>
    3be6:	87c2                	mv	a5,a6
    3be8:	7ff00613          	li	a2,2047
    3bec:	4581                	li	a1,0
    3bee:	bde9                	j	3ac8 <__subdf3+0xe6>
    3bf0:	00800537          	lui	a0,0x800
    3bf4:	8f49                	or	a4,a4,a0
    3bf6:	88b2                	mv	a7,a2
    3bf8:	03800613          	li	a2,56
    3bfc:	07164363          	blt	a2,a7,3c62 <__subdf3+0x280>
    3c00:	467d                	li	a2,31
    3c02:	03164b63          	blt	a2,a7,3c38 <__subdf3+0x256>
    3c06:	02000513          	li	a0,32
    3c0a:	41150533          	sub	a0,a0,a7
    3c0e:	00a71633          	sll	a2,a4,a0
    3c12:	0117d333          	srl	t1,a5,a7
    3c16:	00a797b3          	sll	a5,a5,a0
    3c1a:	00666633          	or	a2,a2,t1
    3c1e:	00f037b3          	snez	a5,a5
    3c22:	8fd1                	or	a5,a5,a2
    3c24:	01175733          	srl	a4,a4,a7
    3c28:	97c2                	add	a5,a5,a6
    3c2a:	9736                	add	a4,a4,a3
    3c2c:	0107b6b3          	sltu	a3,a5,a6
    3c30:	96ba                	add	a3,a3,a4
    3c32:	883e                	mv	a6,a5
    3c34:	862e                	mv	a2,a1
    3c36:	bde9                	j	3b10 <__subdf3+0x12e>
    3c38:	fe088613          	addi	a2,a7,-32 # fffe0 <__erodata+0xfb5f0>
    3c3c:	02000313          	li	t1,32
    3c40:	00c75633          	srl	a2,a4,a2
    3c44:	4501                	li	a0,0
    3c46:	00688863          	beq	a7,t1,3c56 <__subdf3+0x274>
    3c4a:	04000513          	li	a0,64
    3c4e:	41150533          	sub	a0,a0,a7
    3c52:	00a71533          	sll	a0,a4,a0
    3c56:	8fc9                	or	a5,a5,a0
    3c58:	00f037b3          	snez	a5,a5
    3c5c:	8fd1                	or	a5,a5,a2
    3c5e:	4701                	li	a4,0
    3c60:	b7e1                	j	3c28 <__subdf3+0x246>
    3c62:	8fd9                	or	a5,a5,a4
    3c64:	00f037b3          	snez	a5,a5
    3c68:	bfdd                	j	3c5e <__subdf3+0x27c>
    3c6a:	00140613          	addi	a2,s0,1 # 400001 <__erodata+0x3fb611>
    3c6e:	7fe67513          	andi	a0,a2,2046
    3c72:	10051a63          	bnez	a0,3d86 <__subdf3+0x3a4>
    3c76:	00f76633          	or	a2,a4,a5
    3c7a:	e421                	bnez	s0,3cc2 <__subdf3+0x2e0>
    3c7c:	54060463          	beqz	a2,41c4 <__subdf3+0x7e2>
    3c80:	0106e633          	or	a2,a3,a6
    3c84:	38060963          	beqz	a2,4016 <__subdf3+0x634>
    3c88:	983e                	add	a6,a6,a5
    3c8a:	00f837b3          	sltu	a5,a6,a5
    3c8e:	9736                	add	a4,a4,a3
    3c90:	973e                	add	a4,a4,a5
    3c92:	008007b7          	lui	a5,0x800
    3c96:	8ff9                	and	a5,a5,a4
    3c98:	52078763          	beqz	a5,41c6 <__subdf3+0x7e4>
    3c9c:	ff8007b7          	lui	a5,0xff800
    3ca0:	17fd                	addi	a5,a5,-1
    3ca2:	8f7d                	and	a4,a4,a5
    3ca4:	4581                	li	a1,0
    3ca6:	87c2                	mv	a5,a6
    3ca8:	4605                	li	a2,1
    3caa:	0077f693          	andi	a3,a5,7
    3cae:	12069463          	bnez	a3,3dd6 <__subdf3+0x3f4>
    3cb2:	06058563          	beqz	a1,3d1c <__subdf3+0x33a>
    3cb6:	00147693          	andi	a3,s0,1
    3cba:	c2ad                	beqz	a3,3d1c <__subdf3+0x33a>
    3cbc:	00246413          	ori	s0,s0,2
