Basic_block Name: 0
In Function:      <__start>
Start address:    0
End address:      24
Start instruction: 
	0:	200c0117          	auipc	sp,0x200c0
End instruction: 
	24:	00028e63          	beqz	t0,40 <L_loop0_done>
Length:           10
Taken_Target address:       40
Taken_Target instruction: 
	40:	20001197          	auipc	gp,0x20001
Not_Taken_Target address:   28
Not_Taken_Target instruction: 
	28:	0001a303          	lw	t1,0(gp)
Instruction: 
	0:	200c0117          	auipc	sp,0x200c0
	4:	ff810113          	addi	sp,sp,-8 # 200bfff8 <__kernel_stack>
	8:	00014197          	auipc	gp,0x14
	c:	58818193          	addi	gp,gp,1416 # 14590 <__erodata>
	10:	20000217          	auipc	tp,0x20000
	14:	ff020213          	addi	tp,tp,-16 # 20000000 <__data_start__>
	18:	20001297          	auipc	t0,0x20001
	1c:	89028293          	addi	t0,t0,-1904 # 200008a8 <__malloc_sbrk_base>
	20:	404282b3          	sub	t0,t0,tp
	24:	00028e63          	beqz	t0,40 <L_loop0_done>


Basic_block Name: 1
In Function:      <L_loop0>
Start address:    28
End address:      3c
Start instruction: 
	28:	0001a303          	lw	t1,0(gp)
End instruction: 
	3c:	fe0296e3          	bnez	t0,28 <L_loop0>
Length:           6
Taken_Target address:       28
Taken_Target instruction: 
	28:	0001a303          	lw	t1,0(gp)
Not_Taken_Target address:   40
Not_Taken_Target instruction: 
	40:	20001197          	auipc	gp,0x20001
Instruction: 
	28:	0001a303          	lw	t1,0(gp)
	2c:	00622023          	sw	t1,0(tp) # 0 <__start>
	30:	00418193          	addi	gp,gp,4
	34:	00420213          	addi	tp,tp,4 # 4 <__start+0x4>
	38:	ffc28293          	addi	t0,t0,-4
	3c:	fe0296e3          	bnez	t0,28 <L_loop0>


Basic_block Name: 2
In Function:      <L_loop0_done>
Start address:    40
End address:      58
Start instruction: 
	40:	20001197          	auipc	gp,0x20001
End instruction: 
	58:	00020a63          	beqz	tp,6c <L_loop1_done>
Length:           7
Taken_Target address:       6c
Taken_Target instruction: 
	6c:	00000197          	auipc	gp,0x0
Not_Taken_Target address:   6c
Not_Taken_Target instruction: 
	6c:	00000197          	auipc	gp,0x0
Instruction: 
	40:	20001197          	auipc	gp,0x20001
	44:	86818193          	addi	gp,gp,-1944 # 200008a8 <__malloc_sbrk_base>
	48:	20001217          	auipc	tp,0x20001
	4c:	89420213          	addi	tp,tp,-1900 # 200008dc <__malloc_max_total_mem>
	50:	00000293          	li	t0,0
	54:	40320233          	sub	tp,tp,gp
	58:	00020a63          	beqz	tp,6c <L_loop1_done>


Basic_block Name: 3
In Function:      <L_loop1_done>
Start address:    6c
End address:      f8
Start instruction: 
	6c:	00000197          	auipc	gp,0x0
End instruction: 
	f8:	7c519073          	csrw	mhint,gp
Length:           36
Taken_Target address:       
Taken_Target instruction: 
	
Not_Taken_Target address:   
Not_Taken_Target instruction: 
	
Instruction: 
	6c:	00000197          	auipc	gp,0x0
	70:	0d418193          	addi	gp,gp,212 # 140 <trap_handler>
	74:	30519073          	csrw	mtvec,gp
	78:	00000197          	auipc	gp,0x0
	7c:	14818193          	addi	gp,gp,328 # 1c0 <vector_table>
	80:	04018193          	addi	gp,gp,64
	84:	30719073          	csrw	mtvt,gp
	88:	effff7b7          	lui	a5,0xeffff
	8c:	00020837          	lui	a6,0x20
	90:	0107a023          	sw	a6,0(a5) # effff000 <__kernel_stack+0xcff3f008>
	94:	00c00893          	li	a7,12
	98:	0117a223          	sw	a7,4(a5)
	9c:	00040837          	lui	a6,0x40
	a0:	00c00893          	li	a7,12
	a4:	0107a423          	sw	a6,8(a5)
	a8:	0117a623          	sw	a7,12(a5)
	ac:	00050837          	lui	a6,0x50
	b0:	01000893          	li	a7,16
	b4:	0107a823          	sw	a6,16(a5)
	b8:	0117aa23          	sw	a7,20(a5)
	bc:	400117b7          	lui	a5,0x40011
	c0:	0ff00813          	li	a6,255
	c4:	0107a023          	sw	a6,0(a5) # 40011000 <__kernel_stack+0x1ff51008>
	c8:	00300813          	li	a6,3
	cc:	0107a423          	sw	a6,8(a5)
	d0:	0047a803          	lw	a6,4(a5)
	d4:	08800193          	li	gp,136
	d8:	30019073          	csrw	mstatus,gp
	dc:	000021b7          	lui	gp,0x2
	e0:	3001a073          	csrs	mstatus,gp
	e4:	000011b7          	lui	gp,0x1
	e8:	03f18193          	addi	gp,gp,63 # 103f <_etoa+0x41f>
	ec:	7c119073          	csrw	mhcr,gp
	f0:	000041b7          	lui	gp,0x4
	f4:	00c18193          	addi	gp,gp,12 # 400c <__gedf2+0x18>
	f8:	7c519073          	csrw	mhint,gp


Basic_block Name: 4
In Function:      <__to_main>
Start address:    fc
End address:      fc
Start instruction: 
	fc:	728020ef          	jal	ra,2824 <main>
End instruction: 
	fc:	728020ef          	jal	ra,2824 <main>
Length:           1
Taken_Target address:       2824
Taken_Target instruction: 
	2824:	ffff32b7          	lui	t0,0xffff3
Not_Taken_Target address:   
Not_Taken_Target instruction: 
	
Instruction: 
	fc:	728020ef          	jal	ra,2824 <main>


Basic_block Name: 5
In Function:      <puts>
Start address:    2120
End address:      2134
Start instruction: 
	2120:	ff010113          	addi	sp,sp,-16
End instruction: 
	2134:	00050c63          	beqz	a0,214c <puts+0x2c>
Length:           6
Taken_Target address:       214c
Taken_Target instruction: 
	214c:	fff00593          	li	a1,-1
Not_Taken_Target address:   2138
Not_Taken_Target instruction: 
	2138:	fff00593          	li	a1,-1
Instruction: 
	2120:	ff010113          	addi	sp,sp,-16
	2124:	00812423          	sw	s0,8(sp)
	2128:	00112623          	sw	ra,12(sp)
	212c:	00050413          	mv	s0,a0
	2130:	00054503          	lbu	a0,0(a0)
	2134:	00050c63          	beqz	a0,214c <puts+0x2c>


Basic_block Name: 6
In Function:      <puts>
Start address:    2138
End address:      2140
Start instruction: 
	2138:	fff00593          	li	a1,-1
End instruction: 
	2140:	6d4000ef          	jal	ra,2814 <fputc>
Length:           3
Taken_Target address:       2814
Taken_Target instruction: 
	2814:	0ff57593          	andi	a1,a0,255
Not_Taken_Target address:   
Not_Taken_Target instruction: 
	
Instruction: 
	2138:	fff00593          	li	a1,-1
	213c:	00140413          	addi	s0,s0,1
	2140:	6d4000ef          	jal	ra,2814 <fputc>


Basic_block Name: 7
In Function:      <puts>
Start address:    2144
End address:      2148
Start instruction: 
	2144:	00044503          	lbu	a0,0(s0)
End instruction: 
	2148:	fe0518e3          	bnez	a0,2138 <puts+0x18>
Length:           2
Taken_Target address:       2138
Taken_Target instruction: 
	2138:	fff00593          	li	a1,-1
Not_Taken_Target address:   214c
Not_Taken_Target instruction: 
	214c:	fff00593          	li	a1,-1
Instruction: 
	2144:	00044503          	lbu	a0,0(s0)
	2148:	fe0518e3          	bnez	a0,2138 <puts+0x18>


Basic_block Name: 8
In Function:      <puts>
Start address:    214c
End address:      2154
Start instruction: 
	214c:	fff00593          	li	a1,-1
End instruction: 
	2154:	6c0000ef          	jal	ra,2814 <fputc>
Length:           3
Taken_Target address:       2814
Taken_Target instruction: 
	2814:	0ff57593          	andi	a1,a0,255
Not_Taken_Target address:   
Not_Taken_Target instruction: 
	
Instruction: 
	214c:	fff00593          	li	a1,-1
	2150:	00a00513          	li	a0,10
	2154:	6c0000ef          	jal	ra,2814 <fputc>


Basic_block Name: 9
In Function:      <puts>
Start address:    2158
End address:      2168
Start instruction: 
	2158:	00c12083          	lw	ra,12(sp)
End instruction: 
	2168:	00008067          	ret
Length:           5
Taken_Target address:       ['<main> 2940']
Taken_Target instruction: 
	
Not_Taken_Target address:   
Not_Taken_Target instruction: 
	
Instruction: 
	2158:	00c12083          	lw	ra,12(sp)
	215c:	00812403          	lw	s0,8(sp)
	2160:	00000513          	li	a0,0
	2164:	01010113          	addi	sp,sp,16
	2168:	00008067          	ret


Basic_block Name: 10
In Function:      <ck_uart_set_parity>
Start address:    2398
End address:      23a0
Start instruction: 
	2398:	00b52623          	sw	a1,12(a0)
End instruction: 
	23a0:	04f58a63          	beq	a1,a5,23f4 <ck_uart_set_parity+0x5c>
Length:           3
Taken_Target address:       23f4
Taken_Target instruction: 
	23f4:	00452703          	lw	a4,4(a0)
Not_Taken_Target address:   23a4
Not_Taken_Target instruction: 
	23a4:	00200793          	li	a5,2
Instruction: 
	2398:	00b52623          	sw	a1,12(a0)
	239c:	00100793          	li	a5,1
	23a0:	04f58a63          	beq	a1,a5,23f4 <ck_uart_set_parity+0x5c>


Basic_block Name: 11
In Function:      <ck_uart_set_parity>
Start address:    23a4
End address:      23a8
Start instruction: 
	23a4:	00200793          	li	a5,2
End instruction: 
	23a8:	02f58063          	beq	a1,a5,23c8 <ck_uart_set_parity+0x30>
Length:           2
Taken_Target address:       23c8
Taken_Target instruction: 
	23c8:	00452703          	lw	a4,4(a0)
Not_Taken_Target address:   23ac
Not_Taken_Target instruction: 
	23ac:	00058463          	beqz	a1,23b4 <ck_uart_set_parity+0x1c>
Instruction: 
	23a4:	00200793          	li	a5,2
	23a8:	02f58063          	beq	a1,a5,23c8 <ck_uart_set_parity+0x30>


Basic_block Name: 12
In Function:      <ck_uart_set_parity>
Start address:    23ac
End address:      23ac
Start instruction: 
	23ac:	00058463          	beqz	a1,23b4 <ck_uart_set_parity+0x1c>
End instruction: 
	23ac:	00058463          	beqz	a1,23b4 <ck_uart_set_parity+0x1c>
Length:           1
Taken_Target address:       23b4
Taken_Target instruction: 
	23b4:	00452703          	lw	a4,4(a0)
Not_Taken_Target address:   23b0
Not_Taken_Target instruction: 
	23b0:	00008067          	ret
Instruction: 
	23ac:	00058463          	beqz	a1,23b4 <ck_uart_set_parity+0x1c>


Basic_block Name: 13
In Function:      <ck_uart_set_parity>
Start address:    23b0
End address:      23b0
Start instruction: 
	23b0:	00008067          	ret
End instruction: 
	23b0:	00008067          	ret
Length:           1
Taken_Target address:       ['<ck_uart_init> 25a4']
Taken_Target instruction: 
	
Not_Taken_Target address:   
Not_Taken_Target instruction: 
	
Instruction: 
	23b0:	00008067          	ret


Basic_block Name: 14
In Function:      <ck_uart_set_parity>
Start address:    23b4
End address:      23c4
Start instruction: 
	23b4:	00452703          	lw	a4,4(a0)
End instruction: 
	23c4:	00008067          	ret
Length:           5
Taken_Target address:       ['<ck_uart_init> 25a4']
Taken_Target instruction: 
	
Not_Taken_Target address:   
Not_Taken_Target instruction: 
	
Instruction: 
	23b4:	00452703          	lw	a4,4(a0)
	23b8:	00c74783          	lbu	a5,12(a4)
	23bc:	0f77f793          	andi	a5,a5,247
	23c0:	00f70623          	sb	a5,12(a4)
	23c4:	00008067          	ret


Basic_block Name: 15
In Function:      <ck_uart_set_parity>
Start address:    23c8
End address:      23f0
Start instruction: 
	23c8:	00452703          	lw	a4,4(a0)
End instruction: 
	23f0:	00008067          	ret
Length:           11
Taken_Target address:       ['<ck_uart_init> 25a4']
Taken_Target instruction: 
	
Not_Taken_Target address:   
Not_Taken_Target instruction: 
	
Instruction: 
	23c8:	00452703          	lw	a4,4(a0)
	23cc:	00c74783          	lbu	a5,12(a4)
	23d0:	0ff7f793          	andi	a5,a5,255
	23d4:	0087e793          	ori	a5,a5,8
	23d8:	00f70623          	sb	a5,12(a4)
	23dc:	00452703          	lw	a4,4(a0)
	23e0:	00c74783          	lbu	a5,12(a4)
	23e4:	0ff7f793          	andi	a5,a5,255
	23e8:	0107e793          	ori	a5,a5,16
	23ec:	00f70623          	sb	a5,12(a4)
	23f0:	00008067          	ret


Basic_block Name: 16
In Function:      <ck_uart_set_parity>
Start address:    23f4
End address:      2418
Start instruction: 
	23f4:	00452703          	lw	a4,4(a0)
End instruction: 
	2418:	00008067          	ret
Length:           10
Taken_Target address:       ['<ck_uart_init> 25a4']
Taken_Target instruction: 
	
Not_Taken_Target address:   
Not_Taken_Target instruction: 
	
Instruction: 
	23f4:	00452703          	lw	a4,4(a0)
	23f8:	00c74783          	lbu	a5,12(a4)
	23fc:	0ff7f793          	andi	a5,a5,255
	2400:	0087e793          	ori	a5,a5,8
	2404:	00f70623          	sb	a5,12(a4)
	2408:	00452703          	lw	a4,4(a0)
	240c:	00c74783          	lbu	a5,12(a4)
	2410:	0ef7f793          	andi	a5,a5,239
	2414:	00f70623          	sb	a5,12(a4)
	2418:	00008067          	ret


Basic_block Name: 17
In Function:      <ck_uart_set_wordsize>
Start address:    241c
End address:      2424
Start instruction: 
	241c:	00b52a23          	sw	a1,20(a0)
End instruction: 
	2424:	06f58663          	beq	a1,a5,2490 <ck_uart_set_wordsize+0x74>
Length:           3
Taken_Target address:       2490
Taken_Target instruction: 
	2490:	00452703          	lw	a4,4(a0)
Not_Taken_Target address:   2428
Not_Taken_Target instruction: 
	2428:	02b7e863          	bltu	a5,a1,2458 <ck_uart_set_wordsize+0x3c>
Instruction: 
	241c:	00b52a23          	sw	a1,20(a0)
	2420:	00200793          	li	a5,2
	2424:	06f58663          	beq	a1,a5,2490 <ck_uart_set_wordsize+0x74>


Basic_block Name: 18
In Function:      <ck_uart_set_wordsize>
Start address:    2428
End address:      2428
Start instruction: 
	2428:	02b7e863          	bltu	a5,a1,2458 <ck_uart_set_wordsize+0x3c>
End instruction: 
	2428:	02b7e863          	bltu	a5,a1,2458 <ck_uart_set_wordsize+0x3c>
Length:           1
Taken_Target address:       2458
Taken_Target instruction: 
	2458:	00300793          	li	a5,3
Not_Taken_Target address:   242c
Not_Taken_Target instruction: 
	242c:	04058863          	beqz	a1,247c <ck_uart_set_wordsize+0x60>
Instruction: 
	2428:	02b7e863          	bltu	a5,a1,2458 <ck_uart_set_wordsize+0x3c>


Basic_block Name: 19
In Function:      <ck_uart_set_wordsize>
Start address:    242c
End address:      242c
Start instruction: 
	242c:	04058863          	beqz	a1,247c <ck_uart_set_wordsize+0x60>
End instruction: 
	242c:	04058863          	beqz	a1,247c <ck_uart_set_wordsize+0x60>
Length:           1
Taken_Target address:       247c
Taken_Target instruction: 
	247c:	00452703          	lw	a4,4(a0)
Not_Taken_Target address:   2430
Not_Taken_Target instruction: 
	2430:	00452703          	lw	a4,4(a0)
Instruction: 
	242c:	04058863          	beqz	a1,247c <ck_uart_set_wordsize+0x60>


Basic_block Name: 20
In Function:      <ck_uart_set_wordsize>
Start address:    2430
End address:      2454
Start instruction: 
	2430:	00452703          	lw	a4,4(a0)
End instruction: 
	2454:	00008067          	ret
Length:           10
Taken_Target address:       ['<ck_uart_init> 25b0']
Taken_Target instruction: 
	
Not_Taken_Target address:   
Not_Taken_Target instruction: 
	
Instruction: 
	2430:	00452703          	lw	a4,4(a0)
	2434:	00c74783          	lbu	a5,12(a4)
	2438:	0fd7f793          	andi	a5,a5,253
	243c:	00f70623          	sb	a5,12(a4)
	2440:	00452703          	lw	a4,4(a0)
	2444:	00c74783          	lbu	a5,12(a4)
	2448:	0ff7f793          	andi	a5,a5,255
	244c:	0017e793          	ori	a5,a5,1
	2450:	00f70623          	sb	a5,12(a4)
	2454:	00008067          	ret


Basic_block Name: 21
In Function:      <ck_uart_set_wordsize>
Start address:    2458
End address:      245c
Start instruction: 
	2458:	00300793          	li	a5,3
End instruction: 
	245c:	00f59e63          	bne	a1,a5,2478 <ck_uart_set_wordsize+0x5c>
Length:           2
Taken_Target address:       2478
Taken_Target instruction: 
	2478:	00008067          	ret
Not_Taken_Target address:   2460
Not_Taken_Target instruction: 
	2460:	00452703          	lw	a4,4(a0)
Instruction: 
	2458:	00300793          	li	a5,3
	245c:	00f59e63          	bne	a1,a5,2478 <ck_uart_set_wordsize+0x5c>


Basic_block Name: 22
In Function:      <ck_uart_set_wordsize>
Start address:    2460
End address:      2474
Start instruction: 
	2460:	00452703          	lw	a4,4(a0)
End instruction: 
	2474:	00008067          	ret
Length:           6
Taken_Target address:       ['<ck_uart_init> 25b0']
Taken_Target instruction: 
	
Not_Taken_Target address:   
Not_Taken_Target instruction: 
	
Instruction: 
	2460:	00452703          	lw	a4,4(a0)
	2464:	00c74783          	lbu	a5,12(a4)
	2468:	0ff7f793          	andi	a5,a5,255
	246c:	0037e793          	ori	a5,a5,3
	2470:	00f70623          	sb	a5,12(a4)
	2474:	00008067          	ret


Basic_block Name: 23
In Function:      <ck_uart_set_wordsize>
Start address:    2478
End address:      2478
Start instruction: 
	2478:	00008067          	ret
End instruction: 
	2478:	00008067          	ret
Length:           1
Taken_Target address:       ['<ck_uart_init> 25b0']
Taken_Target instruction: 
	
Not_Taken_Target address:   
Not_Taken_Target instruction: 
	
Instruction: 
	2478:	00008067          	ret


Basic_block Name: 24
In Function:      <ck_uart_set_wordsize>
Start address:    247c
End address:      248c
Start instruction: 
	247c:	00452703          	lw	a4,4(a0)
End instruction: 
	248c:	00008067          	ret
Length:           5
Taken_Target address:       ['<ck_uart_init> 25b0']
Taken_Target instruction: 
	
Not_Taken_Target address:   
Not_Taken_Target instruction: 
	
Instruction: 
	247c:	00452703          	lw	a4,4(a0)
	2480:	00c74783          	lbu	a5,12(a4)
	2484:	0fc7f793          	andi	a5,a5,252
	2488:	00f70623          	sb	a5,12(a4)
	248c:	00008067          	ret


Basic_block Name: 25
In Function:      <ck_uart_set_wordsize>
Start address:    2490
End address:      24b4
Start instruction: 
	2490:	00452703          	lw	a4,4(a0)
End instruction: 
	24b4:	00008067          	ret
Length:           10
Taken_Target address:       ['<ck_uart_init> 25b0']
Taken_Target instruction: 
	
Not_Taken_Target address:   
Not_Taken_Target instruction: 
	
Instruction: 
	2490:	00452703          	lw	a4,4(a0)
	2494:	00c74783          	lbu	a5,12(a4)
	2498:	0fe7f793          	andi	a5,a5,254
	249c:	00f70623          	sb	a5,12(a4)
	24a0:	00452703          	lw	a4,4(a0)
	24a4:	00c74783          	lbu	a5,12(a4)
	24a8:	0ff7f793          	andi	a5,a5,255
	24ac:	0027e793          	ori	a5,a5,2
	24b0:	00f70623          	sb	a5,12(a4)
	24b4:	00008067          	ret


Basic_block Name: 26
In Function:      <ck_uart_open>
Start address:    2508
End address:      2508
Start instruction: 
	2508:	00059c63          	bnez	a1,2520 <ck_uart_open+0x18>
End instruction: 
	2508:	00059c63          	bnez	a1,2520 <ck_uart_open+0x18>
Length:           1
Taken_Target address:       2520
Taken_Target instruction: 
	2520:	00100513          	li	a0,1
Not_Taken_Target address:   250c
Not_Taken_Target instruction: 
	250c:	400157b7          	lui	a5,0x40015
Instruction: 
	2508:	00059c63          	bnez	a1,2520 <ck_uart_open+0x18>


Basic_block Name: 27
In Function:      <ck_uart_open>
Start address:    250c
End address:      251c
Start instruction: 
	250c:	400157b7          	lui	a5,0x40015
End instruction: 
	251c:	00008067          	ret
Length:           5
Taken_Target address:       ['<main> 28dc']
Taken_Target instruction: 
	
Not_Taken_Target address:   
Not_Taken_Target instruction: 
	
Instruction: 
	250c:	400157b7          	lui	a5,0x40015
	2510:	00052023          	sw	zero,0(a0)
	2514:	00f52223          	sw	a5,4(a0)
	2518:	00000513          	li	a0,0
	251c:	00008067          	ret


Basic_block Name: 28
In Function:      <ck_uart_open>
Start address:    2520
End address:      2524
Start instruction: 
	2520:	00100513          	li	a0,1
End instruction: 
	2524:	00008067          	ret
Length:           2
Taken_Target address:       ['<main> 28dc']
Taken_Target instruction: 
	
Not_Taken_Target address:   
Not_Taken_Target instruction: 
	
Instruction: 
	2520:	00100513          	li	a0,1
	2524:	00008067          	ret


Basic_block Name: 29
In Function:      <ck_uart_init>
Start address:    2528
End address:      2534
Start instruction: 
	2528:	00052703          	lw	a4,0(a0)
End instruction: 
	2534:	0ef70263          	beq	a4,a5,2618 <ck_uart_init+0xf0>
Length:           4
Taken_Target address:       2618
Taken_Target instruction: 
	2618:	00100513          	li	a0,1
Not_Taken_Target address:   2538
Not_Taken_Target instruction: 
	2538:	0005a683          	lw	a3,0(a1)
Instruction: 
	2528:	00052703          	lw	a4,0(a0)
	252c:	000107b7          	lui	a5,0x10
	2530:	fff78793          	addi	a5,a5,-1 # ffff <pow10.0+0x98b7>
	2534:	0ef70263          	beq	a4,a5,2618 <ck_uart_init+0xf0>


Basic_block Name: 30
In Function:      <ck_uart_init>
Start address:    2538
End address:      25a0
Start instruction: 
	2538:	0005a683          	lw	a3,0(a1)
End instruction: 
	25a0:	df9ff0ef          	jal	ra,2398 <ck_uart_set_parity>
Length:           27
Taken_Target address:       2398
Taken_Target instruction: 
	2398:	00b52623          	sw	a1,12(a0)
Not_Taken_Target address:   
Not_Taken_Target instruction: 
	
Instruction: 
	2538:	0005a683          	lw	a3,0(a1)
	253c:	05f5e7b7          	lui	a5,0x5f5e
	2540:	10078793          	addi	a5,a5,256 # 5f5e100 <_global_impure_ptr+0x5f49ad8>
	2544:	02d7d7b3          	divu	a5,a5,a3
	2548:	00452703          	lw	a4,4(a0)
	254c:	ff010113          	addi	sp,sp,-16
	2550:	00112623          	sw	ra,12(sp)
	2554:	00812423          	sw	s0,8(sp)
	2558:	00912223          	sw	s1,4(sp)
	255c:	00d52423          	sw	a3,8(a0)
	2560:	00c74683          	lbu	a3,12(a4)
	2564:	00058493          	mv	s1,a1
	2568:	00050413          	mv	s0,a0
	256c:	f806e693          	ori	a3,a3,-128
	2570:	0ff6f693          	andi	a3,a3,255
	2574:	00d70623          	sb	a3,12(a4)
	2578:	0047d693          	srli	a3,a5,0x4
	257c:	0ff6f693          	andi	a3,a3,255
	2580:	00c7d793          	srli	a5,a5,0xc
	2584:	00d70023          	sb	a3,0(a4)
	2588:	0ff7f793          	andi	a5,a5,255
	258c:	00f70223          	sb	a5,4(a4)
	2590:	00c74783          	lbu	a5,12(a4)
	2594:	07f7f793          	andi	a5,a5,127
	2598:	00f70623          	sb	a5,12(a4)
	259c:	0085a583          	lw	a1,8(a1)
	25a0:	df9ff0ef          	jal	ra,2398 <ck_uart_set_parity>


Basic_block Name: 31
In Function:      <ck_uart_init>
Start address:    25a4
End address:      25ac
Start instruction: 
	25a4:	00c4a583          	lw	a1,12(s1)
End instruction: 
	25ac:	e71ff0ef          	jal	ra,241c <ck_uart_set_wordsize>
Length:           3
Taken_Target address:       241c
Taken_Target instruction: 
	241c:	00b52a23          	sw	a1,20(a0)
Not_Taken_Target address:   
Not_Taken_Target instruction: 
	
Instruction: 
	25a4:	00c4a583          	lw	a1,12(s1)
	25a8:	00040513          	mv	a0,s0
	25ac:	e71ff0ef          	jal	ra,241c <ck_uart_set_wordsize>


Basic_block Name: 32
In Function:      <ck_uart_init>
Start address:    25b0
End address:      25b8
Start instruction: 
	25b0:	0044a783          	lw	a5,4(s1)
End instruction: 
	25b8:	04078663          	beqz	a5,2604 <ck_uart_init+0xdc>
Length:           3
Taken_Target address:       2604
Taken_Target instruction: 
	2604:	00442703          	lw	a4,4(s0)
Not_Taken_Target address:   25bc
Not_Taken_Target instruction: 
	25bc:	00100713          	li	a4,1
Instruction: 
	25b0:	0044a783          	lw	a5,4(s1)
	25b4:	00f42823          	sw	a5,16(s0)
	25b8:	04078663          	beqz	a5,2604 <ck_uart_init+0xdc>


Basic_block Name: 33
In Function:      <ck_uart_init>
Start address:    25bc
End address:      25c0
Start instruction: 
	25bc:	00100713          	li	a4,1
End instruction: 
	25c0:	02e78663          	beq	a5,a4,25ec <ck_uart_init+0xc4>
Length:           2
Taken_Target address:       25ec
Taken_Target instruction: 
	25ec:	00442703          	lw	a4,4(s0)
Not_Taken_Target address:   25c4
Not_Taken_Target instruction: 
	25c4:	0104a703          	lw	a4,16(s1)
Instruction: 
	25bc:	00100713          	li	a4,1
	25c0:	02e78663          	beq	a5,a4,25ec <ck_uart_init+0xc4>


Basic_block Name: 34
In Function:      <ck_uart_init>
Start address:    25c4
End address:      25e8
Start instruction: 
	25c4:	0104a703          	lw	a4,16(s1)
End instruction: 
	25e8:	00008067          	ret
Length:           10
Taken_Target address:       ['<main> 28fc']
Taken_Target instruction: 
	
Not_Taken_Target address:   
Not_Taken_Target instruction: 
	
Instruction: 
	25c4:	0104a703          	lw	a4,16(s1)
	25c8:	0144a783          	lw	a5,20(s1)
	25cc:	00c12083          	lw	ra,12(sp)
	25d0:	00e42c23          	sw	a4,24(s0)
	25d4:	00f42e23          	sw	a5,28(s0)
	25d8:	00812403          	lw	s0,8(sp)
	25dc:	00412483          	lw	s1,4(sp)
	25e0:	00000513          	li	a0,0
	25e4:	01010113          	addi	sp,sp,16
	25e8:	00008067          	ret


Basic_block Name: 35
In Function:      <ck_uart_init>
Start address:    25ec
End address:      2600
Start instruction: 
	25ec:	00442703          	lw	a4,4(s0)
End instruction: 
	2600:	fc5ff06f          	j	25c4 <ck_uart_init+0x9c>
Length:           6
Taken_Target address:       25c4
Taken_Target instruction: 
	25c4:	0104a703          	lw	a4,16(s1)
Not_Taken_Target address:   
Not_Taken_Target instruction: 
	
Instruction: 
	25ec:	00442703          	lw	a4,4(s0)
	25f0:	00c74783          	lbu	a5,12(a4)
	25f4:	0ff7f793          	andi	a5,a5,255
	25f8:	0047e793          	ori	a5,a5,4
	25fc:	00f70623          	sb	a5,12(a4)
	2600:	fc5ff06f          	j	25c4 <ck_uart_init+0x9c>


Basic_block Name: 36
In Function:      <ck_uart_init>
Start address:    2604
End address:      2614
Start instruction: 
	2604:	00442703          	lw	a4,4(s0)
End instruction: 
	2614:	fb1ff06f          	j	25c4 <ck_uart_init+0x9c>
Length:           5
Taken_Target address:       25c4
Taken_Target instruction: 
	25c4:	0104a703          	lw	a4,16(s1)
Not_Taken_Target address:   
Not_Taken_Target instruction: 
	
Instruction: 
	2604:	00442703          	lw	a4,4(s0)
	2608:	00c74783          	lbu	a5,12(a4)
	260c:	0fb7f793          	andi	a5,a5,251
	2610:	00f70623          	sb	a5,12(a4)
	2614:	fb1ff06f          	j	25c4 <ck_uart_init+0x9c>


Basic_block Name: 37
In Function:      <ck_uart_init>
Start address:    2618
End address:      261c
Start instruction: 
	2618:	00100513          	li	a0,1
End instruction: 
	261c:	00008067          	ret
Length:           2
Taken_Target address:       ['<main> 28fc']
Taken_Target instruction: 
	
Not_Taken_Target address:   
Not_Taken_Target instruction: 
	
Instruction: 
	2618:	00100513          	li	a0,1
	261c:	00008067          	ret


Basic_block Name: 38
In Function:      <ck_uart_putc>
Start address:    263c
End address:      2640
Start instruction: 
	263c:	01c52783          	lw	a5,28(a0)
End instruction: 
	2640:	02078063          	beqz	a5,2660 <ck_uart_putc+0x24>
Length:           2
Taken_Target address:       2660
Taken_Target instruction: 
	2660:	00100513          	li	a0,1
Not_Taken_Target address:   2644
Not_Taken_Target instruction: 
	2644:	00452703          	lw	a4,4(a0)
Instruction: 
	263c:	01c52783          	lw	a5,28(a0)
	2640:	02078063          	beqz	a5,2660 <ck_uart_putc+0x24>


Basic_block Name: 39
In Function:      <ck_uart_putc>
Start address:    2644
End address:      2650
Start instruction: 
	2644:	00452703          	lw	a4,4(a0)
End instruction: 
	2650:	fe078ce3          	beqz	a5,2648 <ck_uart_putc+0xc>
Length:           4
Taken_Target address:       2648
Taken_Target instruction: 
	2648:	01474783          	lbu	a5,20(a4)
Not_Taken_Target address:   2654
Not_Taken_Target instruction: 
	2654:	00b70023          	sb	a1,0(a4)
Instruction: 
	2644:	00452703          	lw	a4,4(a0)
	2648:	01474783          	lbu	a5,20(a4)
	264c:	0207f793          	andi	a5,a5,32
	2650:	fe078ce3          	beqz	a5,2648 <ck_uart_putc+0xc>


Basic_block Name: 195 start_with_taken_target
In Function:      <ck_uart_putc>
Start address:    2648
End address:      2650
Start instruction: 
	2648:	01474783          	lbu	a5,20(a4)
End instruction: 
	2650:	fe078ce3          	beqz	a5,2648 <ck_uart_putc+0xc>
Length:           3
Taken_Target address:       2648
Taken_Target instruction: 
	2648:	01474783          	lbu	a5,20(a4)
Not_Taken_Target address:   2654
Not_Taken_Target instruction: 
	2654:	00b70023          	sb	a1,0(a4)
Instruction: 
	2648:	01474783          	lbu	a5,20(a4)
	264c:	0207f793          	andi	a5,a5,32
	2650:	fe078ce3          	beqz	a5,2648 <ck_uart_putc+0xc>


Basic_block Name: 40
In Function:      <ck_uart_putc>
Start address:    2654
End address:      265c
Start instruction: 
	2654:	00b70023          	sb	a1,0(a4)
End instruction: 
	265c:	00008067          	ret
Length:           3
Taken_Target address:       ['<puts> 2144', '<puts> 2158']
Taken_Target instruction: 
	
Not_Taken_Target address:   
Not_Taken_Target instruction: 
	
Instruction: 
	2654:	00b70023          	sb	a1,0(a4)
	2658:	00000513          	li	a0,0
	265c:	00008067          	ret


Basic_block Name: 41
In Function:      <ck_uart_putc>
Start address:    2660
End address:      2664
Start instruction: 
	2660:	00100513          	li	a0,1
End instruction: 
	2664:	00008067          	ret
Length:           2
Taken_Target address:       ['<puts> 2144', '<puts> 2158']
Taken_Target instruction: 
	
Not_Taken_Target address:   
Not_Taken_Target instruction: 
	
Instruction: 
	2660:	00100513          	li	a0,1
	2664:	00008067          	ret


Basic_block Name: 42
In Function:      <fputc>
Start address:    2814
End address:      2820
Start instruction: 
	2814:	0ff57593          	andi	a1,a0,255
End instruction: 
	2820:	e1dff06f          	j	263c <ck_uart_putc>
Length:           4
Taken_Target address:       263c
Taken_Target instruction: 
	263c:	01c52783          	lw	a5,28(a0)
Not_Taken_Target address:   
Not_Taken_Target instruction: 
	
Instruction: 
	2814:	0ff57593          	andi	a1,a0,255
	2818:	20000537          	lui	a0,0x20000
	281c:	00450513          	addi	a0,a0,4 # 20000004 <uart0>
	2820:	e1dff06f          	j	263c <ck_uart_putc>


Basic_block Name: 43
In Function:      <main>
Start address:    2824
End address:      28a0
Start instruction: 
	2824:	ffff32b7          	lui	t0,0xffff3
End instruction: 
	28a0:	fcd79ce3          	bne	a5,a3,2878 <main+0x54>
Length:           32
Taken_Target address:       2878
Taken_Target instruction: 
	2878:	0007a803          	lw	a6,0(a5)
Not_Taken_Target address:   28a4
Not_Taken_Target instruction: 
	28a4:	000057b7          	lui	a5,0x5
Instruction: 
	2824:	ffff32b7          	lui	t0,0xffff3
	2828:	81010113          	addi	sp,sp,-2032
	282c:	b3028293          	addi	t0,t0,-1232 # ffff2b30 <__kernel_stack+0xdff32b38>
	2830:	7e112623          	sw	ra,2028(sp)
	2834:	7e812423          	sw	s0,2024(sp)
	2838:	7e912223          	sw	s1,2020(sp)
	283c:	7f212023          	sw	s2,2016(sp)
	2840:	0000e6b7          	lui	a3,0xe
	2844:	00510133          	add	sp,sp,t0
	2848:	ca068693          	addi	a3,a3,-864 # dca0 <pow10.0+0x7558>
	284c:	01010613          	addi	a2,sp,16
	2850:	00c686b3          	add	a3,a3,a2
	2854:	ffff2737          	lui	a4,0xffff2
	2858:	00e68733          	add	a4,a3,a4
	285c:	000067b7          	lui	a5,0x6
	2860:	0000e6b7          	lui	a3,0xe
	2864:	79878793          	addi	a5,a5,1944 # 6798 <pow10.0+0x50>
	2868:	c8068693          	addi	a3,a3,-896 # dc80 <pow10.0+0x7538>
	286c:	00e12623          	sw	a4,12(sp)
	2870:	00d786b3          	add	a3,a5,a3
	2874:	38070713          	addi	a4,a4,896 # ffff2380 <__kernel_stack+0xdff32388>
	2878:	0007a803          	lw	a6,0(a5)
	287c:	0047a503          	lw	a0,4(a5)
	2880:	0087a583          	lw	a1,8(a5)
	2884:	00c7a603          	lw	a2,12(a5)
	2888:	01072023          	sw	a6,0(a4)
	288c:	00a72223          	sw	a0,4(a4)
	2890:	00b72423          	sw	a1,8(a4)
	2894:	00c72623          	sw	a2,12(a4)
	2898:	01078793          	addi	a5,a5,16
	289c:	01070713          	addi	a4,a4,16
	28a0:	fcd79ce3          	bne	a5,a3,2878 <main+0x54>


Basic_block Name: 196 start_with_taken_target
In Function:      <main>
Start address:    2878
End address:      28a0
Start instruction: 
	2878:	0007a803          	lw	a6,0(a5)
End instruction: 
	28a0:	fcd79ce3          	bne	a5,a3,2878 <main+0x54>
Length:           11
Taken_Target address:       2878
Taken_Target instruction: 
	2878:	0007a803          	lw	a6,0(a5)
Not_Taken_Target address:   28a4
Not_Taken_Target instruction: 
	28a4:	000057b7          	lui	a5,0x5
Instruction: 
	2878:	0007a803          	lw	a6,0(a5)
	287c:	0047a503          	lw	a0,4(a5)
	2880:	0087a583          	lw	a1,8(a5)
	2884:	00c7a603          	lw	a2,12(a5)
	2888:	01072023          	sw	a6,0(a4)
	288c:	00a72223          	sw	a0,4(a4)
	2890:	00b72423          	sw	a1,8(a4)
	2894:	00c72623          	sw	a2,12(a4)
	2898:	01078793          	addi	a5,a5,16
	289c:	01070713          	addi	a4,a4,16
	28a0:	fcd79ce3          	bne	a5,a3,2878 <main+0x54>


Basic_block Name: 44
In Function:      <main>
Start address:    28a4
End address:      28d8
Start instruction: 
	28a4:	000057b7          	lui	a5,0x5
End instruction: 
	28d8:	c31ff0ef          	jal	ra,2508 <ck_uart_open>
Length:           14
Taken_Target address:       2508
Taken_Target instruction: 
	2508:	00059c63          	bnez	a1,2520 <ck_uart_open+0x18>
Not_Taken_Target address:   
Not_Taken_Target instruction: 
	
Instruction: 
	28a4:	000057b7          	lui	a5,0x5
	28a8:	b0078793          	addi	a5,a5,-1280 # 4b00 <__subdf3+0x402>
	28ac:	200004b7          	lui	s1,0x20000
	28b0:	00f12c23          	sw	a5,24(sp)
	28b4:	00300793          	li	a5,3
	28b8:	00000593          	li	a1,0
	28bc:	00448513          	addi	a0,s1,4 # 20000004 <uart0>
	28c0:	02f12223          	sw	a5,36(sp)
	28c4:	00100793          	li	a5,1
	28c8:	0000e937          	lui	s2,0xe
	28cc:	02f12623          	sw	a5,44(sp)
	28d0:	02012023          	sw	zero,32(sp)
	28d4:	00012e23          	sw	zero,28(sp)
	28d8:	c31ff0ef          	jal	ra,2508 <ck_uart_open>


Basic_block Name: 45
In Function:      <main>
Start address:    28dc
End address:      28f8
Start instruction: 
	28dc:	01010713          	addi	a4,sp,16
End instruction: 
	28f8:	c31ff0ef          	jal	ra,2528 <ck_uart_init>
Length:           8
Taken_Target address:       2528
Taken_Target instruction: 
	2528:	00052703          	lw	a4,0(a0)
Not_Taken_Target address:   
Not_Taken_Target instruction: 
	
Instruction: 
	28dc:	01010713          	addi	a4,sp,16
	28e0:	ffff2437          	lui	s0,0xffff2
	28e4:	ca090793          	addi	a5,s2,-864 # dca0 <pow10.0+0x7558>
	28e8:	00e787b3          	add	a5,a5,a4
	28ec:	36840593          	addi	a1,s0,872 # ffff2368 <__kernel_stack+0xdff32370>
	28f0:	00b785b3          	add	a1,a5,a1
	28f4:	00448513          	addi	a0,s1,4
	28f8:	c31ff0ef          	jal	ra,2528 <ck_uart_init>


Basic_block Name: 46
In Function:      <main>
Start address:    28fc
End address:      2924
Start instruction: 
	28fc:	01010713          	addi	a4,sp,16
End instruction: 
	2924:	6f7020ef          	jal	ra,581a <qsort>
Length:           11
Taken_Target address:       581a
Taken_Target instruction: 
	581a:	7135                	addi	sp,sp,-160
Not_Taken_Target address:   
Not_Taken_Target instruction: 
	
Instruction: 
	28fc:	01010713          	addi	a4,sp,16
	2900:	ca090793          	addi	a5,s2,-864
	2904:	00e787b3          	add	a5,a5,a4
	2908:	38040413          	addi	s0,s0,896
	290c:	00878433          	add	s0,a5,s0
	2910:	000026b7          	lui	a3,0x2
	2914:	7e068693          	addi	a3,a3,2016 # 27e0 <compare>
	2918:	08000613          	li	a2,128
	291c:	1ba00593          	li	a1,442
	2920:	00040513          	mv	a0,s0
	2924:	6f7020ef          	jal	ra,581a <qsort>


Basic_block Name: 47
In Function:      <main>
Start address:    2928
End address:      293c
Start instruction: 
	2928:	d2090793          	addi	a5,s2,-736
End instruction: 
	293c:	fe4ff0ef          	jal	ra,2120 <puts>
Length:           6
Taken_Target address:       2120
Taken_Target instruction: 
	2120:	ff010113          	addi	sp,sp,-16
Not_Taken_Target address:   
Not_Taken_Target instruction: 
	
Instruction: 
	2928:	d2090793          	addi	a5,s2,-736
	292c:	01010713          	addi	a4,sp,16
	2930:	00f704b3          	add	s1,a4,a5
	2934:	00040513          	mv	a0,s0
	2938:	08040413          	addi	s0,s0,128
	293c:	fe4ff0ef          	jal	ra,2120 <puts>


Basic_block Name: 197 start_with_taken_target
In Function:      <main>
Start address:    2934
End address:      293c
Start instruction: 
	2934:	00040513          	mv	a0,s0
End instruction: 
	293c:	fe4ff0ef          	jal	ra,2120 <puts>
Length:           3
Taken_Target address:       2120
Taken_Target instruction: 
	2120:	ff010113          	addi	sp,sp,-16
Not_Taken_Target address:   
Not_Taken_Target instruction: 
	
Instruction: 
	2934:	00040513          	mv	a0,s0
	2938:	08040413          	addi	s0,s0,128
	293c:	fe4ff0ef          	jal	ra,2120 <puts>


Basic_block Name: 48
In Function:      <main>
Start address:    2940
End address:      2940
Start instruction: 
	2940:	fe941ae3          	bne	s0,s1,2934 <main+0x110>
End instruction: 
	2940:	fe941ae3          	bne	s0,s1,2934 <main+0x110>
Length:           1
Taken_Target address:       2934
Taken_Target instruction: 
	2934:	00040513          	mv	a0,s0
Not_Taken_Target address:   2944
Not_Taken_Target instruction: 
	2944:	0000d2b7          	lui	t0,0xd
Instruction: 
	2940:	fe941ae3          	bne	s0,s1,2934 <main+0x110>


Basic_block Name: 49
In Function:      <main>
Start address:    2944
End address:      2968
Start instruction: 
	2944:	0000d2b7          	lui	t0,0xd
End instruction: 
	2968:	00008067          	ret
Length:           10
Taken_Target address:       ['<__exit> 100']
Taken_Target instruction: 
	
Not_Taken_Target address:   
Not_Taken_Target instruction: 
	
Instruction: 
	2944:	0000d2b7          	lui	t0,0xd
	2948:	4d028293          	addi	t0,t0,1232 # d4d0 <pow10.0+0x6d88>
	294c:	00510133          	add	sp,sp,t0
	2950:	7ec12083          	lw	ra,2028(sp)
	2954:	7e812403          	lw	s0,2024(sp)
	2958:	7e412483          	lw	s1,2020(sp)
	295c:	7e012903          	lw	s2,2016(sp)
	2960:	00000513          	li	a0,0
	2964:	7f010113          	addi	sp,sp,2032
	2968:	00008067          	ret


Basic_block Name: 50
In Function:      <qsort>
Start address:    581a
End address:      5844
Start instruction: 
	581a:	7135                	addi	sp,sp,-160
End instruction: 
	5844:	e789                	bnez	a5,584e <qsort+0x34>
Length:           21
Taken_Target address:       584e
Taken_Target instruction: 
	584e:	002cd793          	srli	a5,s9,0x2
Not_Taken_Target address:   5846
Not_Taken_Target instruction: 
	5846:	ffc60a93          	addi	s5,a2,-4
Instruction: 
	581a:	7135                	addi	sp,sp,-160
	581c:	00c567b3          	or	a5,a0,a2
	5820:	c94a                	sw	s2,144(sp)
	5822:	c552                	sw	s4,136(sp)
	5824:	c356                	sw	s5,132(sp)
	5826:	dae6                	sw	s9,116(sp)
	5828:	cf06                	sw	ra,156(sp)
	582a:	cd22                	sw	s0,152(sp)
	582c:	cb26                	sw	s1,148(sp)
	582e:	c74e                	sw	s3,140(sp)
	5830:	c15a                	sw	s6,128(sp)
	5832:	dede                	sw	s7,124(sp)
	5834:	dce2                	sw	s8,120(sp)
	5836:	d8ea                	sw	s10,112(sp)
	5838:	d6ee                	sw	s11,108(sp)
	583a:	8b8d                	andi	a5,a5,3
	583c:	892a                	mv	s2,a0
	583e:	8cb2                	mv	s9,a2
	5840:	8a36                	mv	s4,a3
	5842:	4a89                	li	s5,2
	5844:	e789                	bnez	a5,584e <qsort+0x34>


Basic_block Name: 51
In Function:      <qsort>
Start address:    5846
End address:      5878
Start instruction: 
	5846:	ffc60a93          	addi	s5,a2,-4
End instruction: 
	5878:	2ab77763          	bgeu	a4,a1,5b26 <qsort+0x30c>
Length:           18
Taken_Target address:       5b26
Taken_Target instruction: 
	5b26:	4712                	lw	a4,4(sp)
Not_Taken_Target address:   587c
Not_Taken_Target instruction: 
	587c:	0015dc13          	srli	s8,a1,0x1
Instruction: 
	5846:	ffc60a93          	addi	s5,a2,-4
	584a:	01503ab3          	snez	s5,s5
	584e:	002cd793          	srli	a5,s9,0x2
	5852:	c63e                	sw	a5,12(sp)
	5854:	001c9793          	slli	a5,s9,0x1
	5858:	ce02                	sw	zero,28(sp)
	585a:	41900433          	neg	s0,s9
	585e:	4d05                	li	s10,1
	5860:	c43e                	sw	a5,8(sp)
	5862:	039587b3          	mul	a5,a1,s9
	5866:	01990733          	add	a4,s2,s9
	586a:	86ba                	mv	a3,a4
	586c:	ca36                	sw	a3,20(sp)
	586e:	c23a                	sw	a4,4(sp)
	5870:	4719                	li	a4,6
	5872:	00f906b3          	add	a3,s2,a5
	5876:	c836                	sw	a3,16(sp)
	5878:	2ab77763          	bgeu	a4,a1,5b26 <qsort+0x30c>


Basic_block Name: 198 start_with_taken_target
In Function:      <qsort>
Start address:    584e
End address:      5878
Start instruction: 
	584e:	002cd793          	srli	a5,s9,0x2
End instruction: 
	5878:	2ab77763          	bgeu	a4,a1,5b26 <qsort+0x30c>
Length:           16
Taken_Target address:       5b26
Taken_Target instruction: 
	5b26:	4712                	lw	a4,4(sp)
Not_Taken_Target address:   587c
Not_Taken_Target instruction: 
	587c:	0015dc13          	srli	s8,a1,0x1
Instruction: 
	584e:	002cd793          	srli	a5,s9,0x2
	5852:	c63e                	sw	a5,12(sp)
	5854:	001c9793          	slli	a5,s9,0x1
	5858:	ce02                	sw	zero,28(sp)
	585a:	41900433          	neg	s0,s9
	585e:	4d05                	li	s10,1
	5860:	c43e                	sw	a5,8(sp)
	5862:	039587b3          	mul	a5,a1,s9
	5866:	01990733          	add	a4,s2,s9
	586a:	86ba                	mv	a3,a4
	586c:	ca36                	sw	a3,20(sp)
	586e:	c23a                	sw	a4,4(sp)
	5870:	4719                	li	a4,6
	5872:	00f906b3          	add	a3,s2,a5
	5876:	c836                	sw	a3,16(sp)
	5878:	2ab77763          	bgeu	a4,a1,5b26 <qsort+0x30c>


Basic_block Name: 52
In Function:      <qsort>
Start address:    587c
End address:      5890
Start instruction: 
	587c:	0015dc13          	srli	s8,a1,0x1
End instruction: 
	5890:	02e58263          	beq	a1,a4,58b4 <qsort+0x9a>
Length:           7
Taken_Target address:       58b4
Taken_Target instruction: 
	58b4:	100a9563          	bnez	s5,59be <qsort+0x1a4>
Not_Taken_Target address:   5894
Not_Taken_Target instruction: 
	5894:	02800713          	li	a4,40
Instruction: 
	587c:	0015dc13          	srli	s8,a1,0x1
	5880:	039c0c33          	mul	s8,s8,s9
	5884:	419787b3          	sub	a5,a5,s9
	5888:	471d                	li	a4,7
	588a:	00f90db3          	add	s11,s2,a5
	588e:	9c4a                	add	s8,s8,s2
	5890:	02e58263          	beq	a1,a4,58b4 <qsort+0x9a>


Basic_block Name: 53
In Function:      <qsort>
Start address:    5894
End address:      589c
Start instruction: 
	5894:	02800713          	li	a4,40
End instruction: 
	589c:	3cb76c63          	bltu	a4,a1,5c74 <qsort+0x45a>
Length:           4
Taken_Target address:       5c74
Taken_Target instruction: 
	5c74:	0035d993          	srli	s3,a1,0x3
Not_Taken_Target address:   58a0
Not_Taken_Target instruction: 
	58a0:	85e2                	mv	a1,s8
Instruction: 
	5894:	02800713          	li	a4,40
	5898:	89ee                	mv	s3,s11
	589a:	84ca                	mv	s1,s2
	589c:	3cb76c63          	bltu	a4,a1,5c74 <qsort+0x45a>


Basic_block Name: 54
In Function:      <qsort>
Start address:    58a0
End address:      58a4
Start instruction: 
	58a0:	85e2                	mv	a1,s8
End instruction: 
	58a4:	9a02                	jalr	s4
Length:           3
Taken_Target address:       FFFF
Taken_Target instruction: 
	FFFFFFFF
Not_Taken_Target address:   
Not_Taken_Target instruction: 
	
Instruction: 
	58a0:	85e2                	mv	a1,s8
	58a2:	8526                	mv	a0,s1
	58a4:	9a02                	jalr	s4


Basic_block Name: 55
In Function:      <qsort>
Start address:    58a6
End address:      58a8
Start instruction: 
	58a6:	85ce                	mv	a1,s3
End instruction: 
	58a8:	3a054a63          	bltz	a0,5c5c <qsort+0x442>
Length:           2
Taken_Target address:       5c5c
Taken_Target instruction: 
	5c5c:	8562                	mv	a0,s8
Not_Taken_Target address:   58ac
Not_Taken_Target instruction: 
	58ac:	8562                	mv	a0,s8
Instruction: 
	58a6:	85ce                	mv	a1,s3
	58a8:	3a054a63          	bltz	a0,5c5c <qsort+0x442>


Basic_block Name: 56
In Function:      <qsort>
Start address:    58ac
End address:      58ae
Start instruction: 
	58ac:	8562                	mv	a0,s8
End instruction: 
	58ae:	9a02                	jalr	s4
Length:           2
Taken_Target address:       FFFF
Taken_Target instruction: 
	FFFFFFFF
Not_Taken_Target address:   
Not_Taken_Target instruction: 
	
Instruction: 
	58ac:	8562                	mv	a0,s8
	58ae:	9a02                	jalr	s4


Basic_block Name: 57
In Function:      <qsort>
Start address:    58b0
End address:      58b0
Start instruction: 
	58b0:	0ea05e63          	blez	a0,59ac <qsort+0x192>
End instruction: 
	58b0:	0ea05e63          	blez	a0,59ac <qsort+0x192>
Length:           1
Taken_Target address:       59ac
Taken_Target instruction: 
	59ac:	85ce                	mv	a1,s3
Not_Taken_Target address:   58b4
Not_Taken_Target instruction: 
	58b4:	100a9563          	bnez	s5,59be <qsort+0x1a4>
Instruction: 
	58b0:	0ea05e63          	blez	a0,59ac <qsort+0x192>


Basic_block Name: 58
In Function:      <qsort>
Start address:    58b4
End address:      58b4
Start instruction: 
	58b4:	100a9563          	bnez	s5,59be <qsort+0x1a4>
End instruction: 
	58b4:	100a9563          	bnez	s5,59be <qsort+0x1a4>
Length:           1
Taken_Target address:       59be
Taken_Target instruction: 
	59be:	874a                	mv	a4,s2
Not_Taken_Target address:   58b8
Not_Taken_Target instruction: 
	58b8:	000c2683          	lw	a3,0(s8)
Instruction: 
	58b4:	100a9563          	bnez	s5,59be <qsort+0x1a4>


Basic_block Name: 59
In Function:      <qsort>
Start address:    58b8
End address:      58ca
Start instruction: 
	58b8:	000c2683          	lw	a3,0(s8)
End instruction: 
	58ca:	10fdef63          	bltu	s11,a5,59e8 <qsort+0x1ce>
Length:           6
Taken_Target address:       59e8
Taken_Target instruction: 
	59e8:	47c2                	lw	a5,16(sp)
Not_Taken_Target address:   58ce
Not_Taken_Target instruction: 
	58ce:	8b3e                	mv	s6,a5
Instruction: 
	58b8:	000c2683          	lw	a3,0(s8)
	58bc:	00092703          	lw	a4,0(s2)
	58c0:	00d92023          	sw	a3,0(s2)
	58c4:	00ec2023          	sw	a4,0(s8)
	58c8:	47d2                	lw	a5,20(sp)
	58ca:	10fdef63          	bltu	s11,a5,59e8 <qsort+0x1ce>


Basic_block Name: 60
In Function:      <qsort>
Start address:    58ce
End address:      58de
Start instruction: 
	58ce:	8b3e                	mv	s6,a5
End instruction: 
	58de:	9a02                	jalr	s4
Length:           8
Taken_Target address:       FFFF
Taken_Target instruction: 
	FFFFFFFF
Not_Taken_Target address:   
Not_Taken_Target instruction: 
	
Instruction: 
	58ce:	8b3e                	mv	s6,a5
	58d0:	01978c33          	add	s8,a5,s9
	58d4:	89ee                	mv	s3,s11
	58d6:	cc3e                	sw	a5,24(sp)
	58d8:	4b81                	li	s7,0
	58da:	85ca                	mv	a1,s2
	58dc:	855a                	mv	a0,s6
	58de:	9a02                	jalr	s4


Basic_block Name: 201 start_with_taken_target
In Function:      <qsort>
Start address:    58da
End address:      58de
Start instruction: 
	58da:	85ca                	mv	a1,s2
End instruction: 
	58de:	9a02                	jalr	s4
Length:           3
Taken_Target address:       FFFF
Taken_Target instruction: 
	FFFFFFFF
Not_Taken_Target address:   
Not_Taken_Target instruction: 
	
Instruction: 
	58da:	85ca                	mv	a1,s2
	58dc:	855a                	mv	a0,s6
	58de:	9a02                	jalr	s4


Basic_block Name: 61
In Function:      <qsort>
Start address:    58e0
End address:      58e2
Start instruction: 
	58e0:	84da                	mv	s1,s6
End instruction: 
	58e2:	02a05963          	blez	a0,5914 <qsort+0xfa>
Length:           2
Taken_Target address:       5914
Taken_Target instruction: 
	5914:	ed11                	bnez	a0,5930 <qsort+0x116>
Not_Taken_Target address:   58e6
Not_Taken_Target instruction: 
	58e6:	056dea63          	bltu	s11,s6,593a <qsort+0x120>
Instruction: 
	58e0:	84da                	mv	s1,s6
	58e2:	02a05963          	blez	a0,5914 <qsort+0xfa>


Basic_block Name: 62
In Function:      <qsort>
Start address:    58e6
End address:      58e6
Start instruction: 
	58e6:	056dea63          	bltu	s11,s6,593a <qsort+0x120>
End instruction: 
	58e6:	056dea63          	bltu	s11,s6,593a <qsort+0x120>
Length:           1
Taken_Target address:       593a
Taken_Target instruction: 
	593a:	0a0b8763          	beqz	s7,59e8 <qsort+0x1ce>
Not_Taken_Target address:   58ea
Not_Taken_Target instruction: 
	58ea:	85ca                	mv	a1,s2
Instruction: 
	58e6:	056dea63          	bltu	s11,s6,593a <qsort+0x120>


Basic_block Name: 63
In Function:      <qsort>
Start address:    58ea
End address:      58ee
Start instruction: 
	58ea:	85ca                	mv	a1,s2
End instruction: 
	58ee:	9a02                	jalr	s4
Length:           3
Taken_Target address:       FFFF
Taken_Target instruction: 
	FFFFFFFF
Not_Taken_Target address:   
Not_Taken_Target instruction: 
	
Instruction: 
	58ea:	85ca                	mv	a1,s2
	58ec:	856e                	mv	a0,s11
	58ee:	9a02                	jalr	s4


Basic_block Name: 64
In Function:      <qsort>
Start address:    58f0
End address:      58f0
Start instruction: 
	58f0:	16054e63          	bltz	a0,5a6c <qsort+0x252>
End instruction: 
	58f0:	16054e63          	bltz	a0,5a6c <qsort+0x252>
Length:           1
Taken_Target address:       5a6c
Taken_Target instruction: 
	5a6c:	020a9a63          	bnez	s5,5aa0 <qsort+0x286>
Not_Taken_Target address:   58f4
Not_Taken_Target instruction: 
	58f4:	00051e63          	bnez	a0,5910 <qsort+0xf6>
Instruction: 
	58f0:	16054e63          	bltz	a0,5a6c <qsort+0x252>


Basic_block Name: 65
In Function:      <qsort>
Start address:    58f4
End address:      58f4
Start instruction: 
	58f4:	00051e63          	bnez	a0,5910 <qsort+0xf6>
End instruction: 
	58f4:	00051e63          	bnez	a0,5910 <qsort+0xf6>
Length:           1
Taken_Target address:       5910
Taken_Target instruction: 
	5910:	9da2                	add	s11,s11,s0
Not_Taken_Target address:   58f8
Not_Taken_Target instruction: 
	58f8:	140a9563          	bnez	s5,5a42 <qsort+0x228>
Instruction: 
	58f4:	00051e63          	bnez	a0,5910 <qsort+0xf6>


Basic_block Name: 66
In Function:      <qsort>
Start address:    58f8
End address:      58f8
Start instruction: 
	58f8:	140a9563          	bnez	s5,5a42 <qsort+0x228>
End instruction: 
	58f8:	140a9563          	bnez	s5,5a42 <qsort+0x228>
Length:           1
Taken_Target address:       5a42
Taken_Target instruction: 
	5a42:	86ce                	mv	a3,s3
Not_Taken_Target address:   58fc
Not_Taken_Target instruction: 
	58fc:	0009a683          	lw	a3,0(s3)
Instruction: 
	58f8:	140a9563          	bnez	s5,5a42 <qsort+0x228>


Basic_block Name: 67
In Function:      <qsort>
Start address:    58fc
End address:      5912
Start instruction: 
	58fc:	0009a683          	lw	a3,0(s3)
End instruction: 
	5912:	bfd1                	j	58e6 <qsort+0xcc>
Length:           8
Taken_Target address:       58e6
Taken_Target instruction: 
	58e6:	056dea63          	bltu	s11,s6,593a <qsort+0x120>
Not_Taken_Target address:   
Not_Taken_Target instruction: 
	
Instruction: 
	58fc:	0009a683          	lw	a3,0(s3)
	5900:	000da703          	lw	a4,0(s11)
	5904:	00dda023          	sw	a3,0(s11)
	5908:	00e9a023          	sw	a4,0(s3)
	590c:	99a2                	add	s3,s3,s0
	590e:	4b85                	li	s7,1
	5910:	9da2                	add	s11,s11,s0
	5912:	bfd1                	j	58e6 <qsort+0xcc>


Basic_block Name: 199 start_with_taken_target
In Function:      <qsort>
Start address:    5910
End address:      5912
Start instruction: 
	5910:	9da2                	add	s11,s11,s0
End instruction: 
	5912:	bfd1                	j	58e6 <qsort+0xcc>
Length:           2
Taken_Target address:       58e6
Taken_Target instruction: 
	58e6:	056dea63          	bltu	s11,s6,593a <qsort+0x120>
Not_Taken_Target address:   
Not_Taken_Target instruction: 
	
Instruction: 
	5910:	9da2                	add	s11,s11,s0
	5912:	bfd1                	j	58e6 <qsort+0xcc>


Basic_block Name: 68
In Function:      <qsort>
Start address:    5914
End address:      5914
Start instruction: 
	5914:	ed11                	bnez	a0,5930 <qsort+0x116>
End instruction: 
	5914:	ed11                	bnez	a0,5930 <qsort+0x116>
Length:           1
Taken_Target address:       5930
Taken_Target instruction: 
	5930:	84e2                	mv	s1,s8
Not_Taken_Target address:   5916
Not_Taken_Target instruction: 
	5916:	2c0a9263          	bnez	s5,5bda <qsort+0x3c0>
Instruction: 
	5914:	ed11                	bnez	a0,5930 <qsort+0x116>


Basic_block Name: 69
In Function:      <qsort>
Start address:    5916
End address:      5916
Start instruction: 
	5916:	2c0a9263          	bnez	s5,5bda <qsort+0x3c0>
End instruction: 
	5916:	2c0a9263          	bnez	s5,5bda <qsort+0x3c0>
Length:           1
Taken_Target address:       5bda
Taken_Target instruction: 
	5bda:	47e2                	lw	a5,24(sp)
Not_Taken_Target address:   591a
Not_Taken_Target instruction: 
	591a:	47e2                	lw	a5,24(sp)
Instruction: 
	5916:	2c0a9263          	bnez	s5,5bda <qsort+0x3c0>


Basic_block Name: 70
In Function:      <qsort>
Start address:    591a
End address:      5936
Start instruction: 
	591a:	47e2                	lw	a5,24(sp)
End instruction: 
	5936:	fa9df2e3          	bgeu	s11,s1,58da <qsort+0xc0>
Length:           12
Taken_Target address:       58da
Taken_Target instruction: 
	58da:	85ca                	mv	a1,s2
Not_Taken_Target address:   593a
Not_Taken_Target instruction: 
	593a:	0a0b8763          	beqz	s7,59e8 <qsort+0x1ce>
Instruction: 
	591a:	47e2                	lw	a5,24(sp)
	591c:	000b2603          	lw	a2,0(s6)
	5920:	4398                	lw	a4,0(a5)
	5922:	c390                	sw	a2,0(a5)
	5924:	019786b3          	add	a3,a5,s9
	5928:	00eb2023          	sw	a4,0(s6)
	592c:	cc36                	sw	a3,24(sp)
	592e:	4b85                	li	s7,1
	5930:	84e2                	mv	s1,s8
	5932:	9b66                	add	s6,s6,s9
	5934:	9c66                	add	s8,s8,s9
	5936:	fa9df2e3          	bgeu	s11,s1,58da <qsort+0xc0>


Basic_block Name: 200 start_with_taken_target
In Function:      <qsort>
Start address:    5930
End address:      5936
Start instruction: 
	5930:	84e2                	mv	s1,s8
End instruction: 
	5936:	fa9df2e3          	bgeu	s11,s1,58da <qsort+0xc0>
Length:           4
Taken_Target address:       58da
Taken_Target instruction: 
	58da:	85ca                	mv	a1,s2
Not_Taken_Target address:   593a
Not_Taken_Target instruction: 
	593a:	0a0b8763          	beqz	s7,59e8 <qsort+0x1ce>
Instruction: 
	5930:	84e2                	mv	s1,s8
	5932:	9b66                	add	s6,s6,s9
	5934:	9c66                	add	s8,s8,s9
	5936:	fa9df2e3          	bgeu	s11,s1,58da <qsort+0xc0>


Basic_block Name: 71
In Function:      <qsort>
Start address:    593a
End address:      593a
Start instruction: 
	593a:	0a0b8763          	beqz	s7,59e8 <qsort+0x1ce>
End instruction: 
	593a:	0a0b8763          	beqz	s7,59e8 <qsort+0x1ce>
Length:           1
Taken_Target address:       59e8
Taken_Target instruction: 
	59e8:	47c2                	lw	a5,16(sp)
Not_Taken_Target address:   593e
Not_Taken_Target instruction: 
	593e:	47e2                	lw	a5,24(sp)
Instruction: 
	593a:	0a0b8763          	beqz	s7,59e8 <qsort+0x1ce>


Basic_block Name: 72
In Function:      <qsort>
Start address:    593e
End address:      5948
Start instruction: 
	593e:	47e2                	lw	a5,24(sp)
End instruction: 
	5948:	00e85363          	bge	a6,a4,594e <qsort+0x134>
Length:           4
Taken_Target address:       594e
Taken_Target instruction: 
	594e:	47c2                	lw	a5,16(sp)
Not_Taken_Target address:   594c
Not_Taken_Target instruction: 
	594c:	8742                	mv	a4,a6
Instruction: 
	593e:	47e2                	lw	a5,24(sp)
	5940:	40f48833          	sub	a6,s1,a5
	5944:	41278733          	sub	a4,a5,s2
	5948:	00e85363          	bge	a6,a4,594e <qsort+0x134>


Basic_block Name: 73
In Function:      <qsort>
Start address:    594c
End address:      595c
Start instruction: 
	594c:	8742                	mv	a4,a6
End instruction: 
	595c:	00a5f363          	bgeu	a1,a0,5962 <qsort+0x148>
Length:           6
Taken_Target address:       5962
Taken_Target instruction: 
	5962:	2a071163          	bnez	a4,5c04 <qsort+0x3ea>
Not_Taken_Target address:   5960
Not_Taken_Target instruction: 
	5960:	852e                	mv	a0,a1
Instruction: 
	594c:	8742                	mv	a4,a6
	594e:	47c2                	lw	a5,16(sp)
	5950:	41b985b3          	sub	a1,s3,s11
	5954:	413786b3          	sub	a3,a5,s3
	5958:	41968533          	sub	a0,a3,s9
	595c:	00a5f363          	bgeu	a1,a0,5962 <qsort+0x148>


Basic_block Name: 202 start_with_taken_target
In Function:      <qsort>
Start address:    594e
End address:      595c
Start instruction: 
	594e:	47c2                	lw	a5,16(sp)
End instruction: 
	595c:	00a5f363          	bgeu	a1,a0,5962 <qsort+0x148>
Length:           5
Taken_Target address:       5962
Taken_Target instruction: 
	5962:	2a071163          	bnez	a4,5c04 <qsort+0x3ea>
Not_Taken_Target address:   5960
Not_Taken_Target instruction: 
	5960:	852e                	mv	a0,a1
Instruction: 
	594e:	47c2                	lw	a5,16(sp)
	5950:	41b985b3          	sub	a1,s3,s11
	5954:	413786b3          	sub	a3,a5,s3
	5958:	41968533          	sub	a0,a3,s9
	595c:	00a5f363          	bgeu	a1,a0,5962 <qsort+0x148>


Basic_block Name: 74
In Function:      <qsort>
Start address:    5960
End address:      5962
Start instruction: 
	5960:	852e                	mv	a0,a1
End instruction: 
	5962:	2a071163          	bnez	a4,5c04 <qsort+0x3ea>
Length:           2
Taken_Target address:       5c04
Taken_Target instruction: 
	5c04:	4789                	li	a5,2
Not_Taken_Target address:   5966
Not_Taken_Target instruction: 
	5966:	38051b63          	bnez	a0,5cfc <qsort+0x4e2>
Instruction: 
	5960:	852e                	mv	a0,a1
	5962:	2a071163          	bnez	a4,5c04 <qsort+0x3ea>


Basic_block Name: 203 start_with_taken_target
In Function:      <qsort>
Start address:    5962
End address:      5962
Start instruction: 
	5962:	2a071163          	bnez	a4,5c04 <qsort+0x3ea>
End instruction: 
	5962:	2a071163          	bnez	a4,5c04 <qsort+0x3ea>
Length:           1
Taken_Target address:       5c04
Taken_Target instruction: 
	5c04:	4789                	li	a5,2
Not_Taken_Target address:   5966
Not_Taken_Target instruction: 
	5966:	38051b63          	bnez	a0,5cfc <qsort+0x4e2>
Instruction: 
	5962:	2a071163          	bnez	a4,5c04 <qsort+0x3ea>


Basic_block Name: 75
In Function:      <qsort>
Start address:    5966
End address:      5966
Start instruction: 
	5966:	38051b63          	bnez	a0,5cfc <qsort+0x4e2>
End instruction: 
	5966:	38051b63          	bnez	a0,5cfc <qsort+0x4e2>
Length:           1
Taken_Target address:       5cfc
Taken_Target instruction: 
	5cfc:	4742                	lw	a4,16(sp)
Not_Taken_Target address:   596a
Not_Taken_Target instruction: 
	596a:	47c2                	lw	a5,16(sp)
Instruction: 
	5966:	38051b63          	bnez	a0,5cfc <qsort+0x4e2>


Basic_block Name: 76
In Function:      <qsort>
Start address:    596a
End address:      5972
Start instruction: 
	596a:	47c2                	lw	a5,16(sp)
End instruction: 
	5972:	00b87763          	bgeu	a6,a1,5980 <qsort+0x166>
Length:           4
Taken_Target address:       5980
Taken_Target instruction: 
	5980:	24bcf863          	bgeu	s9,a1,5bd0 <qsort+0x3b6>
Not_Taken_Target address:   5976
Not_Taken_Target instruction: 
	5976:	87ca                	mv	a5,s2
Instruction: 
	596a:	47c2                	lw	a5,16(sp)
	596c:	84c2                	mv	s1,a6
	596e:	40b78533          	sub	a0,a5,a1
	5972:	00b87763          	bgeu	a6,a1,5980 <qsort+0x166>


Basic_block Name: 77
In Function:      <qsort>
Start address:    5976
End address:      5980
Start instruction: 
	5976:	87ca                	mv	a5,s2
End instruction: 
	5980:	24bcf863          	bgeu	s9,a1,5bd0 <qsort+0x3b6>
Length:           6
Taken_Target address:       5bd0
Taken_Target instruction: 
	5bd0:	e49cfbe3          	bgeu	s9,s1,5a26 <qsort+0x20c>
Not_Taken_Target address:   5984
Not_Taken_Target instruction: 
	5984:	4772                	lw	a4,28(sp)
Instruction: 
	5976:	87ca                	mv	a5,s2
	5978:	84ae                	mv	s1,a1
	597a:	892a                	mv	s2,a0
	597c:	85c2                	mv	a1,a6
	597e:	853e                	mv	a0,a5
	5980:	24bcf863          	bgeu	s9,a1,5bd0 <qsort+0x3b6>


Basic_block Name: 204 start_with_taken_target
In Function:      <qsort>
Start address:    5980
End address:      5980
Start instruction: 
	5980:	24bcf863          	bgeu	s9,a1,5bd0 <qsort+0x3b6>
End instruction: 
	5980:	24bcf863          	bgeu	s9,a1,5bd0 <qsort+0x3b6>
Length:           1
Taken_Target address:       5bd0
Taken_Target instruction: 
	5bd0:	e49cfbe3          	bgeu	s9,s1,5a26 <qsort+0x20c>
Not_Taken_Target address:   5984
Not_Taken_Target instruction: 
	5984:	4772                	lw	a4,28(sp)
Instruction: 
	5980:	24bcf863          	bgeu	s9,a1,5bd0 <qsort+0x3b6>


Basic_block Name: 78
In Function:      <qsort>
Start address:    5984
End address:      5988
Start instruction: 
	5984:	4772                	lw	a4,28(sp)
End instruction: 
	5988:	36e7e063          	bltu	a5,a4,5ce8 <qsort+0x4ce>
Length:           3
Taken_Target address:       5ce8
Taken_Target instruction: 
	5ce8:	0395d5b3          	divu	a1,a1,s9
Not_Taken_Target address:   598c
Not_Taken_Target instruction: 
	598c:	0394d4b3          	divu	s1,s1,s9
Instruction: 
	5984:	4772                	lw	a4,28(sp)
	5986:	479d                	li	a5,7
	5988:	36e7e063          	bltu	a5,a4,5ce8 <qsort+0x4ce>


Basic_block Name: 79
In Function:      <qsort>
Start address:    598c
End address:      59aa
Start instruction: 
	598c:	0394d4b3          	divu	s1,s1,s9
End instruction: 
	59aa:	bd65                	j	5862 <qsort+0x48>
Length:           11
Taken_Target address:       5862
Taken_Target instruction: 
	5862:	039587b3          	mul	a5,a1,s9
Not_Taken_Target address:   
Not_Taken_Target instruction: 
	
Instruction: 
	598c:	0394d4b3          	divu	s1,s1,s9
	5990:	00371793          	slli	a5,a4,0x3
	5994:	1094                	addi	a3,sp,96
	5996:	97b6                	add	a5,a5,a3
	5998:	0705                	addi	a4,a4,1
	599a:	fd27a023          	sw	s2,-64(a5)
	599e:	ce3a                	sw	a4,28(sp)
	59a0:	892a                	mv	s2,a0
	59a2:	0395d5b3          	divu	a1,a1,s9
	59a6:	fc97a223          	sw	s1,-60(a5)
	59aa:	bd65                	j	5862 <qsort+0x48>


Basic_block Name: 80
In Function:      <qsort>
Start address:    59ac
End address:      59b0
Start instruction: 
	59ac:	85ce                	mv	a1,s3
End instruction: 
	59b0:	9a02                	jalr	s4
Length:           3
Taken_Target address:       FFFF
Taken_Target instruction: 
	FFFFFFFF
Not_Taken_Target address:   
Not_Taken_Target instruction: 
	
Instruction: 
	59ac:	85ce                	mv	a1,s3
	59ae:	8526                	mv	a0,s1
	59b0:	9a02                	jalr	s4


Basic_block Name: 81
In Function:      <qsort>
Start address:    59b2
End address:      59b4
Start instruction: 
	59b2:	8c26                	mv	s8,s1
End instruction: 
	59b4:	f00540e3          	bltz	a0,58b4 <qsort+0x9a>
Length:           2
Taken_Target address:       58b4
Taken_Target instruction: 
	58b4:	100a9563          	bnez	s5,59be <qsort+0x1a4>
Not_Taken_Target address:   59b8
Not_Taken_Target instruction: 
	59b8:	8c4e                	mv	s8,s3
Instruction: 
	59b2:	8c26                	mv	s8,s1
	59b4:	f00540e3          	bltz	a0,58b4 <qsort+0x9a>


Basic_block Name: 82
In Function:      <qsort>
Start address:    59b8
End address:      59ba
Start instruction: 
	59b8:	8c4e                	mv	s8,s3
End instruction: 
	59ba:	ee0a8fe3          	beqz	s5,58b8 <qsort+0x9e>
Length:           2
Taken_Target address:       58b8
Taken_Target instruction: 
	58b8:	000c2683          	lw	a3,0(s8)
Not_Taken_Target address:   59be
Not_Taken_Target instruction: 
	59be:	874a                	mv	a4,s2
Instruction: 
	59b8:	8c4e                	mv	s8,s3
	59ba:	ee0a8fe3          	beqz	s5,58b8 <qsort+0x9e>


Basic_block Name: 83
In Function:      <qsort>
Start address:    59be
End address:      59c0
Start instruction: 
	59be:	874a                	mv	a4,s2
End instruction: 
	59c0:	37aa8f63          	beq	s5,s10,5d3e <qsort+0x524>
Length:           2
Taken_Target address:       5d3e
Taken_Target instruction: 
	5d3e:	46b2                	lw	a3,12(sp)
Not_Taken_Target address:   59c4
Not_Taken_Target instruction: 
	59c4:	000c4603          	lbu	a2,0(s8)
Instruction: 
	59be:	874a                	mv	a4,s2
	59c0:	37aa8f63          	beq	s5,s10,5d3e <qsort+0x524>


Basic_block Name: 84
In Function:      <qsort>
Start address:    59c4
End address:      59de
Start instruction: 
	59c4:	000c4603          	lbu	a2,0(s8)
End instruction: 
	59de:	fed043e3          	bgtz	a3,59c4 <qsort+0x1aa>
Length:           9
Taken_Target address:       59c4
Taken_Target instruction: 
	59c4:	000c4603          	lbu	a2,0(s8)
Not_Taken_Target address:   59e2
Not_Taken_Target instruction: 
	59e2:	47d2                	lw	a5,20(sp)
Instruction: 
	59c4:	000c4603          	lbu	a2,0(s8)
	59c8:	00074683          	lbu	a3,0(a4) # 1000000 <_global_impure_ptr+0xfeb9d8>
	59cc:	47d2                	lw	a5,20(sp)
	59ce:	0705                	addi	a4,a4,1
	59d0:	0c05                	addi	s8,s8,1
	59d2:	fec70fa3          	sb	a2,-1(a4)
	59d6:	fedc0fa3          	sb	a3,-1(s8)
	59da:	40e786b3          	sub	a3,a5,a4
	59de:	fed043e3          	bgtz	a3,59c4 <qsort+0x1aa>


Basic_block Name: 85
In Function:      <qsort>
Start address:    59e2
End address:      59e4
Start instruction: 
	59e2:	47d2                	lw	a5,20(sp)
End instruction: 
	59e4:	eefdf5e3          	bgeu	s11,a5,58ce <qsort+0xb4>
Length:           2
Taken_Target address:       58ce
Taken_Target instruction: 
	58ce:	8b3e                	mv	s6,a5
Not_Taken_Target address:   59e8
Not_Taken_Target instruction: 
	59e8:	47c2                	lw	a5,16(sp)
Instruction: 
	59e2:	47d2                	lw	a5,20(sp)
	59e4:	eefdf5e3          	bgeu	s11,a5,58ce <qsort+0xb4>


Basic_block Name: 86
In Function:      <qsort>
Start address:    59e8
End address:      59ec
Start instruction: 
	59e8:	47c2                	lw	a5,16(sp)
End instruction: 
	59ec:	02f77d63          	bgeu	a4,a5,5a26 <qsort+0x20c>
Length:           3
Taken_Target address:       5a26
Taken_Target instruction: 
	5a26:	47f2                	lw	a5,28(sp)
Not_Taken_Target address:   59f0
Not_Taken_Target instruction: 
	59f0:	4792                	lw	a5,4(sp)
Instruction: 
	59e8:	47c2                	lw	a5,16(sp)
	59ea:	4752                	lw	a4,20(sp)
	59ec:	02f77d63          	bgeu	a4,a5,5a26 <qsort+0x20c>


Basic_block Name: 87
In Function:      <qsort>
Start address:    59f0
End address:      59f2
Start instruction: 
	59f0:	4792                	lw	a5,4(sp)
End instruction: 
	59f2:	02f97463          	bgeu	s2,a5,5a1a <qsort+0x200>
Length:           2
Taken_Target address:       5a1a
Taken_Target instruction: 
	5a1a:	4792                	lw	a5,4(sp)
Not_Taken_Target address:   59f6
Not_Taken_Target instruction: 
	59f6:	89be                	mv	s3,a5
Instruction: 
	59f0:	4792                	lw	a5,4(sp)
	59f2:	02f97463          	bgeu	s2,a5,5a1a <qsort+0x200>


Basic_block Name: 88
In Function:      <qsort>
Start address:    59f6
End address:      5a00
Start instruction: 
	59f6:	89be                	mv	s3,a5
End instruction: 
	5a00:	9a02                	jalr	s4
Length:           6
Taken_Target address:       FFFF
Taken_Target instruction: 
	FFFFFFFF
Not_Taken_Target address:   
Not_Taken_Target instruction: 
	
Instruction: 
	59f6:	89be                	mv	s3,a5
	59f8:	84ce                	mv	s1,s3
	59fa:	99a2                	add	s3,s3,s0
	59fc:	85a6                	mv	a1,s1
	59fe:	854e                	mv	a0,s3
	5a00:	9a02                	jalr	s4


Basic_block Name: 205 start_with_taken_target
In Function:      <qsort>
Start address:    59f8
End address:      5a00
Start instruction: 
	59f8:	84ce                	mv	s1,s3
End instruction: 
	5a00:	9a02                	jalr	s4
Length:           5
Taken_Target address:       FFFF
Taken_Target instruction: 
	FFFFFFFF
Not_Taken_Target address:   
Not_Taken_Target instruction: 
	
Instruction: 
	59f8:	84ce                	mv	s1,s3
	59fa:	99a2                	add	s3,s3,s0
	59fc:	85a6                	mv	a1,s1
	59fe:	854e                	mv	a0,s3
	5a00:	9a02                	jalr	s4


Basic_block Name: 208 start_with_taken_target
In Function:      <qsort>
Start address:    59f8
End address:      5a00
Start instruction: 
	59f8:	84ce                	mv	s1,s3
End instruction: 
	5a00:	9a02                	jalr	s4
Length:           5
Taken_Target address:       FFFF
Taken_Target instruction: 
	FFFFFFFF
Not_Taken_Target address:   
Not_Taken_Target instruction: 
	
Instruction: 
	59f8:	84ce                	mv	s1,s3
	59fa:	99a2                	add	s3,s3,s0
	59fc:	85a6                	mv	a1,s1
	59fe:	854e                	mv	a0,s3
	5a00:	9a02                	jalr	s4


Basic_block Name: 210 start_with_taken_target
In Function:      <qsort>
Start address:    59f8
End address:      5a00
Start instruction: 
	59f8:	84ce                	mv	s1,s3
End instruction: 
	5a00:	9a02                	jalr	s4
Length:           5
Taken_Target address:       FFFF
Taken_Target instruction: 
	FFFFFFFF
Not_Taken_Target address:   
Not_Taken_Target instruction: 
	
Instruction: 
	59f8:	84ce                	mv	s1,s3
	59fa:	99a2                	add	s3,s3,s0
	59fc:	85a6                	mv	a1,s1
	59fe:	854e                	mv	a0,s3
	5a00:	9a02                	jalr	s4


Basic_block Name: 89
In Function:      <qsort>
Start address:    5a02
End address:      5a02
Start instruction: 
	5a02:	00a05c63          	blez	a0,5a1a <qsort+0x200>
End instruction: 
	5a02:	00a05c63          	blez	a0,5a1a <qsort+0x200>
Length:           1
Taken_Target address:       5a1a
Taken_Target instruction: 
	5a1a:	4792                	lw	a5,4(sp)
Not_Taken_Target address:   5a06
Not_Taken_Target instruction: 
	5a06:	0c0a9b63          	bnez	s5,5adc <qsort+0x2c2>
Instruction: 
	5a02:	00a05c63          	blez	a0,5a1a <qsort+0x200>


Basic_block Name: 90
In Function:      <qsort>
Start address:    5a06
End address:      5a06
Start instruction: 
	5a06:	0c0a9b63          	bnez	s5,5adc <qsort+0x2c2>
End instruction: 
	5a06:	0c0a9b63          	bnez	s5,5adc <qsort+0x2c2>
Length:           1
Taken_Target address:       5adc
Taken_Target instruction: 
	5adc:	4722                	lw	a4,8(sp)
Not_Taken_Target address:   5a0a
Not_Taken_Target instruction: 
	5a0a:	0009a703          	lw	a4,0(s3)
Instruction: 
	5a06:	0c0a9b63          	bnez	s5,5adc <qsort+0x2c2>


Basic_block Name: 91
In Function:      <qsort>
Start address:    5a0a
End address:      5a16
Start instruction: 
	5a0a:	0009a703          	lw	a4,0(s3)
End instruction: 
	5a16:	ff3961e3          	bltu	s2,s3,59f8 <qsort+0x1de>
Length:           5
Taken_Target address:       59f8
Taken_Target instruction: 
	59f8:	84ce                	mv	s1,s3
Not_Taken_Target address:   5a1a
Not_Taken_Target instruction: 
	5a1a:	4792                	lw	a5,4(sp)
Instruction: 
	5a0a:	0009a703          	lw	a4,0(s3)
	5a0e:	409c                	lw	a5,0(s1)
	5a10:	c098                	sw	a4,0(s1)
	5a12:	00f9a023          	sw	a5,0(s3)
	5a16:	ff3961e3          	bltu	s2,s3,59f8 <qsort+0x1de>


Basic_block Name: 92
In Function:      <qsort>
Start address:    5a1a
End address:      5a22
Start instruction: 
	5a1a:	4792                	lw	a5,4(sp)
End instruction: 
	5a22:	fce7e7e3          	bltu	a5,a4,59f0 <qsort+0x1d6>
Length:           5
Taken_Target address:       59f0
Taken_Target instruction: 
	59f0:	4792                	lw	a5,4(sp)
Not_Taken_Target address:   5a26
Not_Taken_Target instruction: 
	5a26:	47f2                	lw	a5,28(sp)
Instruction: 
	5a1a:	4792                	lw	a5,4(sp)
	5a1c:	4742                	lw	a4,16(sp)
	5a1e:	97e6                	add	a5,a5,s9
	5a20:	c23e                	sw	a5,4(sp)
	5a22:	fce7e7e3          	bltu	a5,a4,59f0 <qsort+0x1d6>


Basic_block Name: 93
In Function:      <qsort>
Start address:    5a26
End address:      5a28
Start instruction: 
	5a26:	47f2                	lw	a5,28(sp)
End instruction: 
	5a28:	14078063          	beqz	a5,5b68 <qsort+0x34e>
Length:           2
Taken_Target address:       5b68
Taken_Target instruction: 
	5b68:	40fa                	lw	ra,156(sp)
Not_Taken_Target address:   5a2c
Not_Taken_Target instruction: 
	5a2c:	47f2                	lw	a5,28(sp)
Instruction: 
	5a26:	47f2                	lw	a5,28(sp)
	5a28:	14078063          	beqz	a5,5b68 <qsort+0x34e>


Basic_block Name: 94
In Function:      <qsort>
Start address:    5a2c
End address:      5a40
Start instruction: 
	5a2c:	47f2                	lw	a5,28(sp)
End instruction: 
	5a40:	b50d                	j	5862 <qsort+0x48>
Length:           9
Taken_Target address:       5862
Taken_Target instruction: 
	5862:	039587b3          	mul	a5,a1,s9
Not_Taken_Target address:   
Not_Taken_Target instruction: 
	
Instruction: 
	5a2c:	47f2                	lw	a5,28(sp)
	5a2e:	1098                	addi	a4,sp,96
	5a30:	17fd                	addi	a5,a5,-1
	5a32:	ce3e                	sw	a5,28(sp)
	5a34:	078e                	slli	a5,a5,0x3
	5a36:	97ba                	add	a5,a5,a4
	5a38:	fc07a903          	lw	s2,-64(a5)
	5a3c:	fc47a583          	lw	a1,-60(a5)
	5a40:	b50d                	j	5862 <qsort+0x48>


Basic_block Name: 95
In Function:      <qsort>
Start address:    5a42
End address:      5a4a
Start instruction: 
	5a42:	86ce                	mv	a3,s3
End instruction: 
	5a4a:	03aa8f63          	beq	s5,s10,5a88 <qsort+0x26e>
Length:           4
Taken_Target address:       5a88
Taken_Target instruction: 
	5a88:	4632                	lw	a2,12(sp)
Not_Taken_Target address:   5a4e
Not_Taken_Target instruction: 
	5a4e:	0006c583          	lbu	a1,0(a3)
Instruction: 
	5a42:	86ce                	mv	a3,s3
	5a44:	876e                	mv	a4,s11
	5a46:	019d8533          	add	a0,s11,s9
	5a4a:	03aa8f63          	beq	s5,s10,5a88 <qsort+0x26e>


Basic_block Name: 96
In Function:      <qsort>
Start address:    5a4e
End address:      5a66
Start instruction: 
	5a4e:	0006c583          	lbu	a1,0(a3)
End instruction: 
	5a66:	fec044e3          	bgtz	a2,5a4e <qsort+0x234>
Length:           8
Taken_Target address:       5a4e
Taken_Target instruction: 
	5a4e:	0006c583          	lbu	a1,0(a3)
Not_Taken_Target address:   5a6a
Not_Taken_Target instruction: 
	5a6a:	b54d                	j	590c <qsort+0xf2>
Instruction: 
	5a4e:	0006c583          	lbu	a1,0(a3)
	5a52:	00074603          	lbu	a2,0(a4)
	5a56:	0685                	addi	a3,a3,1
	5a58:	0705                	addi	a4,a4,1
	5a5a:	feb70fa3          	sb	a1,-1(a4)
	5a5e:	fec68fa3          	sb	a2,-1(a3)
	5a62:	40e50633          	sub	a2,a0,a4
	5a66:	fec044e3          	bgtz	a2,5a4e <qsort+0x234>


Basic_block Name: 97
In Function:      <qsort>
Start address:    5a6a
End address:      5a6a
Start instruction: 
	5a6a:	b54d                	j	590c <qsort+0xf2>
End instruction: 
	5a6a:	b54d                	j	590c <qsort+0xf2>
Length:           1
Taken_Target address:       590c
Taken_Target instruction: 
	590c:	99a2                	add	s3,s3,s0
Not_Taken_Target address:   
Not_Taken_Target instruction: 
	
Instruction: 
	5a6a:	b54d                	j	590c <qsort+0xf2>


Basic_block Name: 98
In Function:      <qsort>
Start address:    5a6c
End address:      5a6c
Start instruction: 
	5a6c:	020a9a63          	bnez	s5,5aa0 <qsort+0x286>
End instruction: 
	5a6c:	020a9a63          	bnez	s5,5aa0 <qsort+0x286>
Length:           1
Taken_Target address:       5aa0
Taken_Target instruction: 
	5aa0:	876e                	mv	a4,s11
Not_Taken_Target address:   5a70
Not_Taken_Target instruction: 
	5a70:	000da683          	lw	a3,0(s11)
Instruction: 
	5a6c:	020a9a63          	bnez	s5,5aa0 <qsort+0x286>


Basic_block Name: 99
In Function:      <qsort>
Start address:    5a70
End address:      5a86
Start instruction: 
	5a70:	000da683          	lw	a3,0(s11)
End instruction: 
	5a86:	b575                	j	5932 <qsort+0x118>
Length:           8
Taken_Target address:       5932
Taken_Target instruction: 
	5932:	9b66                	add	s6,s6,s9
Not_Taken_Target address:   
Not_Taken_Target instruction: 
	
Instruction: 
	5a70:	000da683          	lw	a3,0(s11)
	5a74:	000b2703          	lw	a4,0(s6)
	5a78:	00db2023          	sw	a3,0(s6)
	5a7c:	00eda023          	sw	a4,0(s11)
	5a80:	84e2                	mv	s1,s8
	5a82:	9da2                	add	s11,s11,s0
	5a84:	4b85                	li	s7,1
	5a86:	b575                	j	5932 <qsort+0x118>


Basic_block Name: 100
In Function:      <qsort>
Start address:    5a88
End address:      5a9a
Start instruction: 
	5a88:	4632                	lw	a2,12(sp)
End instruction: 
	5a9a:	fec048e3          	bgtz	a2,5a8a <qsort+0x270>
Length:           9
Taken_Target address:       5a8a
Taken_Target instruction: 
	5a8a:	4288                	lw	a0,0(a3)
Not_Taken_Target address:   5a9e
Not_Taken_Target instruction: 
	5a9e:	b5bd                	j	590c <qsort+0xf2>
Instruction: 
	5a88:	4632                	lw	a2,12(sp)
	5a8a:	4288                	lw	a0,0(a3)
	5a8c:	430c                	lw	a1,0(a4)
	5a8e:	0691                	addi	a3,a3,4
	5a90:	c308                	sw	a0,0(a4)
	5a92:	167d                	addi	a2,a2,-1
	5a94:	feb6ae23          	sw	a1,-4(a3)
	5a98:	0711                	addi	a4,a4,4
	5a9a:	fec048e3          	bgtz	a2,5a8a <qsort+0x270>


Basic_block Name: 206 start_with_taken_target
In Function:      <qsort>
Start address:    5a8a
End address:      5a9a
Start instruction: 
	5a8a:	4288                	lw	a0,0(a3)
End instruction: 
	5a9a:	fec048e3          	bgtz	a2,5a8a <qsort+0x270>
Length:           8
Taken_Target address:       5a8a
Taken_Target instruction: 
	5a8a:	4288                	lw	a0,0(a3)
Not_Taken_Target address:   5a9e
Not_Taken_Target instruction: 
	5a9e:	b5bd                	j	590c <qsort+0xf2>
Instruction: 
	5a8a:	4288                	lw	a0,0(a3)
	5a8c:	430c                	lw	a1,0(a4)
	5a8e:	0691                	addi	a3,a3,4
	5a90:	c308                	sw	a0,0(a4)
	5a92:	167d                	addi	a2,a2,-1
	5a94:	feb6ae23          	sw	a1,-4(a3)
	5a98:	0711                	addi	a4,a4,4
	5a9a:	fec048e3          	bgtz	a2,5a8a <qsort+0x270>


Basic_block Name: 101
In Function:      <qsort>
Start address:    5a9e
End address:      5a9e
Start instruction: 
	5a9e:	b5bd                	j	590c <qsort+0xf2>
End instruction: 
	5a9e:	b5bd                	j	590c <qsort+0xf2>
Length:           1
Taken_Target address:       590c
Taken_Target instruction: 
	590c:	99a2                	add	s3,s3,s0
Not_Taken_Target address:   
Not_Taken_Target instruction: 
	
Instruction: 
	5a9e:	b5bd                	j	590c <qsort+0xf2>


Basic_block Name: 102
In Function:      <qsort>
Start address:    5aa0
End address:      5aa2
Start instruction: 
	5aa0:	876e                	mv	a4,s11
End instruction: 
	5aa2:	03aa8163          	beq	s5,s10,5ac4 <qsort+0x2aa>
Length:           2
Taken_Target address:       5ac4
Taken_Target instruction: 
	5ac4:	46b2                	lw	a3,12(sp)
Not_Taken_Target address:   5aa6
Not_Taken_Target instruction: 
	5aa6:	00074603          	lbu	a2,0(a4)
Instruction: 
	5aa0:	876e                	mv	a4,s11
	5aa2:	03aa8163          	beq	s5,s10,5ac4 <qsort+0x2aa>


Basic_block Name: 103
In Function:      <qsort>
Start address:    5aa6
End address:      5abe
Start instruction: 
	5aa6:	00074603          	lbu	a2,0(a4)
End instruction: 
	5abe:	fed044e3          	bgtz	a3,5aa6 <qsort+0x28c>
Length:           8
Taken_Target address:       5aa6
Taken_Target instruction: 
	5aa6:	00074603          	lbu	a2,0(a4)
Not_Taken_Target address:   5ac2
Not_Taken_Target instruction: 
	5ac2:	bf7d                	j	5a80 <qsort+0x266>
Instruction: 
	5aa6:	00074603          	lbu	a2,0(a4)
	5aaa:	0004c683          	lbu	a3,0(s1)
	5aae:	0705                	addi	a4,a4,1
	5ab0:	0485                	addi	s1,s1,1
	5ab2:	fec48fa3          	sb	a2,-1(s1)
	5ab6:	fed70fa3          	sb	a3,-1(a4)
	5aba:	409c06b3          	sub	a3,s8,s1
	5abe:	fed044e3          	bgtz	a3,5aa6 <qsort+0x28c>


Basic_block Name: 104
In Function:      <qsort>
Start address:    5ac2
End address:      5ac2
Start instruction: 
	5ac2:	bf7d                	j	5a80 <qsort+0x266>
End instruction: 
	5ac2:	bf7d                	j	5a80 <qsort+0x266>
Length:           1
Taken_Target address:       5a80
Taken_Target instruction: 
	5a80:	84e2                	mv	s1,s8
Not_Taken_Target address:   
Not_Taken_Target instruction: 
	
Instruction: 
	5ac2:	bf7d                	j	5a80 <qsort+0x266>


Basic_block Name: 105
In Function:      <qsort>
Start address:    5ac4
End address:      5ad6
Start instruction: 
	5ac4:	46b2                	lw	a3,12(sp)
End instruction: 
	5ad6:	fed048e3          	bgtz	a3,5ac6 <qsort+0x2ac>
Length:           9
Taken_Target address:       5ac6
Taken_Target instruction: 
	5ac6:	430c                	lw	a1,0(a4)
Not_Taken_Target address:   5ada
Not_Taken_Target instruction: 
	5ada:	b75d                	j	5a80 <qsort+0x266>
Instruction: 
	5ac4:	46b2                	lw	a3,12(sp)
	5ac6:	430c                	lw	a1,0(a4)
	5ac8:	4090                	lw	a2,0(s1)
	5aca:	0711                	addi	a4,a4,4
	5acc:	c08c                	sw	a1,0(s1)
	5ace:	16fd                	addi	a3,a3,-1
	5ad0:	fec72e23          	sw	a2,-4(a4)
	5ad4:	0491                	addi	s1,s1,4
	5ad6:	fed048e3          	bgtz	a3,5ac6 <qsort+0x2ac>


Basic_block Name: 207 start_with_taken_target
In Function:      <qsort>
Start address:    5ac6
End address:      5ad6
Start instruction: 
	5ac6:	430c                	lw	a1,0(a4)
End instruction: 
	5ad6:	fed048e3          	bgtz	a3,5ac6 <qsort+0x2ac>
Length:           8
Taken_Target address:       5ac6
Taken_Target instruction: 
	5ac6:	430c                	lw	a1,0(a4)
Not_Taken_Target address:   5ada
Not_Taken_Target instruction: 
	5ada:	b75d                	j	5a80 <qsort+0x266>
Instruction: 
	5ac6:	430c                	lw	a1,0(a4)
	5ac8:	4090                	lw	a2,0(s1)
	5aca:	0711                	addi	a4,a4,4
	5acc:	c08c                	sw	a1,0(s1)
	5ace:	16fd                	addi	a3,a3,-1
	5ad0:	fec72e23          	sw	a2,-4(a4)
	5ad4:	0491                	addi	s1,s1,4
	5ad6:	fed048e3          	bgtz	a3,5ac6 <qsort+0x2ac>


Basic_block Name: 106
In Function:      <qsort>
Start address:    5ada
End address:      5ada
Start instruction: 
	5ada:	b75d                	j	5a80 <qsort+0x266>
End instruction: 
	5ada:	b75d                	j	5a80 <qsort+0x266>
Length:           1
Taken_Target address:       5a80
Taken_Target instruction: 
	5a80:	84e2                	mv	s1,s8
Not_Taken_Target address:   
Not_Taken_Target instruction: 
	
Instruction: 
	5ada:	b75d                	j	5a80 <qsort+0x266>


Basic_block Name: 107
In Function:      <qsort>
Start address:    5adc
End address:      5ae4
Start instruction: 
	5adc:	4722                	lw	a4,8(sp)
End instruction: 
	5ae4:	03aa8363          	beq	s5,s10,5b0a <qsort+0x2f0>
Length:           4
Taken_Target address:       5b0a
Taken_Target instruction: 
	5b0a:	4732                	lw	a4,12(sp)
Not_Taken_Target address:   5ae8
Not_Taken_Target instruction: 
	5ae8:	0007c683          	lbu	a3,0(a5)
Instruction: 
	5adc:	4722                	lw	a4,8(sp)
	5ade:	87ce                	mv	a5,s3
	5ae0:	00e98633          	add	a2,s3,a4
	5ae4:	03aa8363          	beq	s5,s10,5b0a <qsort+0x2f0>


Basic_block Name: 108
In Function:      <qsort>
Start address:    5ae8
End address:      5b00
Start instruction: 
	5ae8:	0007c683          	lbu	a3,0(a5)
End instruction: 
	5b00:	fee044e3          	bgtz	a4,5ae8 <qsort+0x2ce>
Length:           8
Taken_Target address:       5ae8
Taken_Target instruction: 
	5ae8:	0007c683          	lbu	a3,0(a5)
Not_Taken_Target address:   5b04
Not_Taken_Target instruction: 
	5b04:	ef396ae3          	bltu	s2,s3,59f8 <qsort+0x1de>
Instruction: 
	5ae8:	0007c683          	lbu	a3,0(a5)
	5aec:	0004c703          	lbu	a4,0(s1)
	5af0:	0785                	addi	a5,a5,1
	5af2:	0485                	addi	s1,s1,1
	5af4:	fed48fa3          	sb	a3,-1(s1)
	5af8:	fee78fa3          	sb	a4,-1(a5)
	5afc:	40960733          	sub	a4,a2,s1
	5b00:	fee044e3          	bgtz	a4,5ae8 <qsort+0x2ce>


Basic_block Name: 109
In Function:      <qsort>
Start address:    5b04
End address:      5b04
Start instruction: 
	5b04:	ef396ae3          	bltu	s2,s3,59f8 <qsort+0x1de>
End instruction: 
	5b04:	ef396ae3          	bltu	s2,s3,59f8 <qsort+0x1de>
Length:           1
Taken_Target address:       59f8
Taken_Target instruction: 
	59f8:	84ce                	mv	s1,s3
Not_Taken_Target address:   5b08
Not_Taken_Target instruction: 
	5b08:	bf09                	j	5a1a <qsort+0x200>
Instruction: 
	5b04:	ef396ae3          	bltu	s2,s3,59f8 <qsort+0x1de>


Basic_block Name: 110
In Function:      <qsort>
Start address:    5b08
End address:      5b08
Start instruction: 
	5b08:	bf09                	j	5a1a <qsort+0x200>
End instruction: 
	5b08:	bf09                	j	5a1a <qsort+0x200>
Length:           1
Taken_Target address:       5a1a
Taken_Target instruction: 
	5a1a:	4792                	lw	a5,4(sp)
Not_Taken_Target address:   
Not_Taken_Target instruction: 
	
Instruction: 
	5b08:	bf09                	j	5a1a <qsort+0x200>


Basic_block Name: 111
In Function:      <qsort>
Start address:    5b0a
End address:      5b1c
Start instruction: 
	5b0a:	4732                	lw	a4,12(sp)
End instruction: 
	5b1c:	fee048e3          	bgtz	a4,5b0c <qsort+0x2f2>
Length:           9
Taken_Target address:       5b0c
Taken_Target instruction: 
	5b0c:	4390                	lw	a2,0(a5)
Not_Taken_Target address:   5b20
Not_Taken_Target instruction: 
	5b20:	ed396ce3          	bltu	s2,s3,59f8 <qsort+0x1de>
Instruction: 
	5b0a:	4732                	lw	a4,12(sp)
	5b0c:	4390                	lw	a2,0(a5)
	5b0e:	4094                	lw	a3,0(s1)
	5b10:	0791                	addi	a5,a5,4
	5b12:	c090                	sw	a2,0(s1)
	5b14:	177d                	addi	a4,a4,-1
	5b16:	fed7ae23          	sw	a3,-4(a5)
	5b1a:	0491                	addi	s1,s1,4
	5b1c:	fee048e3          	bgtz	a4,5b0c <qsort+0x2f2>


Basic_block Name: 209 start_with_taken_target
In Function:      <qsort>
Start address:    5b0c
End address:      5b1c
Start instruction: 
	5b0c:	4390                	lw	a2,0(a5)
End instruction: 
	5b1c:	fee048e3          	bgtz	a4,5b0c <qsort+0x2f2>
Length:           8
Taken_Target address:       5b0c
Taken_Target instruction: 
	5b0c:	4390                	lw	a2,0(a5)
Not_Taken_Target address:   5b20
Not_Taken_Target instruction: 
	5b20:	ed396ce3          	bltu	s2,s3,59f8 <qsort+0x1de>
Instruction: 
	5b0c:	4390                	lw	a2,0(a5)
	5b0e:	4094                	lw	a3,0(s1)
	5b10:	0791                	addi	a5,a5,4
	5b12:	c090                	sw	a2,0(s1)
	5b14:	177d                	addi	a4,a4,-1
	5b16:	fed7ae23          	sw	a3,-4(a5)
	5b1a:	0491                	addi	s1,s1,4
	5b1c:	fee048e3          	bgtz	a4,5b0c <qsort+0x2f2>


Basic_block Name: 112
In Function:      <qsort>
Start address:    5b20
End address:      5b20
Start instruction: 
	5b20:	ed396ce3          	bltu	s2,s3,59f8 <qsort+0x1de>
End instruction: 
	5b20:	ed396ce3          	bltu	s2,s3,59f8 <qsort+0x1de>
Length:           1
Taken_Target address:       59f8
Taken_Target instruction: 
	59f8:	84ce                	mv	s1,s3
Not_Taken_Target address:   5b24
Not_Taken_Target instruction: 
	5b24:	bddd                	j	5a1a <qsort+0x200>
Instruction: 
	5b20:	ed396ce3          	bltu	s2,s3,59f8 <qsort+0x1de>


Basic_block Name: 113
In Function:      <qsort>
Start address:    5b24
End address:      5b24
Start instruction: 
	5b24:	bddd                	j	5a1a <qsort+0x200>
End instruction: 
	5b24:	bddd                	j	5a1a <qsort+0x200>
Length:           1
Taken_Target address:       5a1a
Taken_Target instruction: 
	5a1a:	4792                	lw	a5,4(sp)
Not_Taken_Target address:   
Not_Taken_Target instruction: 
	
Instruction: 
	5b24:	bddd                	j	5a1a <qsort+0x200>


Basic_block Name: 114
In Function:      <qsort>
Start address:    5b26
End address:      5b28
Start instruction: 
	5b26:	4712                	lw	a4,4(sp)
End instruction: 
	5b28:	eed77fe3          	bgeu	a4,a3,5a26 <qsort+0x20c>
Length:           2
Taken_Target address:       5a26
Taken_Target instruction: 
	5a26:	47f2                	lw	a5,28(sp)
Not_Taken_Target address:   5b2c
Not_Taken_Target instruction: 
	5b2c:	4792                	lw	a5,4(sp)
Instruction: 
	5b26:	4712                	lw	a4,4(sp)
	5b28:	eed77fe3          	bgeu	a4,a3,5a26 <qsort+0x20c>


Basic_block Name: 115
In Function:      <qsort>
Start address:    5b2c
End address:      5b2e
Start instruction: 
	5b2c:	4792                	lw	a5,4(sp)
End instruction: 
	5b2e:	02f97463          	bgeu	s2,a5,5b56 <qsort+0x33c>
Length:           2
Taken_Target address:       5b56
Taken_Target instruction: 
	5b56:	4792                	lw	a5,4(sp)
Not_Taken_Target address:   5b32
Not_Taken_Target instruction: 
	5b32:	89be                	mv	s3,a5
Instruction: 
	5b2c:	4792                	lw	a5,4(sp)
	5b2e:	02f97463          	bgeu	s2,a5,5b56 <qsort+0x33c>


Basic_block Name: 116
In Function:      <qsort>
Start address:    5b32
End address:      5b3c
Start instruction: 
	5b32:	89be                	mv	s3,a5
End instruction: 
	5b3c:	9a02                	jalr	s4
Length:           6
Taken_Target address:       FFFF
Taken_Target instruction: 
	FFFFFFFF
Not_Taken_Target address:   
Not_Taken_Target instruction: 
	
Instruction: 
	5b32:	89be                	mv	s3,a5
	5b34:	84ce                	mv	s1,s3
	5b36:	99a2                	add	s3,s3,s0
	5b38:	85a6                	mv	a1,s1
	5b3a:	854e                	mv	a0,s3
	5b3c:	9a02                	jalr	s4


Basic_block Name: 211 start_with_taken_target
In Function:      <qsort>
Start address:    5b34
End address:      5b3c
Start instruction: 
	5b34:	84ce                	mv	s1,s3
End instruction: 
	5b3c:	9a02                	jalr	s4
Length:           5
Taken_Target address:       FFFF
Taken_Target instruction: 
	FFFFFFFF
Not_Taken_Target address:   
Not_Taken_Target instruction: 
	
Instruction: 
	5b34:	84ce                	mv	s1,s3
	5b36:	99a2                	add	s3,s3,s0
	5b38:	85a6                	mv	a1,s1
	5b3a:	854e                	mv	a0,s3
	5b3c:	9a02                	jalr	s4


Basic_block Name: 212 start_with_taken_target
In Function:      <qsort>
Start address:    5b34
End address:      5b3c
Start instruction: 
	5b34:	84ce                	mv	s1,s3
End instruction: 
	5b3c:	9a02                	jalr	s4
Length:           5
Taken_Target address:       FFFF
Taken_Target instruction: 
	FFFFFFFF
Not_Taken_Target address:   
Not_Taken_Target instruction: 
	
Instruction: 
	5b34:	84ce                	mv	s1,s3
	5b36:	99a2                	add	s3,s3,s0
	5b38:	85a6                	mv	a1,s1
	5b3a:	854e                	mv	a0,s3
	5b3c:	9a02                	jalr	s4


Basic_block Name: 214 start_with_taken_target
In Function:      <qsort>
Start address:    5b34
End address:      5b3c
Start instruction: 
	5b34:	84ce                	mv	s1,s3
End instruction: 
	5b3c:	9a02                	jalr	s4
Length:           5
Taken_Target address:       FFFF
Taken_Target instruction: 
	FFFFFFFF
Not_Taken_Target address:   
Not_Taken_Target instruction: 
	
Instruction: 
	5b34:	84ce                	mv	s1,s3
	5b36:	99a2                	add	s3,s3,s0
	5b38:	85a6                	mv	a1,s1
	5b3a:	854e                	mv	a0,s3
	5b3c:	9a02                	jalr	s4


Basic_block Name: 117
In Function:      <qsort>
Start address:    5b3e
End address:      5b3e
Start instruction: 
	5b3e:	00a05c63          	blez	a0,5b56 <qsort+0x33c>
End instruction: 
	5b3e:	00a05c63          	blez	a0,5b56 <qsort+0x33c>
Length:           1
Taken_Target address:       5b56
Taken_Target instruction: 
	5b56:	4792                	lw	a5,4(sp)
Not_Taken_Target address:   5b42
Not_Taken_Target instruction: 
	5b42:	040a9263          	bnez	s5,5b86 <qsort+0x36c>
Instruction: 
	5b3e:	00a05c63          	blez	a0,5b56 <qsort+0x33c>


Basic_block Name: 118
In Function:      <qsort>
Start address:    5b42
End address:      5b42
Start instruction: 
	5b42:	040a9263          	bnez	s5,5b86 <qsort+0x36c>
End instruction: 
	5b42:	040a9263          	bnez	s5,5b86 <qsort+0x36c>
Length:           1
Taken_Target address:       5b86
Taken_Target instruction: 
	5b86:	4722                	lw	a4,8(sp)
Not_Taken_Target address:   5b46
Not_Taken_Target instruction: 
	5b46:	0009a703          	lw	a4,0(s3)
Instruction: 
	5b42:	040a9263          	bnez	s5,5b86 <qsort+0x36c>


Basic_block Name: 119
In Function:      <qsort>
Start address:    5b46
End address:      5b52
Start instruction: 
	5b46:	0009a703          	lw	a4,0(s3)
End instruction: 
	5b52:	ff3961e3          	bltu	s2,s3,5b34 <qsort+0x31a>
Length:           5
Taken_Target address:       5b34
Taken_Target instruction: 
	5b34:	84ce                	mv	s1,s3
Not_Taken_Target address:   5b56
Not_Taken_Target instruction: 
	5b56:	4792                	lw	a5,4(sp)
Instruction: 
	5b46:	0009a703          	lw	a4,0(s3)
	5b4a:	409c                	lw	a5,0(s1)
	5b4c:	c098                	sw	a4,0(s1)
	5b4e:	00f9a023          	sw	a5,0(s3)
	5b52:	ff3961e3          	bltu	s2,s3,5b34 <qsort+0x31a>


Basic_block Name: 120
In Function:      <qsort>
Start address:    5b56
End address:      5b5e
Start instruction: 
	5b56:	4792                	lw	a5,4(sp)
End instruction: 
	5b5e:	fce7e7e3          	bltu	a5,a4,5b2c <qsort+0x312>
Length:           5
Taken_Target address:       5b2c
Taken_Target instruction: 
	5b2c:	4792                	lw	a5,4(sp)
Not_Taken_Target address:   5b62
Not_Taken_Target instruction: 
	5b62:	47f2                	lw	a5,28(sp)
Instruction: 
	5b56:	4792                	lw	a5,4(sp)
	5b58:	4742                	lw	a4,16(sp)
	5b5a:	97e6                	add	a5,a5,s9
	5b5c:	c23e                	sw	a5,4(sp)
	5b5e:	fce7e7e3          	bltu	a5,a4,5b2c <qsort+0x312>


Basic_block Name: 121
In Function:      <qsort>
Start address:    5b62
End address:      5b64
Start instruction: 
	5b62:	47f2                	lw	a5,28(sp)
End instruction: 
	5b64:	ec0794e3          	bnez	a5,5a2c <qsort+0x212>
Length:           2
Taken_Target address:       5a2c
Taken_Target instruction: 
	5a2c:	47f2                	lw	a5,28(sp)
Not_Taken_Target address:   5b68
Not_Taken_Target instruction: 
	5b68:	40fa                	lw	ra,156(sp)
Instruction: 
	5b62:	47f2                	lw	a5,28(sp)
	5b64:	ec0794e3          	bnez	a5,5a2c <qsort+0x212>


Basic_block Name: 122
In Function:      <qsort>
Start address:    5b68
End address:      5b84
Start instruction: 
	5b68:	40fa                	lw	ra,156(sp)
End instruction: 
	5b84:	8082                	ret
Length:           15
Taken_Target address:       ['<main> 2928']
Taken_Target instruction: 
	
Not_Taken_Target address:   
Not_Taken_Target instruction: 
	
Instruction: 
	5b68:	40fa                	lw	ra,156(sp)
	5b6a:	446a                	lw	s0,152(sp)
	5b6c:	44da                	lw	s1,148(sp)
	5b6e:	494a                	lw	s2,144(sp)
	5b70:	49ba                	lw	s3,140(sp)
	5b72:	4a2a                	lw	s4,136(sp)
	5b74:	4a9a                	lw	s5,132(sp)
	5b76:	4b0a                	lw	s6,128(sp)
	5b78:	5bf6                	lw	s7,124(sp)
	5b7a:	5c66                	lw	s8,120(sp)
	5b7c:	5cd6                	lw	s9,116(sp)
	5b7e:	5d46                	lw	s10,112(sp)
	5b80:	5db6                	lw	s11,108(sp)
	5b82:	610d                	addi	sp,sp,160
	5b84:	8082                	ret


Basic_block Name: 123
In Function:      <qsort>
Start address:    5b86
End address:      5b8e
Start instruction: 
	5b86:	4722                	lw	a4,8(sp)
End instruction: 
	5b8e:	03aa8363          	beq	s5,s10,5bb4 <qsort+0x39a>
Length:           4
Taken_Target address:       5bb4
Taken_Target instruction: 
	5bb4:	4732                	lw	a4,12(sp)
Not_Taken_Target address:   5b92
Not_Taken_Target instruction: 
	5b92:	0007c683          	lbu	a3,0(a5)
Instruction: 
	5b86:	4722                	lw	a4,8(sp)
	5b88:	87ce                	mv	a5,s3
	5b8a:	00e98633          	add	a2,s3,a4
	5b8e:	03aa8363          	beq	s5,s10,5bb4 <qsort+0x39a>


Basic_block Name: 124
In Function:      <qsort>
Start address:    5b92
End address:      5baa
Start instruction: 
	5b92:	0007c683          	lbu	a3,0(a5)
End instruction: 
	5baa:	fee044e3          	bgtz	a4,5b92 <qsort+0x378>
Length:           8
Taken_Target address:       5b92
Taken_Target instruction: 
	5b92:	0007c683          	lbu	a3,0(a5)
Not_Taken_Target address:   5bae
Not_Taken_Target instruction: 
	5bae:	f93963e3          	bltu	s2,s3,5b34 <qsort+0x31a>
Instruction: 
	5b92:	0007c683          	lbu	a3,0(a5)
	5b96:	0004c703          	lbu	a4,0(s1)
	5b9a:	0785                	addi	a5,a5,1
	5b9c:	0485                	addi	s1,s1,1
	5b9e:	fed48fa3          	sb	a3,-1(s1)
	5ba2:	fee78fa3          	sb	a4,-1(a5)
	5ba6:	40960733          	sub	a4,a2,s1
	5baa:	fee044e3          	bgtz	a4,5b92 <qsort+0x378>


Basic_block Name: 125
In Function:      <qsort>
Start address:    5bae
End address:      5bae
Start instruction: 
	5bae:	f93963e3          	bltu	s2,s3,5b34 <qsort+0x31a>
End instruction: 
	5bae:	f93963e3          	bltu	s2,s3,5b34 <qsort+0x31a>
Length:           1
Taken_Target address:       5b34
Taken_Target instruction: 
	5b34:	84ce                	mv	s1,s3
Not_Taken_Target address:   5bb2
Not_Taken_Target instruction: 
	5bb2:	b755                	j	5b56 <qsort+0x33c>
Instruction: 
	5bae:	f93963e3          	bltu	s2,s3,5b34 <qsort+0x31a>


Basic_block Name: 126
In Function:      <qsort>
Start address:    5bb2
End address:      5bb2
Start instruction: 
	5bb2:	b755                	j	5b56 <qsort+0x33c>
End instruction: 
	5bb2:	b755                	j	5b56 <qsort+0x33c>
Length:           1
Taken_Target address:       5b56
Taken_Target instruction: 
	5b56:	4792                	lw	a5,4(sp)
Not_Taken_Target address:   
Not_Taken_Target instruction: 
	
Instruction: 
	5bb2:	b755                	j	5b56 <qsort+0x33c>


Basic_block Name: 127
In Function:      <qsort>
Start address:    5bb4
End address:      5bc6
Start instruction: 
	5bb4:	4732                	lw	a4,12(sp)
End instruction: 
	5bc6:	fee048e3          	bgtz	a4,5bb6 <qsort+0x39c>
Length:           9
Taken_Target address:       5bb6
Taken_Target instruction: 
	5bb6:	4390                	lw	a2,0(a5)
Not_Taken_Target address:   5bca
Not_Taken_Target instruction: 
	5bca:	f73965e3          	bltu	s2,s3,5b34 <qsort+0x31a>
Instruction: 
	5bb4:	4732                	lw	a4,12(sp)
	5bb6:	4390                	lw	a2,0(a5)
	5bb8:	4094                	lw	a3,0(s1)
	5bba:	0791                	addi	a5,a5,4
	5bbc:	c090                	sw	a2,0(s1)
	5bbe:	177d                	addi	a4,a4,-1
	5bc0:	fed7ae23          	sw	a3,-4(a5)
	5bc4:	0491                	addi	s1,s1,4
	5bc6:	fee048e3          	bgtz	a4,5bb6 <qsort+0x39c>


Basic_block Name: 213 start_with_taken_target
In Function:      <qsort>
Start address:    5bb6
End address:      5bc6
Start instruction: 
	5bb6:	4390                	lw	a2,0(a5)
End instruction: 
	5bc6:	fee048e3          	bgtz	a4,5bb6 <qsort+0x39c>
Length:           8
Taken_Target address:       5bb6
Taken_Target instruction: 
	5bb6:	4390                	lw	a2,0(a5)
Not_Taken_Target address:   5bca
Not_Taken_Target instruction: 
	5bca:	f73965e3          	bltu	s2,s3,5b34 <qsort+0x31a>
Instruction: 
	5bb6:	4390                	lw	a2,0(a5)
	5bb8:	4094                	lw	a3,0(s1)
	5bba:	0791                	addi	a5,a5,4
	5bbc:	c090                	sw	a2,0(s1)
	5bbe:	177d                	addi	a4,a4,-1
	5bc0:	fed7ae23          	sw	a3,-4(a5)
	5bc4:	0491                	addi	s1,s1,4
	5bc6:	fee048e3          	bgtz	a4,5bb6 <qsort+0x39c>


Basic_block Name: 128
In Function:      <qsort>
Start address:    5bca
End address:      5bca
Start instruction: 
	5bca:	f73965e3          	bltu	s2,s3,5b34 <qsort+0x31a>
End instruction: 
	5bca:	f73965e3          	bltu	s2,s3,5b34 <qsort+0x31a>
Length:           1
Taken_Target address:       5b34
Taken_Target instruction: 
	5b34:	84ce                	mv	s1,s3
Not_Taken_Target address:   5bce
Not_Taken_Target instruction: 
	5bce:	b761                	j	5b56 <qsort+0x33c>
Instruction: 
	5bca:	f73965e3          	bltu	s2,s3,5b34 <qsort+0x31a>


Basic_block Name: 129
In Function:      <qsort>
Start address:    5bce
End address:      5bce
Start instruction: 
	5bce:	b761                	j	5b56 <qsort+0x33c>
End instruction: 
	5bce:	b761                	j	5b56 <qsort+0x33c>
Length:           1
Taken_Target address:       5b56
Taken_Target instruction: 
	5b56:	4792                	lw	a5,4(sp)
Not_Taken_Target address:   
Not_Taken_Target instruction: 
	
Instruction: 
	5bce:	b761                	j	5b56 <qsort+0x33c>


Basic_block Name: 130
In Function:      <qsort>
Start address:    5bd0
End address:      5bd0
Start instruction: 
	5bd0:	e49cfbe3          	bgeu	s9,s1,5a26 <qsort+0x20c>
End instruction: 
	5bd0:	e49cfbe3          	bgeu	s9,s1,5a26 <qsort+0x20c>
Length:           1
Taken_Target address:       5a26
Taken_Target instruction: 
	5a26:	47f2                	lw	a5,28(sp)
Not_Taken_Target address:   5bd4
Not_Taken_Target instruction: 
	5bd4:	0394d5b3          	divu	a1,s1,s9
Instruction: 
	5bd0:	e49cfbe3          	bgeu	s9,s1,5a26 <qsort+0x20c>


Basic_block Name: 131
In Function:      <qsort>
Start address:    5bd4
End address:      5bd8
Start instruction: 
	5bd4:	0394d5b3          	divu	a1,s1,s9
End instruction: 
	5bd8:	b169                	j	5862 <qsort+0x48>
Length:           2
Taken_Target address:       5862
Taken_Target instruction: 
	5862:	039587b3          	mul	a5,a1,s9
Not_Taken_Target address:   
Not_Taken_Target instruction: 
	
Instruction: 
	5bd4:	0394d5b3          	divu	a1,s1,s9
	5bd8:	b169                	j	5862 <qsort+0x48>


Basic_block Name: 132
In Function:      <qsort>
Start address:    5bda
End address:      5be2
Start instruction: 
	5bda:	47e2                	lw	a5,24(sp)
End instruction: 
	5be2:	13aa8f63          	beq	s5,s10,5d20 <qsort+0x506>
Length:           4
Taken_Target address:       5d20
Taken_Target instruction: 
	5d20:	46b2                	lw	a3,12(sp)
Not_Taken_Target address:   5be6
Not_Taken_Target instruction: 
	5be6:	0004c583          	lbu	a1,0(s1)
Instruction: 
	5bda:	47e2                	lw	a5,24(sp)
	5bdc:	873e                	mv	a4,a5
	5bde:	019786b3          	add	a3,a5,s9
	5be2:	13aa8f63          	beq	s5,s10,5d20 <qsort+0x506>


Basic_block Name: 133
In Function:      <qsort>
Start address:    5be6
End address:      5bfe
Start instruction: 
	5be6:	0004c583          	lbu	a1,0(s1)
End instruction: 
	5bfe:	fec044e3          	bgtz	a2,5be6 <qsort+0x3cc>
Length:           8
Taken_Target address:       5be6
Taken_Target instruction: 
	5be6:	0004c583          	lbu	a1,0(s1)
Not_Taken_Target address:   5c02
Not_Taken_Target instruction: 
	5c02:	b32d                	j	592c <qsort+0x112>
Instruction: 
	5be6:	0004c583          	lbu	a1,0(s1)
	5bea:	00074603          	lbu	a2,0(a4)
	5bee:	0485                	addi	s1,s1,1
	5bf0:	0705                	addi	a4,a4,1
	5bf2:	feb70fa3          	sb	a1,-1(a4)
	5bf6:	fec48fa3          	sb	a2,-1(s1)
	5bfa:	40e68633          	sub	a2,a3,a4
	5bfe:	fec044e3          	bgtz	a2,5be6 <qsort+0x3cc>


Basic_block Name: 134
In Function:      <qsort>
Start address:    5c02
End address:      5c02
Start instruction: 
	5c02:	b32d                	j	592c <qsort+0x112>
End instruction: 
	5c02:	b32d                	j	592c <qsort+0x112>
Length:           1
Taken_Target address:       592c
Taken_Target instruction: 
	592c:	cc36                	sw	a3,24(sp)
Not_Taken_Target address:   
Not_Taken_Target instruction: 
	
Instruction: 
	5c02:	b32d                	j	592c <qsort+0x112>


Basic_block Name: 135
In Function:      <qsort>
Start address:    5c04
End address:      5c10
Start instruction: 
	5c04:	4789                	li	a5,2
End instruction: 
	5c10:	18fa9963          	bne	s5,a5,5da2 <qsort+0x588>
Length:           5
Taken_Target address:       5da2
Taken_Target instruction: 
	5da2:	8309                	srli	a4,a4,0x2
Not_Taken_Target address:   5c14
Not_Taken_Target instruction: 
	5c14:	0006c703          	lbu	a4,0(a3)
Instruction: 
	5c04:	4789                	li	a5,2
	5c06:	40e486b3          	sub	a3,s1,a4
	5c0a:	864a                	mv	a2,s2
	5c0c:	00e908b3          	add	a7,s2,a4
	5c10:	18fa9963          	bne	s5,a5,5da2 <qsort+0x588>


Basic_block Name: 136
In Function:      <qsort>
Start address:    5c14
End address:      5c2c
Start instruction: 
	5c14:	0006c703          	lbu	a4,0(a3)
End instruction: 
	5c2c:	fef044e3          	bgtz	a5,5c14 <qsort+0x3fa>
Length:           8
Taken_Target address:       5c14
Taken_Target instruction: 
	5c14:	0006c703          	lbu	a4,0(a3)
Not_Taken_Target address:   5c30
Not_Taken_Target instruction: 
	5c30:	d2050de3          	beqz	a0,596a <qsort+0x150>
Instruction: 
	5c14:	0006c703          	lbu	a4,0(a3)
	5c18:	00064783          	lbu	a5,0(a2)
	5c1c:	0685                	addi	a3,a3,1
	5c1e:	0605                	addi	a2,a2,1
	5c20:	fee60fa3          	sb	a4,-1(a2)
	5c24:	fef68fa3          	sb	a5,-1(a3)
	5c28:	40c887b3          	sub	a5,a7,a2
	5c2c:	fef044e3          	bgtz	a5,5c14 <qsort+0x3fa>


Basic_block Name: 137
In Function:      <qsort>
Start address:    5c30
End address:      5c30
Start instruction: 
	5c30:	d2050de3          	beqz	a0,596a <qsort+0x150>
End instruction: 
	5c30:	d2050de3          	beqz	a0,596a <qsort+0x150>
Length:           1
Taken_Target address:       596a
Taken_Target instruction: 
	596a:	47c2                	lw	a5,16(sp)
Not_Taken_Target address:   5c34
Not_Taken_Target instruction: 
	5c34:	47c2                	lw	a5,16(sp)
Instruction: 
	5c30:	d2050de3          	beqz	a0,596a <qsort+0x150>


Basic_block Name: 138
In Function:      <qsort>
Start address:    5c34
End address:      5c56
Start instruction: 
	5c34:	47c2                	lw	a5,16(sp)
End instruction: 
	5c56:	fef044e3          	bgtz	a5,5c3e <qsort+0x424>
Length:           11
Taken_Target address:       5c3e
Taken_Target instruction: 
	5c3e:	00074603          	lbu	a2,0(a4)
Not_Taken_Target address:   5c5a
Not_Taken_Target instruction: 
	5c5a:	bb01                	j	596a <qsort+0x150>
Instruction: 
	5c34:	47c2                	lw	a5,16(sp)
	5c36:	40a78733          	sub	a4,a5,a0
	5c3a:	00a486b3          	add	a3,s1,a0
	5c3e:	00074603          	lbu	a2,0(a4)
	5c42:	0004c783          	lbu	a5,0(s1)
	5c46:	0705                	addi	a4,a4,1
	5c48:	0485                	addi	s1,s1,1
	5c4a:	fec48fa3          	sb	a2,-1(s1)
	5c4e:	fef70fa3          	sb	a5,-1(a4)
	5c52:	409687b3          	sub	a5,a3,s1
	5c56:	fef044e3          	bgtz	a5,5c3e <qsort+0x424>


Basic_block Name: 216 start_with_taken_target
In Function:      <qsort>
Start address:    5c3a
End address:      5c56
Start instruction: 
	5c3a:	00a486b3          	add	a3,s1,a0
End instruction: 
	5c56:	fef044e3          	bgtz	a5,5c3e <qsort+0x424>
Length:           9
Taken_Target address:       5c3e
Taken_Target instruction: 
	5c3e:	00074603          	lbu	a2,0(a4)
Not_Taken_Target address:   5c5a
Not_Taken_Target instruction: 
	5c5a:	bb01                	j	596a <qsort+0x150>
Instruction: 
	5c3a:	00a486b3          	add	a3,s1,a0
	5c3e:	00074603          	lbu	a2,0(a4)
	5c42:	0004c783          	lbu	a5,0(s1)
	5c46:	0705                	addi	a4,a4,1
	5c48:	0485                	addi	s1,s1,1
	5c4a:	fec48fa3          	sb	a2,-1(s1)
	5c4e:	fef70fa3          	sb	a5,-1(a4)
	5c52:	409687b3          	sub	a5,a3,s1
	5c56:	fef044e3          	bgtz	a5,5c3e <qsort+0x424>


Basic_block Name: 215 start_with_taken_target
In Function:      <qsort>
Start address:    5c3e
End address:      5c56
Start instruction: 
	5c3e:	00074603          	lbu	a2,0(a4)
End instruction: 
	5c56:	fef044e3          	bgtz	a5,5c3e <qsort+0x424>
Length:           8
Taken_Target address:       5c3e
Taken_Target instruction: 
	5c3e:	00074603          	lbu	a2,0(a4)
Not_Taken_Target address:   5c5a
Not_Taken_Target instruction: 
	5c5a:	bb01                	j	596a <qsort+0x150>
Instruction: 
	5c3e:	00074603          	lbu	a2,0(a4)
	5c42:	0004c783          	lbu	a5,0(s1)
	5c46:	0705                	addi	a4,a4,1
	5c48:	0485                	addi	s1,s1,1
	5c4a:	fec48fa3          	sb	a2,-1(s1)
	5c4e:	fef70fa3          	sb	a5,-1(a4)
	5c52:	409687b3          	sub	a5,a3,s1
	5c56:	fef044e3          	bgtz	a5,5c3e <qsort+0x424>


Basic_block Name: 139
In Function:      <qsort>
Start address:    5c5a
End address:      5c5a
Start instruction: 
	5c5a:	bb01                	j	596a <qsort+0x150>
End instruction: 
	5c5a:	bb01                	j	596a <qsort+0x150>
Length:           1
Taken_Target address:       596a
Taken_Target instruction: 
	596a:	47c2                	lw	a5,16(sp)
Not_Taken_Target address:   
Not_Taken_Target instruction: 
	
Instruction: 
	5c5a:	bb01                	j	596a <qsort+0x150>


Basic_block Name: 140
In Function:      <qsort>
Start address:    5c5c
End address:      5c5e
Start instruction: 
	5c5c:	8562                	mv	a0,s8
End instruction: 
	5c5e:	9a02                	jalr	s4
Length:           2
Taken_Target address:       FFFF
Taken_Target instruction: 
	FFFFFFFF
Not_Taken_Target address:   
Not_Taken_Target instruction: 
	
Instruction: 
	5c5c:	8562                	mv	a0,s8
	5c5e:	9a02                	jalr	s4


Basic_block Name: 141
In Function:      <qsort>
Start address:    5c60
End address:      5c60
Start instruction: 
	5c60:	c4054ae3          	bltz	a0,58b4 <qsort+0x9a>
End instruction: 
	5c60:	c4054ae3          	bltz	a0,58b4 <qsort+0x9a>
Length:           1
Taken_Target address:       58b4
Taken_Target instruction: 
	58b4:	100a9563          	bnez	s5,59be <qsort+0x1a4>
Not_Taken_Target address:   5c64
Not_Taken_Target instruction: 
	5c64:	85ce                	mv	a1,s3
Instruction: 
	5c60:	c4054ae3          	bltz	a0,58b4 <qsort+0x9a>


Basic_block Name: 142
In Function:      <qsort>
Start address:    5c64
End address:      5c68
Start instruction: 
	5c64:	85ce                	mv	a1,s3
End instruction: 
	5c68:	9a02                	jalr	s4
Length:           3
Taken_Target address:       FFFF
Taken_Target instruction: 
	FFFFFFFF
Not_Taken_Target address:   
Not_Taken_Target instruction: 
	
Instruction: 
	5c64:	85ce                	mv	a1,s3
	5c66:	8526                	mv	a0,s1
	5c68:	9a02                	jalr	s4


Basic_block Name: 143
In Function:      <qsort>
Start address:    5c6a
End address:      5c6c
Start instruction: 
	5c6a:	8c4e                	mv	s8,s3
End instruction: 
	5c6c:	c40544e3          	bltz	a0,58b4 <qsort+0x9a>
Length:           2
Taken_Target address:       58b4
Taken_Target instruction: 
	58b4:	100a9563          	bnez	s5,59be <qsort+0x1a4>
Not_Taken_Target address:   5c70
Not_Taken_Target instruction: 
	5c70:	8c26                	mv	s8,s1
Instruction: 
	5c6a:	8c4e                	mv	s8,s3
	5c6c:	c40544e3          	bltz	a0,58b4 <qsort+0x9a>


Basic_block Name: 144
In Function:      <qsort>
Start address:    5c70
End address:      5c72
Start instruction: 
	5c70:	8c26                	mv	s8,s1
End instruction: 
	5c72:	b189                	j	58b4 <qsort+0x9a>
Length:           2
Taken_Target address:       58b4
Taken_Target instruction: 
	58b4:	100a9563          	bnez	s5,59be <qsort+0x1a4>
Not_Taken_Target address:   
Not_Taken_Target instruction: 
	
Instruction: 
	5c70:	8c26                	mv	s8,s1
	5c72:	b189                	j	58b4 <qsort+0x9a>


Basic_block Name: 145
In Function:      <qsort>
Start address:    5c74
End address:      5c84
Start instruction: 
	5c74:	0035d993          	srli	s3,a1,0x3
End instruction: 
	5c84:	9a02                	jalr	s4
Length:           6
Taken_Target address:       FFFF
Taken_Target instruction: 
	FFFFFFFF
Not_Taken_Target address:   
Not_Taken_Target instruction: 
	
Instruction: 
	5c74:	0035d993          	srli	s3,a1,0x3
	5c78:	039989b3          	mul	s3,s3,s9
	5c7c:	854a                	mv	a0,s2
	5c7e:	013904b3          	add	s1,s2,s3
	5c82:	85a6                	mv	a1,s1
	5c84:	9a02                	jalr	s4


Basic_block Name: 146
In Function:      <qsort>
Start address:    5c86
End address:      5c92
Start instruction: 
	5c86:	00199793          	slli	a5,s3,0x1
End instruction: 
	5c92:	14054763          	bltz	a0,5de0 <qsort+0x5c6>
Length:           5
Taken_Target address:       5de0
Taken_Target instruction: 
	5de0:	8526                	mv	a0,s1
Not_Taken_Target address:   5c96
Not_Taken_Target instruction: 
	5c96:	8526                	mv	a0,s1
Instruction: 
	5c86:	00199793          	slli	a5,s3,0x1
	5c8a:	01348b33          	add	s6,s1,s3
	5c8e:	cc3e                	sw	a5,24(sp)
	5c90:	85da                	mv	a1,s6
	5c92:	14054763          	bltz	a0,5de0 <qsort+0x5c6>


Basic_block Name: 147
In Function:      <qsort>
Start address:    5c96
End address:      5c98
Start instruction: 
	5c96:	8526                	mv	a0,s1
End instruction: 
	5c98:	9a02                	jalr	s4
Length:           2
Taken_Target address:       FFFF
Taken_Target instruction: 
	FFFFFFFF
Not_Taken_Target address:   
Not_Taken_Target instruction: 
	
Instruction: 
	5c96:	8526                	mv	a0,s1
	5c98:	9a02                	jalr	s4


Basic_block Name: 148
In Function:      <qsort>
Start address:    5c9a
End address:      5c9a
Start instruction: 
	5c9a:	0ca05763          	blez	a0,5d68 <qsort+0x54e>
End instruction: 
	5c9a:	0ca05763          	blez	a0,5d68 <qsort+0x54e>
Length:           1
Taken_Target address:       5d68
Taken_Target instruction: 
	5d68:	85da                	mv	a1,s6
Not_Taken_Target address:   5c9e
Not_Taken_Target instruction: 
	5c9e:	413c0b33          	sub	s6,s8,s3
Instruction: 
	5c9a:	0ca05763          	blez	a0,5d68 <qsort+0x54e>


Basic_block Name: 149
In Function:      <qsort>
Start address:    5c9e
End address:      5ca6
Start instruction: 
	5c9e:	413c0b33          	sub	s6,s8,s3
End instruction: 
	5ca6:	9a02                	jalr	s4
Length:           4
Taken_Target address:       FFFF
Taken_Target instruction: 
	FFFFFFFF
Not_Taken_Target address:   
Not_Taken_Target instruction: 
	
Instruction: 
	5c9e:	413c0b33          	sub	s6,s8,s3
	5ca2:	85e2                	mv	a1,s8
	5ca4:	855a                	mv	a0,s6
	5ca6:	9a02                	jalr	s4


Basic_block Name: 150
In Function:      <qsort>
Start address:    5ca8
End address:      5cae
Start instruction: 
	5ca8:	013c0bb3          	add	s7,s8,s3
End instruction: 
	5cae:	0c054e63          	bltz	a0,5d8a <qsort+0x570>
Length:           3
Taken_Target address:       5d8a
Taken_Target instruction: 
	5d8a:	8562                	mv	a0,s8
Not_Taken_Target address:   5cb2
Not_Taken_Target instruction: 
	5cb2:	8562                	mv	a0,s8
Instruction: 
	5ca8:	013c0bb3          	add	s7,s8,s3
	5cac:	85de                	mv	a1,s7
	5cae:	0c054e63          	bltz	a0,5d8a <qsort+0x570>


Basic_block Name: 151
In Function:      <qsort>
Start address:    5cb2
End address:      5cb4
Start instruction: 
	5cb2:	8562                	mv	a0,s8
End instruction: 
	5cb4:	9a02                	jalr	s4
Length:           2
Taken_Target address:       FFFF
Taken_Target instruction: 
	FFFFFFFF
Not_Taken_Target address:   
Not_Taken_Target instruction: 
	
Instruction: 
	5cb2:	8562                	mv	a0,s8
	5cb4:	9a02                	jalr	s4


Basic_block Name: 152
In Function:      <qsort>
Start address:    5cb6
End address:      5cb6
Start instruction: 
	5cb6:	0aa05163          	blez	a0,5d58 <qsort+0x53e>
End instruction: 
	5cb6:	0aa05163          	blez	a0,5d58 <qsort+0x53e>
Length:           1
Taken_Target address:       5d58
Taken_Target instruction: 
	5d58:	85de                	mv	a1,s7
Not_Taken_Target address:   5cba
Not_Taken_Target instruction: 
	5cba:	00199793          	slli	a5,s3,0x1
Instruction: 
	5cb6:	0aa05163          	blez	a0,5d58 <qsort+0x53e>


Basic_block Name: 153
In Function:      <qsort>
Start address:    5cba
End address:      5cc8
Start instruction: 
	5cba:	00199793          	slli	a5,s3,0x1
End instruction: 
	5cc8:	9a02                	jalr	s4
Length:           6
Taken_Target address:       FFFF
Taken_Target instruction: 
	FFFFFFFF
Not_Taken_Target address:   
Not_Taken_Target instruction: 
	
Instruction: 
	5cba:	00199793          	slli	a5,s3,0x1
	5cbe:	40fd8bb3          	sub	s7,s11,a5
	5cc2:	99de                	add	s3,s3,s7
	5cc4:	85ce                	mv	a1,s3
	5cc6:	855e                	mv	a0,s7
	5cc8:	9a02                	jalr	s4


Basic_block Name: 154
In Function:      <qsort>
Start address:    5cca
End address:      5ccc
Start instruction: 
	5cca:	85ee                	mv	a1,s11
End instruction: 
	5ccc:	0e054e63          	bltz	a0,5dc8 <qsort+0x5ae>
Length:           2
Taken_Target address:       5dc8
Taken_Target instruction: 
	5dc8:	854e                	mv	a0,s3
Not_Taken_Target address:   5cd0
Not_Taken_Target instruction: 
	5cd0:	854e                	mv	a0,s3
Instruction: 
	5cca:	85ee                	mv	a1,s11
	5ccc:	0e054e63          	bltz	a0,5dc8 <qsort+0x5ae>


Basic_block Name: 155
In Function:      <qsort>
Start address:    5cd0
End address:      5cd2
Start instruction: 
	5cd0:	854e                	mv	a0,s3
End instruction: 
	5cd2:	9a02                	jalr	s4
Length:           2
Taken_Target address:       FFFF
Taken_Target instruction: 
	FFFFFFFF
Not_Taken_Target address:   
Not_Taken_Target instruction: 
	
Instruction: 
	5cd0:	854e                	mv	a0,s3
	5cd2:	9a02                	jalr	s4


Basic_block Name: 156
In Function:      <qsort>
Start address:    5cd4
End address:      5cd4
Start instruction: 
	5cd4:	bca046e3          	bgtz	a0,58a0 <qsort+0x86>
End instruction: 
	5cd4:	bca046e3          	bgtz	a0,58a0 <qsort+0x86>
Length:           1
Taken_Target address:       58a0
Taken_Target instruction: 
	58a0:	85e2                	mv	a1,s8
Not_Taken_Target address:   5cd8
Not_Taken_Target instruction: 
	5cd8:	85ee                	mv	a1,s11
Instruction: 
	5cd4:	bca046e3          	bgtz	a0,58a0 <qsort+0x86>


Basic_block Name: 157
In Function:      <qsort>
Start address:    5cd8
End address:      5cdc
Start instruction: 
	5cd8:	85ee                	mv	a1,s11
End instruction: 
	5cdc:	9a02                	jalr	s4
Length:           3
Taken_Target address:       FFFF
Taken_Target instruction: 
	FFFFFFFF
Not_Taken_Target address:   
Not_Taken_Target instruction: 
	
Instruction: 
	5cd8:	85ee                	mv	a1,s11
	5cda:	855e                	mv	a0,s7
	5cdc:	9a02                	jalr	s4


Basic_block Name: 158
In Function:      <qsort>
Start address:    5cde
End address:      5ce0
Start instruction: 
	5cde:	89de                	mv	s3,s7
End instruction: 
	5ce0:	bc0540e3          	bltz	a0,58a0 <qsort+0x86>
Length:           2
Taken_Target address:       58a0
Taken_Target instruction: 
	58a0:	85e2                	mv	a1,s8
Not_Taken_Target address:   5ce4
Not_Taken_Target instruction: 
	5ce4:	89ee                	mv	s3,s11
Instruction: 
	5cde:	89de                	mv	s3,s7
	5ce0:	bc0540e3          	bltz	a0,58a0 <qsort+0x86>


Basic_block Name: 159
In Function:      <qsort>
Start address:    5ce4
End address:      5ce6
Start instruction: 
	5ce4:	89ee                	mv	s3,s11
End instruction: 
	5ce6:	be6d                	j	58a0 <qsort+0x86>
Length:           2
Taken_Target address:       58a0
Taken_Target instruction: 
	58a0:	85e2                	mv	a1,s8
Not_Taken_Target address:   
Not_Taken_Target instruction: 
	
Instruction: 
	5ce4:	89ee                	mv	s3,s11
	5ce6:	be6d                	j	58a0 <qsort+0x86>


Basic_block Name: 160
In Function:      <qsort>
Start address:    5ce8
End address:      5cf0
Start instruction: 
	5ce8:	0395d5b3          	divu	a1,a1,s9
End instruction: 
	5cf0:	362d                	jal	581a <qsort>
Length:           4
Taken_Target address:       581a
Taken_Target instruction: 
	581a:	7135                	addi	sp,sp,-160
Not_Taken_Target address:   
Not_Taken_Target instruction: 
	
Instruction: 
	5ce8:	0395d5b3          	divu	a1,a1,s9
	5cec:	86d2                	mv	a3,s4
	5cee:	8666                	mv	a2,s9
	5cf0:	362d                	jal	581a <qsort>


Basic_block Name: 161
In Function:      <qsort>
Start address:    5cf2
End address:      5cf2
Start instruction: 
	5cf2:	d29cfde3          	bgeu	s9,s1,5a2c <qsort+0x212>
End instruction: 
	5cf2:	d29cfde3          	bgeu	s9,s1,5a2c <qsort+0x212>
Length:           1
Taken_Target address:       5a2c
Taken_Target instruction: 
	5a2c:	47f2                	lw	a5,28(sp)
Not_Taken_Target address:   5cf6
Not_Taken_Target instruction: 
	5cf6:	0394d5b3          	divu	a1,s1,s9
Instruction: 
	5cf2:	d29cfde3          	bgeu	s9,s1,5a2c <qsort+0x212>


Basic_block Name: 162
In Function:      <qsort>
Start address:    5cf6
End address:      5cfa
Start instruction: 
	5cf6:	0394d5b3          	divu	a1,s1,s9
End instruction: 
	5cfa:	b6a5                	j	5862 <qsort+0x48>
Length:           2
Taken_Target address:       5862
Taken_Target instruction: 
	5862:	039587b3          	mul	a5,a1,s9
Not_Taken_Target address:   
Not_Taken_Target instruction: 
	
Instruction: 
	5cf6:	0394d5b3          	divu	a1,s1,s9
	5cfa:	b6a5                	j	5862 <qsort+0x48>


Basic_block Name: 163
In Function:      <qsort>
Start address:    5cfc
End address:      5d02
Start instruction: 
	5cfc:	4742                	lw	a4,16(sp)
End instruction: 
	5d02:	f2fa8ce3          	beq	s5,a5,5c3a <qsort+0x420>
Length:           4
Taken_Target address:       5c3a
Taken_Target instruction: 
	5c3a:	00a486b3          	add	a3,s1,a0
Not_Taken_Target address:   5d06
Not_Taken_Target instruction: 
	5d06:	00255693          	srli	a3,a0,0x2
Instruction: 
	5cfc:	4742                	lw	a4,16(sp)
	5cfe:	4789                	li	a5,2
	5d00:	8f09                	sub	a4,a4,a0
	5d02:	f2fa8ce3          	beq	s5,a5,5c3a <qsort+0x420>


Basic_block Name: 164
In Function:      <qsort>
Start address:    5d06
End address:      5d1a
Start instruction: 
	5d06:	00255693          	srli	a3,a0,0x2
End instruction: 
	5d1a:	fed048e3          	bgtz	a3,5d0a <qsort+0x4f0>
Length:           9
Taken_Target address:       5d0a
Taken_Target instruction: 
	5d0a:	4310                	lw	a2,0(a4)
Not_Taken_Target address:   5d1e
Not_Taken_Target instruction: 
	5d1e:	b1b1                	j	596a <qsort+0x150>
Instruction: 
	5d06:	00255693          	srli	a3,a0,0x2
	5d0a:	4310                	lw	a2,0(a4)
	5d0c:	409c                	lw	a5,0(s1)
	5d0e:	0711                	addi	a4,a4,4
	5d10:	c090                	sw	a2,0(s1)
	5d12:	16fd                	addi	a3,a3,-1
	5d14:	fef72e23          	sw	a5,-4(a4)
	5d18:	0491                	addi	s1,s1,4
	5d1a:	fed048e3          	bgtz	a3,5d0a <qsort+0x4f0>


Basic_block Name: 217 start_with_taken_target
In Function:      <qsort>
Start address:    5d0a
End address:      5d1a
Start instruction: 
	5d0a:	4310                	lw	a2,0(a4)
End instruction: 
	5d1a:	fed048e3          	bgtz	a3,5d0a <qsort+0x4f0>
Length:           8
Taken_Target address:       5d0a
Taken_Target instruction: 
	5d0a:	4310                	lw	a2,0(a4)
Not_Taken_Target address:   5d1e
Not_Taken_Target instruction: 
	5d1e:	b1b1                	j	596a <qsort+0x150>
Instruction: 
	5d0a:	4310                	lw	a2,0(a4)
	5d0c:	409c                	lw	a5,0(s1)
	5d0e:	0711                	addi	a4,a4,4
	5d10:	c090                	sw	a2,0(s1)
	5d12:	16fd                	addi	a3,a3,-1
	5d14:	fef72e23          	sw	a5,-4(a4)
	5d18:	0491                	addi	s1,s1,4
	5d1a:	fed048e3          	bgtz	a3,5d0a <qsort+0x4f0>


Basic_block Name: 165
In Function:      <qsort>
Start address:    5d1e
End address:      5d1e
Start instruction: 
	5d1e:	b1b1                	j	596a <qsort+0x150>
End instruction: 
	5d1e:	b1b1                	j	596a <qsort+0x150>
Length:           1
Taken_Target address:       596a
Taken_Target instruction: 
	596a:	47c2                	lw	a5,16(sp)
Not_Taken_Target address:   
Not_Taken_Target instruction: 
	
Instruction: 
	5d1e:	b1b1                	j	596a <qsort+0x150>


Basic_block Name: 166
In Function:      <qsort>
Start address:    5d20
End address:      5d32
Start instruction: 
	5d20:	46b2                	lw	a3,12(sp)
End instruction: 
	5d32:	fed048e3          	bgtz	a3,5d22 <qsort+0x508>
Length:           9
Taken_Target address:       5d22
Taken_Target instruction: 
	5d22:	408c                	lw	a1,0(s1)
Not_Taken_Target address:   5d36
Not_Taken_Target instruction: 
	5d36:	47e2                	lw	a5,24(sp)
Instruction: 
	5d20:	46b2                	lw	a3,12(sp)
	5d22:	408c                	lw	a1,0(s1)
	5d24:	4310                	lw	a2,0(a4)
	5d26:	0491                	addi	s1,s1,4
	5d28:	c30c                	sw	a1,0(a4)
	5d2a:	16fd                	addi	a3,a3,-1
	5d2c:	fec4ae23          	sw	a2,-4(s1)
	5d30:	0711                	addi	a4,a4,4
	5d32:	fed048e3          	bgtz	a3,5d22 <qsort+0x508>


Basic_block Name: 218 start_with_taken_target
In Function:      <qsort>
Start address:    5d22
End address:      5d32
Start instruction: 
	5d22:	408c                	lw	a1,0(s1)
End instruction: 
	5d32:	fed048e3          	bgtz	a3,5d22 <qsort+0x508>
Length:           8
Taken_Target address:       5d22
Taken_Target instruction: 
	5d22:	408c                	lw	a1,0(s1)
Not_Taken_Target address:   5d36
Not_Taken_Target instruction: 
	5d36:	47e2                	lw	a5,24(sp)
Instruction: 
	5d22:	408c                	lw	a1,0(s1)
	5d24:	4310                	lw	a2,0(a4)
	5d26:	0491                	addi	s1,s1,4
	5d28:	c30c                	sw	a1,0(a4)
	5d2a:	16fd                	addi	a3,a3,-1
	5d2c:	fec4ae23          	sw	a2,-4(s1)
	5d30:	0711                	addi	a4,a4,4
	5d32:	fed048e3          	bgtz	a3,5d22 <qsort+0x508>


Basic_block Name: 167
In Function:      <qsort>
Start address:    5d36
End address:      5d3c
Start instruction: 
	5d36:	47e2                	lw	a5,24(sp)
End instruction: 
	5d3c:	bec5                	j	592c <qsort+0x112>
Length:           3
Taken_Target address:       592c
Taken_Target instruction: 
	592c:	cc36                	sw	a3,24(sp)
Not_Taken_Target address:   
Not_Taken_Target instruction: 
	
Instruction: 
	5d36:	47e2                	lw	a5,24(sp)
	5d38:	019786b3          	add	a3,a5,s9
	5d3c:	bec5                	j	592c <qsort+0x112>


Basic_block Name: 168
In Function:      <qsort>
Start address:    5d3e
End address:      5d52
Start instruction: 
	5d3e:	46b2                	lw	a3,12(sp)
End instruction: 
	5d52:	fed047e3          	bgtz	a3,5d40 <qsort+0x526>
Length:           9
Taken_Target address:       5d40
Taken_Target instruction: 
	5d40:	000c2583          	lw	a1,0(s8)
Not_Taken_Target address:   5d56
Not_Taken_Target instruction: 
	5d56:	be8d                	j	58c8 <qsort+0xae>
Instruction: 
	5d3e:	46b2                	lw	a3,12(sp)
	5d40:	000c2583          	lw	a1,0(s8)
	5d44:	4310                	lw	a2,0(a4)
	5d46:	0c11                	addi	s8,s8,4
	5d48:	c30c                	sw	a1,0(a4)
	5d4a:	16fd                	addi	a3,a3,-1
	5d4c:	fecc2e23          	sw	a2,-4(s8)
	5d50:	0711                	addi	a4,a4,4
	5d52:	fed047e3          	bgtz	a3,5d40 <qsort+0x526>


Basic_block Name: 219 start_with_taken_target
In Function:      <qsort>
Start address:    5d40
End address:      5d52
Start instruction: 
	5d40:	000c2583          	lw	a1,0(s8)
End instruction: 
	5d52:	fed047e3          	bgtz	a3,5d40 <qsort+0x526>
Length:           8
Taken_Target address:       5d40
Taken_Target instruction: 
	5d40:	000c2583          	lw	a1,0(s8)
Not_Taken_Target address:   5d56
Not_Taken_Target instruction: 
	5d56:	be8d                	j	58c8 <qsort+0xae>
Instruction: 
	5d40:	000c2583          	lw	a1,0(s8)
	5d44:	4310                	lw	a2,0(a4)
	5d46:	0c11                	addi	s8,s8,4
	5d48:	c30c                	sw	a1,0(a4)
	5d4a:	16fd                	addi	a3,a3,-1
	5d4c:	fecc2e23          	sw	a2,-4(s8)
	5d50:	0711                	addi	a4,a4,4
	5d52:	fed047e3          	bgtz	a3,5d40 <qsort+0x526>


Basic_block Name: 169
In Function:      <qsort>
Start address:    5d56
End address:      5d56
Start instruction: 
	5d56:	be8d                	j	58c8 <qsort+0xae>
End instruction: 
	5d56:	be8d                	j	58c8 <qsort+0xae>
Length:           1
Taken_Target address:       58c8
Taken_Target instruction: 
	58c8:	47d2                	lw	a5,20(sp)
Not_Taken_Target address:   
Not_Taken_Target instruction: 
	
Instruction: 
	5d56:	be8d                	j	58c8 <qsort+0xae>


Basic_block Name: 170
In Function:      <qsort>
Start address:    5d58
End address:      5d5c
Start instruction: 
	5d58:	85de                	mv	a1,s7
End instruction: 
	5d5c:	9a02                	jalr	s4
Length:           3
Taken_Target address:       FFFF
Taken_Target instruction: 
	FFFFFFFF
Not_Taken_Target address:   
Not_Taken_Target instruction: 
	
Instruction: 
	5d58:	85de                	mv	a1,s7
	5d5a:	855a                	mv	a0,s6
	5d5c:	9a02                	jalr	s4


Basic_block Name: 171
In Function:      <qsort>
Start address:    5d5e
End address:      5d60
Start instruction: 
	5d5e:	8c5a                	mv	s8,s6
End instruction: 
	5d60:	f4054de3          	bltz	a0,5cba <qsort+0x4a0>
Length:           2
Taken_Target address:       5cba
Taken_Target instruction: 
	5cba:	00199793          	slli	a5,s3,0x1
Not_Taken_Target address:   5d64
Not_Taken_Target instruction: 
	5d64:	8c5e                	mv	s8,s7
Instruction: 
	5d5e:	8c5a                	mv	s8,s6
	5d60:	f4054de3          	bltz	a0,5cba <qsort+0x4a0>


Basic_block Name: 172
In Function:      <qsort>
Start address:    5d64
End address:      5d66
Start instruction: 
	5d64:	8c5e                	mv	s8,s7
End instruction: 
	5d66:	bf91                	j	5cba <qsort+0x4a0>
Length:           2
Taken_Target address:       5cba
Taken_Target instruction: 
	5cba:	00199793          	slli	a5,s3,0x1
Not_Taken_Target address:   
Not_Taken_Target instruction: 
	
Instruction: 
	5d64:	8c5e                	mv	s8,s7
	5d66:	bf91                	j	5cba <qsort+0x4a0>


Basic_block Name: 173
In Function:      <qsort>
Start address:    5d68
End address:      5d6c
Start instruction: 
	5d68:	85da                	mv	a1,s6
End instruction: 
	5d6c:	9a02                	jalr	s4
Length:           3
Taken_Target address:       FFFF
Taken_Target instruction: 
	FFFFFFFF
Not_Taken_Target address:   
Not_Taken_Target instruction: 
	
Instruction: 
	5d68:	85da                	mv	a1,s6
	5d6a:	854a                	mv	a0,s2
	5d6c:	9a02                	jalr	s4


Basic_block Name: 174
In Function:      <qsort>
Start address:    5d6e
End address:      5d70
Start instruction: 
	5d6e:	84ca                	mv	s1,s2
End instruction: 
	5d70:	f20547e3          	bltz	a0,5c9e <qsort+0x484>
Length:           2
Taken_Target address:       5c9e
Taken_Target instruction: 
	5c9e:	413c0b33          	sub	s6,s8,s3
Not_Taken_Target address:   5d74
Not_Taken_Target instruction: 
	5d74:	84da                	mv	s1,s6
Instruction: 
	5d6e:	84ca                	mv	s1,s2
	5d70:	f20547e3          	bltz	a0,5c9e <qsort+0x484>


Basic_block Name: 175
In Function:      <qsort>
Start address:    5d74
End address:      5d7e
Start instruction: 
	5d74:	84da                	mv	s1,s6
End instruction: 
	5d7e:	9a02                	jalr	s4
Length:           5
Taken_Target address:       FFFF
Taken_Target instruction: 
	FFFFFFFF
Not_Taken_Target address:   
Not_Taken_Target instruction: 
	
Instruction: 
	5d74:	84da                	mv	s1,s6
	5d76:	413c0b33          	sub	s6,s8,s3
	5d7a:	85e2                	mv	a1,s8
	5d7c:	855a                	mv	a0,s6
	5d7e:	9a02                	jalr	s4


Basic_block Name: 176
In Function:      <qsort>
Start address:    5d80
End address:      5d86
Start instruction: 
	5d80:	013c0bb3          	add	s7,s8,s3
End instruction: 
	5d86:	f20556e3          	bgez	a0,5cb2 <qsort+0x498>
Length:           3
Taken_Target address:       5cb2
Taken_Target instruction: 
	5cb2:	8562                	mv	a0,s8
Not_Taken_Target address:   5d8a
Not_Taken_Target instruction: 
	5d8a:	8562                	mv	a0,s8
Instruction: 
	5d80:	013c0bb3          	add	s7,s8,s3
	5d84:	85de                	mv	a1,s7
	5d86:	f20556e3          	bgez	a0,5cb2 <qsort+0x498>


Basic_block Name: 177
In Function:      <qsort>
Start address:    5d8a
End address:      5d8c
Start instruction: 
	5d8a:	8562                	mv	a0,s8
End instruction: 
	5d8c:	9a02                	jalr	s4
Length:           2
Taken_Target address:       FFFF
Taken_Target instruction: 
	FFFFFFFF
Not_Taken_Target address:   
Not_Taken_Target instruction: 
	
Instruction: 
	5d8a:	8562                	mv	a0,s8
	5d8c:	9a02                	jalr	s4


Basic_block Name: 178
In Function:      <qsort>
Start address:    5d8e
End address:      5d8e
Start instruction: 
	5d8e:	f20546e3          	bltz	a0,5cba <qsort+0x4a0>
End instruction: 
	5d8e:	f20546e3          	bltz	a0,5cba <qsort+0x4a0>
Length:           1
Taken_Target address:       5cba
Taken_Target instruction: 
	5cba:	00199793          	slli	a5,s3,0x1
Not_Taken_Target address:   5d92
Not_Taken_Target instruction: 
	5d92:	85de                	mv	a1,s7
Instruction: 
	5d8e:	f20546e3          	bltz	a0,5cba <qsort+0x4a0>


Basic_block Name: 179
In Function:      <qsort>
Start address:    5d92
End address:      5d96
Start instruction: 
	5d92:	85de                	mv	a1,s7
End instruction: 
	5d96:	9a02                	jalr	s4
Length:           3
Taken_Target address:       FFFF
Taken_Target instruction: 
	FFFFFFFF
Not_Taken_Target address:   
Not_Taken_Target instruction: 
	
Instruction: 
	5d92:	85de                	mv	a1,s7
	5d94:	855a                	mv	a0,s6
	5d96:	9a02                	jalr	s4


Basic_block Name: 180
In Function:      <qsort>
Start address:    5d98
End address:      5d9a
Start instruction: 
	5d98:	8c5e                	mv	s8,s7
End instruction: 
	5d9a:	f20540e3          	bltz	a0,5cba <qsort+0x4a0>
Length:           2
Taken_Target address:       5cba
Taken_Target instruction: 
	5cba:	00199793          	slli	a5,s3,0x1
Not_Taken_Target address:   5d9e
Not_Taken_Target instruction: 
	5d9e:	8c5a                	mv	s8,s6
Instruction: 
	5d98:	8c5e                	mv	s8,s7
	5d9a:	f20540e3          	bltz	a0,5cba <qsort+0x4a0>


Basic_block Name: 181
In Function:      <qsort>
Start address:    5d9e
End address:      5da0
Start instruction: 
	5d9e:	8c5a                	mv	s8,s6
End instruction: 
	5da0:	bf29                	j	5cba <qsort+0x4a0>
Length:           2
Taken_Target address:       5cba
Taken_Target instruction: 
	5cba:	00199793          	slli	a5,s3,0x1
Not_Taken_Target address:   
Not_Taken_Target instruction: 
	
Instruction: 
	5d9e:	8c5a                	mv	s8,s6
	5da0:	bf29                	j	5cba <qsort+0x4a0>


Basic_block Name: 182
In Function:      <qsort>
Start address:    5da2
End address:      5db8
Start instruction: 
	5da2:	8309                	srli	a4,a4,0x2
End instruction: 
	5db8:	fee046e3          	bgtz	a4,5da4 <qsort+0x58a>
Length:           9
Taken_Target address:       5da4
Taken_Target instruction: 
	5da4:	0006a883          	lw	a7,0(a3)
Not_Taken_Target address:   5dbc
Not_Taken_Target instruction: 
	5dbc:	ba0507e3          	beqz	a0,596a <qsort+0x150>
Instruction: 
	5da2:	8309                	srli	a4,a4,0x2
	5da4:	0006a883          	lw	a7,0(a3)
	5da8:	421c                	lw	a5,0(a2)
	5daa:	0691                	addi	a3,a3,4
	5dac:	01162023          	sw	a7,0(a2)
	5db0:	177d                	addi	a4,a4,-1
	5db2:	fef6ae23          	sw	a5,-4(a3)
	5db6:	0611                	addi	a2,a2,4
	5db8:	fee046e3          	bgtz	a4,5da4 <qsort+0x58a>


Basic_block Name: 220 start_with_taken_target
In Function:      <qsort>
Start address:    5da4
End address:      5db8
Start instruction: 
	5da4:	0006a883          	lw	a7,0(a3)
End instruction: 
	5db8:	fee046e3          	bgtz	a4,5da4 <qsort+0x58a>
Length:           8
Taken_Target address:       5da4
Taken_Target instruction: 
	5da4:	0006a883          	lw	a7,0(a3)
Not_Taken_Target address:   5dbc
Not_Taken_Target instruction: 
	5dbc:	ba0507e3          	beqz	a0,596a <qsort+0x150>
Instruction: 
	5da4:	0006a883          	lw	a7,0(a3)
	5da8:	421c                	lw	a5,0(a2)
	5daa:	0691                	addi	a3,a3,4
	5dac:	01162023          	sw	a7,0(a2)
	5db0:	177d                	addi	a4,a4,-1
	5db2:	fef6ae23          	sw	a5,-4(a3)
	5db6:	0611                	addi	a2,a2,4
	5db8:	fee046e3          	bgtz	a4,5da4 <qsort+0x58a>


Basic_block Name: 183
In Function:      <qsort>
Start address:    5dbc
End address:      5dbc
Start instruction: 
	5dbc:	ba0507e3          	beqz	a0,596a <qsort+0x150>
End instruction: 
	5dbc:	ba0507e3          	beqz	a0,596a <qsort+0x150>
Length:           1
Taken_Target address:       596a
Taken_Target instruction: 
	596a:	47c2                	lw	a5,16(sp)
Not_Taken_Target address:   5dc0
Not_Taken_Target instruction: 
	5dc0:	47c2                	lw	a5,16(sp)
Instruction: 
	5dbc:	ba0507e3          	beqz	a0,596a <qsort+0x150>


Basic_block Name: 184
In Function:      <qsort>
Start address:    5dc0
End address:      5dc6
Start instruction: 
	5dc0:	47c2                	lw	a5,16(sp)
End instruction: 
	5dc6:	b781                	j	5d06 <qsort+0x4ec>
Length:           3
Taken_Target address:       5d06
Taken_Target instruction: 
	5d06:	00255693          	srli	a3,a0,0x2
Not_Taken_Target address:   
Not_Taken_Target instruction: 
	
Instruction: 
	5dc0:	47c2                	lw	a5,16(sp)
	5dc2:	40a78733          	sub	a4,a5,a0
	5dc6:	b781                	j	5d06 <qsort+0x4ec>


Basic_block Name: 185
In Function:      <qsort>
Start address:    5dc8
End address:      5dca
Start instruction: 
	5dc8:	854e                	mv	a0,s3
End instruction: 
	5dca:	9a02                	jalr	s4
Length:           2
Taken_Target address:       FFFF
Taken_Target instruction: 
	FFFFFFFF
Not_Taken_Target address:   
Not_Taken_Target instruction: 
	
Instruction: 
	5dc8:	854e                	mv	a0,s3
	5dca:	9a02                	jalr	s4


Basic_block Name: 186
In Function:      <qsort>
Start address:    5dcc
End address:      5dcc
Start instruction: 
	5dcc:	ac054ae3          	bltz	a0,58a0 <qsort+0x86>
End instruction: 
	5dcc:	ac054ae3          	bltz	a0,58a0 <qsort+0x86>
Length:           1
Taken_Target address:       58a0
Taken_Target instruction: 
	58a0:	85e2                	mv	a1,s8
Not_Taken_Target address:   5dd0
Not_Taken_Target instruction: 
	5dd0:	85ee                	mv	a1,s11
Instruction: 
	5dcc:	ac054ae3          	bltz	a0,58a0 <qsort+0x86>


Basic_block Name: 187
In Function:      <qsort>
Start address:    5dd0
End address:      5dd4
Start instruction: 
	5dd0:	85ee                	mv	a1,s11
End instruction: 
	5dd4:	9a02                	jalr	s4
Length:           3
Taken_Target address:       FFFF
Taken_Target instruction: 
	FFFFFFFF
Not_Taken_Target address:   
Not_Taken_Target instruction: 
	
Instruction: 
	5dd0:	85ee                	mv	a1,s11
	5dd2:	855e                	mv	a0,s7
	5dd4:	9a02                	jalr	s4


Basic_block Name: 188
In Function:      <qsort>
Start address:    5dd6
End address:      5dd8
Start instruction: 
	5dd6:	89ee                	mv	s3,s11
End instruction: 
	5dd8:	ac0544e3          	bltz	a0,58a0 <qsort+0x86>
Length:           2
Taken_Target address:       58a0
Taken_Target instruction: 
	58a0:	85e2                	mv	a1,s8
Not_Taken_Target address:   5ddc
Not_Taken_Target instruction: 
	5ddc:	89de                	mv	s3,s7
Instruction: 
	5dd6:	89ee                	mv	s3,s11
	5dd8:	ac0544e3          	bltz	a0,58a0 <qsort+0x86>


Basic_block Name: 189
In Function:      <qsort>
Start address:    5ddc
End address:      5dde
Start instruction: 
	5ddc:	89de                	mv	s3,s7
End instruction: 
	5dde:	b4c9                	j	58a0 <qsort+0x86>
Length:           2
Taken_Target address:       58a0
Taken_Target instruction: 
	58a0:	85e2                	mv	a1,s8
Not_Taken_Target address:   
Not_Taken_Target instruction: 
	
Instruction: 
	5ddc:	89de                	mv	s3,s7
	5dde:	b4c9                	j	58a0 <qsort+0x86>


Basic_block Name: 190
In Function:      <qsort>
Start address:    5de0
End address:      5de2
Start instruction: 
	5de0:	8526                	mv	a0,s1
End instruction: 
	5de2:	9a02                	jalr	s4
Length:           2
Taken_Target address:       FFFF
Taken_Target instruction: 
	FFFFFFFF
Not_Taken_Target address:   
Not_Taken_Target instruction: 
	
Instruction: 
	5de0:	8526                	mv	a0,s1
	5de2:	9a02                	jalr	s4


Basic_block Name: 191
In Function:      <qsort>
Start address:    5de4
End address:      5de4
Start instruction: 
	5de4:	ea054de3          	bltz	a0,5c9e <qsort+0x484>
End instruction: 
	5de4:	ea054de3          	bltz	a0,5c9e <qsort+0x484>
Length:           1
Taken_Target address:       5c9e
Taken_Target instruction: 
	5c9e:	413c0b33          	sub	s6,s8,s3
Not_Taken_Target address:   5de8
Not_Taken_Target instruction: 
	5de8:	85da                	mv	a1,s6
Instruction: 
	5de4:	ea054de3          	bltz	a0,5c9e <qsort+0x484>


Basic_block Name: 192
In Function:      <qsort>
Start address:    5de8
End address:      5dec
Start instruction: 
	5de8:	85da                	mv	a1,s6
End instruction: 
	5dec:	9a02                	jalr	s4
Length:           3
Taken_Target address:       FFFF
Taken_Target instruction: 
	FFFFFFFF
Not_Taken_Target address:   
Not_Taken_Target instruction: 
	
Instruction: 
	5de8:	85da                	mv	a1,s6
	5dea:	854a                	mv	a0,s2
	5dec:	9a02                	jalr	s4


Basic_block Name: 193
In Function:      <qsort>
Start address:    5dee
End address:      5df0
Start instruction: 
	5dee:	84da                	mv	s1,s6
End instruction: 
	5df0:	ea0547e3          	bltz	a0,5c9e <qsort+0x484>
Length:           2
Taken_Target address:       5c9e
Taken_Target instruction: 
	5c9e:	413c0b33          	sub	s6,s8,s3
Not_Taken_Target address:   5df4
Not_Taken_Target instruction: 
	5df4:	84ca                	mv	s1,s2
Instruction: 
	5dee:	84da                	mv	s1,s6
	5df0:	ea0547e3          	bltz	a0,5c9e <qsort+0x484>


Basic_block Name: 194
In Function:      <qsort>
Start address:    5df4
End address:      5df6
Start instruction: 
	5df4:	84ca                	mv	s1,s2
End instruction: 
	5df6:	b565                	j	5c9e <qsort+0x484>
Length:           2
Taken_Target address:       5c9e
Taken_Target instruction: 
	5c9e:	413c0b33          	sub	s6,s8,s3
Not_Taken_Target address:   
Not_Taken_Target instruction: 
	
Instruction: 
	5df4:	84ca                	mv	s1,s2
	5df6:	b565                	j	5c9e <qsort+0x484>


