Basic_block Name: 0
In Function:      <__start>
Start address:    0
End address:      24
Start instruction: 
	0:	200c0117          	auipc	sp,0x200c0
End instruction: 
	24:	00028b63          	beqz	t0,3a <L_loop0_done>
Length:           10
Taken_Target address:       3a
Taken_Target instruction: 
	3a:	20001197          	auipc	gp,0x20001
Not_Taken_Target address:   28
Not_Taken_Target instruction: 
	28:	0001a303          	lw	t1,0(gp)
Instruction: 
	0:	200c0117          	auipc	sp,0x200c0
	4:	ff810113          	addi	sp,sp,-8 # 200bfff8 <__kernel_stack>
	8:	00006197          	auipc	gp,0x6
	c:	20418193          	addi	gp,gp,516 # 620c <__erodata>
	10:	20000217          	auipc	tp,0x20000
	14:	ff020213          	addi	tp,tp,-16 # 20000000 <__data_start__>
	18:	20001297          	auipc	t0,0x20001
	1c:	a2028293          	addi	t0,t0,-1504 # 20000a38 <__malloc_sbrk_base>
	20:	404282b3          	sub	t0,t0,tp
	24:	00028b63          	beqz	t0,3a <L_loop0_done>


Basic_block Name: 1
In Function:      <L_loop0>
Start address:    28
End address:      36
Start instruction: 
	28:	0001a303          	lw	t1,0(gp)
End instruction: 
	36:	fe0299e3          	bnez	t0,28 <L_loop0>
Length:           6
Taken_Target address:       28
Taken_Target instruction: 
	28:	0001a303          	lw	t1,0(gp)
Not_Taken_Target address:   3a
Not_Taken_Target instruction: 
	3a:	20001197          	auipc	gp,0x20001
Instruction: 
	28:	0001a303          	lw	t1,0(gp)
	2c:	00622023          	sw	t1,0(tp) # 0 <__start>
	30:	0191                	addi	gp,gp,4
	32:	0211                	addi	tp,tp,4
	34:	12f1                	addi	t0,t0,-4
	36:	fe0299e3          	bnez	t0,28 <L_loop0>


Basic_block Name: 2
In Function:      <L_loop0_done>
Start address:    3a
End address:      50
Start instruction: 
	3a:	20001197          	auipc	gp,0x20001
End instruction: 
	50:	00020863          	beqz	tp,60 <L_loop1_done>
Length:           7
Taken_Target address:       60
Taken_Target instruction: 
	60:	00000197          	auipc	gp,0x0
Not_Taken_Target address:   54
Not_Taken_Target instruction: 
	54:	0051a023          	sw	t0,0(gp)
Instruction: 
	3a:	20001197          	auipc	gp,0x20001
	3e:	9fe18193          	addi	gp,gp,-1538 # 20000a38 <__malloc_sbrk_base>
	42:	20003217          	auipc	tp,0x20003
	46:	a2a20213          	addi	tp,tp,-1494 # 20002a6c <heap_end>
	4a:	4281                	li	t0,0
	4c:	40320233          	sub	tp,tp,gp
	50:	00020863          	beqz	tp,60 <L_loop1_done>


Basic_block Name: 3
In Function:      <L_loop1>
Start address:    54
End address:      5c
Start instruction: 
	54:	0051a023          	sw	t0,0(gp)
End instruction: 
	5c:	fe021ce3          	bnez	tp,54 <L_loop1>
Length:           4
Taken_Target address:       54
Taken_Target instruction: 
	54:	0051a023          	sw	t0,0(gp)
Not_Taken_Target address:   60
Not_Taken_Target instruction: 
	60:	00000197          	auipc	gp,0x0
Instruction: 
	54:	0051a023          	sw	t0,0(gp)
	58:	0191                	addi	gp,gp,4
	5a:	1271                	addi	tp,tp,-4
	5c:	fe021ce3          	bnez	tp,54 <L_loop1>


Basic_block Name: 4
In Function:      <L_loop1_done>
Start address:    60
End address:      dc
Start instruction: 
	60:	00000197          	auipc	gp,0x0
End instruction: 
	dc:	7c519073          	csrw	mhint,gp
Length:           36
Taken_Target address:       
Taken_Target instruction: 
	
Not_Taken_Target address:   
Not_Taken_Target instruction: 
	
Instruction: 
	60:	00000197          	auipc	gp,0x0
	64:	0e018193          	addi	gp,gp,224 # 140 <trap_handler>
	68:	30519073          	csrw	mtvec,gp
	6c:	00000197          	auipc	gp,0x0
	70:	11418193          	addi	gp,gp,276 # 180 <vector_table>
	74:	04018193          	addi	gp,gp,64
	78:	30719073          	csrw	mtvt,gp
	7c:	effff7b7          	lui	a5,0xeffff
	80:	00020837          	lui	a6,0x20
	84:	0107a023          	sw	a6,0(a5) # effff000 <__kernel_stack+0xcff3f008>
	88:	48b1                	li	a7,12
	8a:	0117a223          	sw	a7,4(a5)
	8e:	00040837          	lui	a6,0x40
	92:	48b1                	li	a7,12
	94:	0107a423          	sw	a6,8(a5)
	98:	0117a623          	sw	a7,12(a5)
	9c:	00050837          	lui	a6,0x50
	a0:	48c1                	li	a7,16
	a2:	0107a823          	sw	a6,16(a5)
	a6:	0117aa23          	sw	a7,20(a5)
	aa:	400117b7          	lui	a5,0x40011
	ae:	0ff00813          	li	a6,255
	b2:	0107a023          	sw	a6,0(a5) # 40011000 <__kernel_stack+0x1ff51008>
	b6:	480d                	li	a6,3
	b8:	0107a423          	sw	a6,8(a5)
	bc:	0047a803          	lw	a6,4(a5)
	c0:	08800193          	li	gp,136
	c4:	30019073          	csrw	mstatus,gp
	c8:	6189                	lui	gp,0x2
	ca:	3001a073          	csrs	mstatus,gp
	ce:	6185                	lui	gp,0x1
	d0:	03f18193          	addi	gp,gp,63 # 103f <_ftoa+0x221>
	d4:	7c119073          	csrw	mhcr,gp
	d8:	6191                	lui	gp,0x4
	da:	01b1                	addi	gp,gp,12
	dc:	7c519073          	csrw	mhint,gp


Basic_block Name: 5
In Function:      <__to_main>
Start address:    e0
End address:      e0
Start instruction: 
	e0:	4fe020ef          	jal	ra,25de <main>
End instruction: 
	e0:	4fe020ef          	jal	ra,25de <main>
Length:           1
Taken_Target address:       25de
Taken_Target instruction: 
	25de:	6795                	lui	a5,0x5
Not_Taken_Target address:   
Not_Taken_Target instruction: 
	
Instruction: 
	e0:	4fe020ef          	jal	ra,25de <main>


Basic_block Name: 6
In Function:      <puts>
Start address:    1860
End address:      186c
Start instruction: 
	1860:	1141                	addi	sp,sp,-16
End instruction: 
	186c:	c901                	beqz	a0,187c <puts+0x1c>
Length:           6
Taken_Target address:       187c
Taken_Target instruction: 
	187c:	55fd                	li	a1,-1
Not_Taken_Target address:   186e
Not_Taken_Target instruction: 
	186e:	55fd                	li	a1,-1
Instruction: 
	1860:	1141                	addi	sp,sp,-16
	1862:	c422                	sw	s0,8(sp)
	1864:	c606                	sw	ra,12(sp)
	1866:	842a                	mv	s0,a0
	1868:	00054503          	lbu	a0,0(a0)
	186c:	c901                	beqz	a0,187c <puts+0x1c>


Basic_block Name: 7
In Function:      <puts>
Start address:    186e
End address:      1872
Start instruction: 
	186e:	55fd                	li	a1,-1
End instruction: 
	1872:	618000ef          	jal	ra,1e8a <fputc>
Length:           3
Taken_Target address:       1e8a
Taken_Target instruction: 
	1e8a:	0ff57593          	andi	a1,a0,255
Not_Taken_Target address:   
Not_Taken_Target instruction: 
	
Instruction: 
	186e:	55fd                	li	a1,-1
	1870:	0405                	addi	s0,s0,1
	1872:	618000ef          	jal	ra,1e8a <fputc>


Basic_block Name: 8
In Function:      <puts>
Start address:    1876
End address:      187a
Start instruction: 
	1876:	00044503          	lbu	a0,0(s0)
End instruction: 
	187a:	f975                	bnez	a0,186e <puts+0xe>
Length:           2
Taken_Target address:       186e
Taken_Target instruction: 
	186e:	55fd                	li	a1,-1
Not_Taken_Target address:   187c
Not_Taken_Target instruction: 
	187c:	55fd                	li	a1,-1
Instruction: 
	1876:	00044503          	lbu	a0,0(s0)
	187a:	f975                	bnez	a0,186e <puts+0xe>


Basic_block Name: 9
In Function:      <puts>
Start address:    187c
End address:      1880
Start instruction: 
	187c:	55fd                	li	a1,-1
End instruction: 
	1880:	60a000ef          	jal	ra,1e8a <fputc>
Length:           3
Taken_Target address:       1e8a
Taken_Target instruction: 
	1e8a:	0ff57593          	andi	a1,a0,255
Not_Taken_Target address:   
Not_Taken_Target instruction: 
	
Instruction: 
	187c:	55fd                	li	a1,-1
	187e:	4529                	li	a0,10
	1880:	60a000ef          	jal	ra,1e8a <fputc>


Basic_block Name: 10
In Function:      <puts>
Start address:    1884
End address:      188c
Start instruction: 
	1884:	40b2                	lw	ra,12(sp)
End instruction: 
	188c:	8082                	ret
Length:           5
Taken_Target address:       ['<main> 2618']
Taken_Target instruction: 
	
Not_Taken_Target address:   
Not_Taken_Target instruction: 
	
Instruction: 
	1884:	40b2                	lw	ra,12(sp)
	1886:	4422                	lw	s0,8(sp)
	1888:	4501                	li	a0,0
	188a:	0141                	addi	sp,sp,16
	188c:	8082                	ret


Basic_block Name: 11
In Function:      <sglib___rbtree_fix_left_insertion_discrepancy>
Start address:    1984
End address:      198e
Start instruction: 
	1984:	411c                	lw	a5,0(a0)
End instruction: 
	198e:	c691                	beqz	a3,199a <sglib___rbtree_fix_left_insertion_discrepancy+0x16>
Length:           5
Taken_Target address:       199a
Taken_Target instruction: 
	199a:	4685                	li	a3,1
Not_Taken_Target address:   1990
Not_Taken_Target instruction: 
	1990:	0046c583          	lbu	a1,4(a3)
Instruction: 
	1984:	411c                	lw	a5,0(a0)
	1986:	4798                	lw	a4,8(a5)
	1988:	47d4                	lw	a3,12(a5)
	198a:	00474603          	lbu	a2,4(a4)
	198e:	c691                	beqz	a3,199a <sglib___rbtree_fix_left_insertion_discrepancy+0x16>


Basic_block Name: 12
In Function:      <sglib___rbtree_fix_left_insertion_discrepancy>
Start address:    1990
End address:      1996
Start instruction: 
	1990:	0046c583          	lbu	a1,4(a3)
End instruction: 
	1996:	05058263          	beq	a1,a6,19da <sglib___rbtree_fix_left_insertion_discrepancy+0x56>
Length:           3
Taken_Target address:       19da
Taken_Target instruction: 
	19da:	fcb613e3          	bne	a2,a1,19a0 <sglib___rbtree_fix_left_insertion_discrepancy+0x1c>
Not_Taken_Target address:   199a
Not_Taken_Target instruction: 
	199a:	4685                	li	a3,1
Instruction: 
	1990:	0046c583          	lbu	a1,4(a3)
	1994:	4805                	li	a6,1
	1996:	05058263          	beq	a1,a6,19da <sglib___rbtree_fix_left_insertion_discrepancy+0x56>


Basic_block Name: 13
In Function:      <sglib___rbtree_fix_left_insertion_discrepancy>
Start address:    199a
End address:      199c
Start instruction: 
	199a:	4685                	li	a3,1
End instruction: 
	199c:	00d60363          	beq	a2,a3,19a2 <sglib___rbtree_fix_left_insertion_discrepancy+0x1e>
Length:           2
Taken_Target address:       19a2
Taken_Target instruction: 
	19a2:	470c                	lw	a1,8(a4)
Not_Taken_Target address:   19a0
Not_Taken_Target instruction: 
	19a0:	8082                	ret
Instruction: 
	199a:	4685                	li	a3,1
	199c:	00d60363          	beq	a2,a3,19a2 <sglib___rbtree_fix_left_insertion_discrepancy+0x1e>


Basic_block Name: 14
In Function:      <sglib___rbtree_fix_left_insertion_discrepancy>
Start address:    19a0
End address:      19a0
Start instruction: 
	19a0:	8082                	ret
End instruction: 
	19a0:	8082                	ret
Length:           1
Taken_Target address:       ['<sglib___rbtree_delete_rightmost_leaf> 1de4']
Taken_Target instruction: 
	
Not_Taken_Target address:   
Not_Taken_Target instruction: 
	
Instruction: 
	19a0:	8082                	ret


Basic_block Name: 15
In Function:      <sglib___rbtree_fix_left_insertion_discrepancy>
Start address:    19a2
End address:      19a6
Start instruction: 
	19a2:	470c                	lw	a1,8(a4)
End instruction: 
	19a6:	c589                	beqz	a1,19b0 <sglib___rbtree_fix_left_insertion_discrepancy+0x2c>
Length:           3
Taken_Target address:       19b0
Taken_Target instruction: 
	19b0:	fe0688e3          	beqz	a3,19a0 <sglib___rbtree_fix_left_insertion_discrepancy+0x1c>
Not_Taken_Target address:   19a8
Not_Taken_Target instruction: 
	19a8:	0045c803          	lbu	a6,4(a1)
Instruction: 
	19a2:	470c                	lw	a1,8(a4)
	19a4:	4754                	lw	a3,12(a4)
	19a6:	c589                	beqz	a1,19b0 <sglib___rbtree_fix_left_insertion_discrepancy+0x2c>


Basic_block Name: 16
In Function:      <sglib___rbtree_fix_left_insertion_discrepancy>
Start address:    19a8
End address:      19ac
Start instruction: 
	19a8:	0045c803          	lbu	a6,4(a1)
End instruction: 
	19ac:	04c80e63          	beq	a6,a2,1a08 <sglib___rbtree_fix_left_insertion_discrepancy+0x84>
Length:           2
Taken_Target address:       1a08
Taken_Target instruction: 
	1a08:	c794                	sw	a3,8(a5)
Not_Taken_Target address:   19b0
Not_Taken_Target instruction: 
	19b0:	fe0688e3          	beqz	a3,19a0 <sglib___rbtree_fix_left_insertion_discrepancy+0x1c>
Instruction: 
	19a8:	0045c803          	lbu	a6,4(a1)
	19ac:	04c80e63          	beq	a6,a2,1a08 <sglib___rbtree_fix_left_insertion_discrepancy+0x84>


Basic_block Name: 17
In Function:      <sglib___rbtree_fix_left_insertion_discrepancy>
Start address:    19b0
End address:      19b0
Start instruction: 
	19b0:	fe0688e3          	beqz	a3,19a0 <sglib___rbtree_fix_left_insertion_discrepancy+0x1c>
End instruction: 
	19b0:	fe0688e3          	beqz	a3,19a0 <sglib___rbtree_fix_left_insertion_discrepancy+0x1c>
Length:           1
Taken_Target address:       19a0
Taken_Target instruction: 
	19a0:	8082                	ret
Not_Taken_Target address:   19b4
Not_Taken_Target instruction: 
	19b4:	0046c603          	lbu	a2,4(a3)
Instruction: 
	19b0:	fe0688e3          	beqz	a3,19a0 <sglib___rbtree_fix_left_insertion_discrepancy+0x1c>


Basic_block Name: 18
In Function:      <sglib___rbtree_fix_left_insertion_discrepancy>
Start address:    19b4
End address:      19ba
Start instruction: 
	19b4:	0046c603          	lbu	a2,4(a3)
End instruction: 
	19ba:	feb613e3          	bne	a2,a1,19a0 <sglib___rbtree_fix_left_insertion_discrepancy+0x1c>
Length:           3
Taken_Target address:       19a0
Taken_Target instruction: 
	19a0:	8082                	ret
Not_Taken_Target address:   19be
Not_Taken_Target instruction: 
	19be:	0086a803          	lw	a6,8(a3)
Instruction: 
	19b4:	0046c603          	lbu	a2,4(a3)
	19b8:	4585                	li	a1,1
	19ba:	feb613e3          	bne	a2,a1,19a0 <sglib___rbtree_fix_left_insertion_discrepancy+0x1c>


Basic_block Name: 19
In Function:      <sglib___rbtree_fix_left_insertion_discrepancy>
Start address:    19be
End address:      19d8
Start instruction: 
	19be:	0086a803          	lw	a6,8(a3)
End instruction: 
	19d8:	8082                	ret
Length:           10
Taken_Target address:       ['<sglib___rbtree_delete_rightmost_leaf> 1de4']
Taken_Target instruction: 
	
Not_Taken_Target address:   
Not_Taken_Target instruction: 
	
Instruction: 
	19be:	0086a803          	lw	a6,8(a3)
	19c2:	46cc                	lw	a1,12(a3)
	19c4:	01072623          	sw	a6,12(a4)
	19c8:	c78c                	sw	a1,8(a5)
	19ca:	c698                	sw	a4,8(a3)
	19cc:	c6dc                	sw	a5,12(a3)
	19ce:	00068223          	sb	zero,4(a3)
	19d2:	00c78223          	sb	a2,4(a5)
	19d6:	c114                	sw	a3,0(a0)
	19d8:	8082                	ret


Basic_block Name: 20
In Function:      <sglib___rbtree_fix_left_insertion_discrepancy>
Start address:    19da
End address:      19da
Start instruction: 
	19da:	fcb613e3          	bne	a2,a1,19a0 <sglib___rbtree_fix_left_insertion_discrepancy+0x1c>
End instruction: 
	19da:	fcb613e3          	bne	a2,a1,19a0 <sglib___rbtree_fix_left_insertion_discrepancy+0x1c>
Length:           1
Taken_Target address:       19a0
Taken_Target instruction: 
	19a0:	8082                	ret
Not_Taken_Target address:   19de
Not_Taken_Target instruction: 
	19de:	470c                	lw	a1,8(a4)
Instruction: 
	19da:	fcb613e3          	bne	a2,a1,19a0 <sglib___rbtree_fix_left_insertion_discrepancy+0x1c>


Basic_block Name: 21
In Function:      <sglib___rbtree_fix_left_insertion_discrepancy>
Start address:    19de
End address:      19e0
Start instruction: 
	19de:	470c                	lw	a1,8(a4)
End instruction: 
	19e0:	c589                	beqz	a1,19ea <sglib___rbtree_fix_left_insertion_discrepancy+0x66>
Length:           2
Taken_Target address:       19ea
Taken_Target instruction: 
	19ea:	4750                	lw	a2,12(a4)
Not_Taken_Target address:   19e2
Not_Taken_Target instruction: 
	19e2:	0045c583          	lbu	a1,4(a1)
Instruction: 
	19de:	470c                	lw	a1,8(a4)
	19e0:	c589                	beqz	a1,19ea <sglib___rbtree_fix_left_insertion_discrepancy+0x66>


Basic_block Name: 22
In Function:      <sglib___rbtree_fix_left_insertion_discrepancy>
Start address:    19e2
End address:      19e6
Start instruction: 
	19e2:	0045c583          	lbu	a1,4(a1)
End instruction: 
	19e6:	00c58963          	beq	a1,a2,19f8 <sglib___rbtree_fix_left_insertion_discrepancy+0x74>
Length:           2
Taken_Target address:       19f8
Taken_Target instruction: 
	19f8:	00070223          	sb	zero,4(a4)
Not_Taken_Target address:   19ea
Not_Taken_Target instruction: 
	19ea:	4750                	lw	a2,12(a4)
Instruction: 
	19e2:	0045c583          	lbu	a1,4(a1)
	19e6:	00c58963          	beq	a1,a2,19f8 <sglib___rbtree_fix_left_insertion_discrepancy+0x74>


Basic_block Name: 23
In Function:      <sglib___rbtree_fix_left_insertion_discrepancy>
Start address:    19ea
End address:      19ec
Start instruction: 
	19ea:	4750                	lw	a2,12(a4)
End instruction: 
	19ec:	da55                	beqz	a2,19a0 <sglib___rbtree_fix_left_insertion_discrepancy+0x1c>
Length:           2
Taken_Target address:       19a0
Taken_Target instruction: 
	19a0:	8082                	ret
Not_Taken_Target address:   19ee
Not_Taken_Target instruction: 
	19ee:	00464583          	lbu	a1,4(a2)
Instruction: 
	19ea:	4750                	lw	a2,12(a4)
	19ec:	da55                	beqz	a2,19a0 <sglib___rbtree_fix_left_insertion_discrepancy+0x1c>


Basic_block Name: 24
In Function:      <sglib___rbtree_fix_left_insertion_discrepancy>
Start address:    19ee
End address:      19f4
Start instruction: 
	19ee:	00464583          	lbu	a1,4(a2)
End instruction: 
	19f4:	fac596e3          	bne	a1,a2,19a0 <sglib___rbtree_fix_left_insertion_discrepancy+0x1c>
Length:           3
Taken_Target address:       19a0
Taken_Target instruction: 
	19a0:	8082                	ret
Not_Taken_Target address:   19f8
Not_Taken_Target instruction: 
	19f8:	00070223          	sb	zero,4(a4)
Instruction: 
	19ee:	00464583          	lbu	a1,4(a2)
	19f2:	4605                	li	a2,1
	19f4:	fac596e3          	bne	a1,a2,19a0 <sglib___rbtree_fix_left_insertion_discrepancy+0x1c>


Basic_block Name: 25
In Function:      <sglib___rbtree_fix_left_insertion_discrepancy>
Start address:    19f8
End address:      1a06
Start instruction: 
	19f8:	00070223          	sb	zero,4(a4)
End instruction: 
	1a06:	8082                	ret
Length:           5
Taken_Target address:       ['<sglib___rbtree_delete_rightmost_leaf> 1de4']
Taken_Target instruction: 
	
Not_Taken_Target address:   
Not_Taken_Target instruction: 
	
Instruction: 
	19f8:	00070223          	sb	zero,4(a4)
	19fc:	00068223          	sb	zero,4(a3)
	1a00:	4705                	li	a4,1
	1a02:	00e78223          	sb	a4,4(a5)
	1a06:	8082                	ret


Basic_block Name: 26
In Function:      <sglib___rbtree_fix_left_insertion_discrepancy>
Start address:    1a08
End address:      1a18
Start instruction: 
	1a08:	c794                	sw	a3,8(a5)
End instruction: 
	1a18:	8082                	ret
Length:           7
Taken_Target address:       ['<sglib___rbtree_delete_rightmost_leaf> 1de4']
Taken_Target instruction: 
	
Not_Taken_Target address:   
Not_Taken_Target instruction: 
	
Instruction: 
	1a08:	c794                	sw	a3,8(a5)
	1a0a:	c70c                	sw	a1,8(a4)
	1a0c:	c75c                	sw	a5,12(a4)
	1a0e:	00c78223          	sb	a2,4(a5)
	1a12:	00070223          	sb	zero,4(a4)
	1a16:	c118                	sw	a4,0(a0)
	1a18:	8082                	ret


Basic_block Name: 27
In Function:      <sglib___rbtree_fix_right_insertion_discrepancy>
Start address:    1a1a
End address:      1a24
Start instruction: 
	1a1a:	411c                	lw	a5,0(a0)
End instruction: 
	1a24:	c691                	beqz	a3,1a30 <sglib___rbtree_fix_right_insertion_discrepancy+0x16>
Length:           5
Taken_Target address:       1a30
Taken_Target instruction: 
	1a30:	4685                	li	a3,1
Not_Taken_Target address:   1a26
Not_Taken_Target instruction: 
	1a26:	0046c583          	lbu	a1,4(a3)
Instruction: 
	1a1a:	411c                	lw	a5,0(a0)
	1a1c:	47d8                	lw	a4,12(a5)
	1a1e:	4794                	lw	a3,8(a5)
	1a20:	00474603          	lbu	a2,4(a4)
	1a24:	c691                	beqz	a3,1a30 <sglib___rbtree_fix_right_insertion_discrepancy+0x16>


Basic_block Name: 28
In Function:      <sglib___rbtree_fix_right_insertion_discrepancy>
Start address:    1a26
End address:      1a2c
Start instruction: 
	1a26:	0046c583          	lbu	a1,4(a3)
End instruction: 
	1a2c:	05058263          	beq	a1,a6,1a70 <sglib___rbtree_fix_right_insertion_discrepancy+0x56>
Length:           3
Taken_Target address:       1a70
Taken_Target instruction: 
	1a70:	fcb613e3          	bne	a2,a1,1a36 <sglib___rbtree_fix_right_insertion_discrepancy+0x1c>
Not_Taken_Target address:   1a30
Not_Taken_Target instruction: 
	1a30:	4685                	li	a3,1
Instruction: 
	1a26:	0046c583          	lbu	a1,4(a3)
	1a2a:	4805                	li	a6,1
	1a2c:	05058263          	beq	a1,a6,1a70 <sglib___rbtree_fix_right_insertion_discrepancy+0x56>


Basic_block Name: 29
In Function:      <sglib___rbtree_fix_right_insertion_discrepancy>
Start address:    1a30
End address:      1a32
Start instruction: 
	1a30:	4685                	li	a3,1
End instruction: 
	1a32:	00d60363          	beq	a2,a3,1a38 <sglib___rbtree_fix_right_insertion_discrepancy+0x1e>
Length:           2
Taken_Target address:       1a38
Taken_Target instruction: 
	1a38:	474c                	lw	a1,12(a4)
Not_Taken_Target address:   1a36
Not_Taken_Target instruction: 
	1a36:	8082                	ret
Instruction: 
	1a30:	4685                	li	a3,1
	1a32:	00d60363          	beq	a2,a3,1a38 <sglib___rbtree_fix_right_insertion_discrepancy+0x1e>


Basic_block Name: 30
In Function:      <sglib___rbtree_fix_right_insertion_discrepancy>
Start address:    1a36
End address:      1a36
Start instruction: 
	1a36:	8082                	ret
End instruction: 
	1a36:	8082                	ret
Length:           1
Taken_Target address:       ['<benchmark> 253e']
Taken_Target instruction: 
	
Not_Taken_Target address:   
Not_Taken_Target instruction: 
	
Instruction: 
	1a36:	8082                	ret


Basic_block Name: 31
In Function:      <sglib___rbtree_fix_right_insertion_discrepancy>
Start address:    1a38
End address:      1a3c
Start instruction: 
	1a38:	474c                	lw	a1,12(a4)
End instruction: 
	1a3c:	c589                	beqz	a1,1a46 <sglib___rbtree_fix_right_insertion_discrepancy+0x2c>
Length:           3
Taken_Target address:       1a46
Taken_Target instruction: 
	1a46:	fe0688e3          	beqz	a3,1a36 <sglib___rbtree_fix_right_insertion_discrepancy+0x1c>
Not_Taken_Target address:   1a3e
Not_Taken_Target instruction: 
	1a3e:	0045c803          	lbu	a6,4(a1)
Instruction: 
	1a38:	474c                	lw	a1,12(a4)
	1a3a:	4714                	lw	a3,8(a4)
	1a3c:	c589                	beqz	a1,1a46 <sglib___rbtree_fix_right_insertion_discrepancy+0x2c>


Basic_block Name: 32
In Function:      <sglib___rbtree_fix_right_insertion_discrepancy>
Start address:    1a3e
End address:      1a42
Start instruction: 
	1a3e:	0045c803          	lbu	a6,4(a1)
End instruction: 
	1a42:	04c80e63          	beq	a6,a2,1a9e <sglib___rbtree_fix_right_insertion_discrepancy+0x84>
Length:           2
Taken_Target address:       1a9e
Taken_Target instruction: 
	1a9e:	c7d4                	sw	a3,12(a5)
Not_Taken_Target address:   1a46
Not_Taken_Target instruction: 
	1a46:	fe0688e3          	beqz	a3,1a36 <sglib___rbtree_fix_right_insertion_discrepancy+0x1c>
Instruction: 
	1a3e:	0045c803          	lbu	a6,4(a1)
	1a42:	04c80e63          	beq	a6,a2,1a9e <sglib___rbtree_fix_right_insertion_discrepancy+0x84>


Basic_block Name: 33
In Function:      <sglib___rbtree_fix_right_insertion_discrepancy>
Start address:    1a46
End address:      1a46
Start instruction: 
	1a46:	fe0688e3          	beqz	a3,1a36 <sglib___rbtree_fix_right_insertion_discrepancy+0x1c>
End instruction: 
	1a46:	fe0688e3          	beqz	a3,1a36 <sglib___rbtree_fix_right_insertion_discrepancy+0x1c>
Length:           1
Taken_Target address:       1a36
Taken_Target instruction: 
	1a36:	8082                	ret
Not_Taken_Target address:   1a4a
Not_Taken_Target instruction: 
	1a4a:	0046c603          	lbu	a2,4(a3)
Instruction: 
	1a46:	fe0688e3          	beqz	a3,1a36 <sglib___rbtree_fix_right_insertion_discrepancy+0x1c>


Basic_block Name: 34
In Function:      <sglib___rbtree_fix_right_insertion_discrepancy>
Start address:    1a4a
End address:      1a50
Start instruction: 
	1a4a:	0046c603          	lbu	a2,4(a3)
End instruction: 
	1a50:	feb613e3          	bne	a2,a1,1a36 <sglib___rbtree_fix_right_insertion_discrepancy+0x1c>
Length:           3
Taken_Target address:       1a36
Taken_Target instruction: 
	1a36:	8082                	ret
Not_Taken_Target address:   1a54
Not_Taken_Target instruction: 
	1a54:	00c6a803          	lw	a6,12(a3)
Instruction: 
	1a4a:	0046c603          	lbu	a2,4(a3)
	1a4e:	4585                	li	a1,1
	1a50:	feb613e3          	bne	a2,a1,1a36 <sglib___rbtree_fix_right_insertion_discrepancy+0x1c>


Basic_block Name: 35
In Function:      <sglib___rbtree_fix_right_insertion_discrepancy>
Start address:    1a54
End address:      1a6e
Start instruction: 
	1a54:	00c6a803          	lw	a6,12(a3)
End instruction: 
	1a6e:	8082                	ret
Length:           10
Taken_Target address:       ['<benchmark> 253e']
Taken_Target instruction: 
	
Not_Taken_Target address:   
Not_Taken_Target instruction: 
	
Instruction: 
	1a54:	00c6a803          	lw	a6,12(a3)
	1a58:	468c                	lw	a1,8(a3)
	1a5a:	01072423          	sw	a6,8(a4)
	1a5e:	c7cc                	sw	a1,12(a5)
	1a60:	c6d8                	sw	a4,12(a3)
	1a62:	c69c                	sw	a5,8(a3)
	1a64:	00068223          	sb	zero,4(a3)
	1a68:	00c78223          	sb	a2,4(a5)
	1a6c:	c114                	sw	a3,0(a0)
	1a6e:	8082                	ret


Basic_block Name: 36
In Function:      <sglib___rbtree_fix_right_insertion_discrepancy>
Start address:    1a70
End address:      1a70
Start instruction: 
	1a70:	fcb613e3          	bne	a2,a1,1a36 <sglib___rbtree_fix_right_insertion_discrepancy+0x1c>
End instruction: 
	1a70:	fcb613e3          	bne	a2,a1,1a36 <sglib___rbtree_fix_right_insertion_discrepancy+0x1c>
Length:           1
Taken_Target address:       1a36
Taken_Target instruction: 
	1a36:	8082                	ret
Not_Taken_Target address:   1a74
Not_Taken_Target instruction: 
	1a74:	474c                	lw	a1,12(a4)
Instruction: 
	1a70:	fcb613e3          	bne	a2,a1,1a36 <sglib___rbtree_fix_right_insertion_discrepancy+0x1c>


Basic_block Name: 37
In Function:      <sglib___rbtree_fix_right_insertion_discrepancy>
Start address:    1a74
End address:      1a76
Start instruction: 
	1a74:	474c                	lw	a1,12(a4)
End instruction: 
	1a76:	c589                	beqz	a1,1a80 <sglib___rbtree_fix_right_insertion_discrepancy+0x66>
Length:           2
Taken_Target address:       1a80
Taken_Target instruction: 
	1a80:	4710                	lw	a2,8(a4)
Not_Taken_Target address:   1a78
Not_Taken_Target instruction: 
	1a78:	0045c583          	lbu	a1,4(a1)
Instruction: 
	1a74:	474c                	lw	a1,12(a4)
	1a76:	c589                	beqz	a1,1a80 <sglib___rbtree_fix_right_insertion_discrepancy+0x66>


Basic_block Name: 38
In Function:      <sglib___rbtree_fix_right_insertion_discrepancy>
Start address:    1a78
End address:      1a7c
Start instruction: 
	1a78:	0045c583          	lbu	a1,4(a1)
End instruction: 
	1a7c:	00c58963          	beq	a1,a2,1a8e <sglib___rbtree_fix_right_insertion_discrepancy+0x74>
Length:           2
Taken_Target address:       1a8e
Taken_Target instruction: 
	1a8e:	00070223          	sb	zero,4(a4)
Not_Taken_Target address:   1a80
Not_Taken_Target instruction: 
	1a80:	4710                	lw	a2,8(a4)
Instruction: 
	1a78:	0045c583          	lbu	a1,4(a1)
	1a7c:	00c58963          	beq	a1,a2,1a8e <sglib___rbtree_fix_right_insertion_discrepancy+0x74>


Basic_block Name: 39
In Function:      <sglib___rbtree_fix_right_insertion_discrepancy>
Start address:    1a80
End address:      1a82
Start instruction: 
	1a80:	4710                	lw	a2,8(a4)
End instruction: 
	1a82:	da55                	beqz	a2,1a36 <sglib___rbtree_fix_right_insertion_discrepancy+0x1c>
Length:           2
Taken_Target address:       1a36
Taken_Target instruction: 
	1a36:	8082                	ret
Not_Taken_Target address:   1a84
Not_Taken_Target instruction: 
	1a84:	00464583          	lbu	a1,4(a2)
Instruction: 
	1a80:	4710                	lw	a2,8(a4)
	1a82:	da55                	beqz	a2,1a36 <sglib___rbtree_fix_right_insertion_discrepancy+0x1c>


Basic_block Name: 40
In Function:      <sglib___rbtree_fix_right_insertion_discrepancy>
Start address:    1a84
End address:      1a8a
Start instruction: 
	1a84:	00464583          	lbu	a1,4(a2)
End instruction: 
	1a8a:	fac596e3          	bne	a1,a2,1a36 <sglib___rbtree_fix_right_insertion_discrepancy+0x1c>
Length:           3
Taken_Target address:       1a36
Taken_Target instruction: 
	1a36:	8082                	ret
Not_Taken_Target address:   1a8e
Not_Taken_Target instruction: 
	1a8e:	00070223          	sb	zero,4(a4)
Instruction: 
	1a84:	00464583          	lbu	a1,4(a2)
	1a88:	4605                	li	a2,1
	1a8a:	fac596e3          	bne	a1,a2,1a36 <sglib___rbtree_fix_right_insertion_discrepancy+0x1c>


Basic_block Name: 41
In Function:      <sglib___rbtree_fix_right_insertion_discrepancy>
Start address:    1a8e
End address:      1a9c
Start instruction: 
	1a8e:	00070223          	sb	zero,4(a4)
End instruction: 
	1a9c:	8082                	ret
Length:           5
Taken_Target address:       ['<benchmark> 253e']
Taken_Target instruction: 
	
Not_Taken_Target address:   
Not_Taken_Target instruction: 
	
Instruction: 
	1a8e:	00070223          	sb	zero,4(a4)
	1a92:	00068223          	sb	zero,4(a3)
	1a96:	4705                	li	a4,1
	1a98:	00e78223          	sb	a4,4(a5)
	1a9c:	8082                	ret


Basic_block Name: 42
In Function:      <sglib___rbtree_fix_right_insertion_discrepancy>
Start address:    1a9e
End address:      1aae
Start instruction: 
	1a9e:	c7d4                	sw	a3,12(a5)
End instruction: 
	1aae:	8082                	ret
Length:           7
Taken_Target address:       ['<benchmark> 253e']
Taken_Target instruction: 
	
Not_Taken_Target address:   
Not_Taken_Target instruction: 
	
Instruction: 
	1a9e:	c7d4                	sw	a3,12(a5)
	1aa0:	c74c                	sw	a1,12(a4)
	1aa2:	c71c                	sw	a5,8(a4)
	1aa4:	00c78223          	sb	a2,4(a5)
	1aa8:	00070223          	sb	zero,4(a4)
	1aac:	c118                	sw	a4,0(a0)
	1aae:	8082                	ret


Basic_block Name: 43
In Function:      <sglib___rbtree_add_recursive>
Start address:    1d78
End address:      1d84
Start instruction: 
	1d78:	1141                	addi	sp,sp,-16
End instruction: 
	1d84:	c0a9                	beqz	s1,1dc6 <sglib___rbtree_add_recursive+0x4e>
Length:           7
Taken_Target address:       1dc6
Taken_Target instruction: 
	1dc6:	40b2                	lw	ra,12(sp)
Not_Taken_Target address:   1d86
Not_Taken_Target instruction: 
	1d86:	419c                	lw	a5,0(a1)
Instruction: 
	1d78:	1141                	addi	sp,sp,-16
	1d7a:	c226                	sw	s1,4(sp)
	1d7c:	4104                	lw	s1,0(a0)
	1d7e:	c422                	sw	s0,8(sp)
	1d80:	c606                	sw	ra,12(sp)
	1d82:	842a                	mv	s0,a0
	1d84:	c0a9                	beqz	s1,1dc6 <sglib___rbtree_add_recursive+0x4e>


Basic_block Name: 44
In Function:      <sglib___rbtree_add_recursive>
Start address:    1d86
End address:      1d8c
Start instruction: 
	1d86:	419c                	lw	a5,0(a1)
End instruction: 
	1d8c:	0007c663          	bltz	a5,1d98 <sglib___rbtree_add_recursive+0x20>
Length:           4
Taken_Target address:       1d98
Taken_Target instruction: 
	1d98:	00848513          	addi	a0,s1,8
Not_Taken_Target address:   1d90
Not_Taken_Target instruction: 
	1d90:	00079f63          	bnez	a5,1dae <sglib___rbtree_add_recursive+0x36>
Instruction: 
	1d86:	419c                	lw	a5,0(a1)
	1d88:	4098                	lw	a4,0(s1)
	1d8a:	8f99                	sub	a5,a5,a4
	1d8c:	0007c663          	bltz	a5,1d98 <sglib___rbtree_add_recursive+0x20>


Basic_block Name: 45
In Function:      <sglib___rbtree_add_recursive>
Start address:    1d90
End address:      1d90
Start instruction: 
	1d90:	00079f63          	bnez	a5,1dae <sglib___rbtree_add_recursive+0x36>
End instruction: 
	1d90:	00079f63          	bnez	a5,1dae <sglib___rbtree_add_recursive+0x36>
Length:           1
Taken_Target address:       1dae
Taken_Target instruction: 
	1dae:	00c48513          	addi	a0,s1,12
Not_Taken_Target address:   1d94
Not_Taken_Target instruction: 
	1d94:	0095fd63          	bgeu	a1,s1,1dae <sglib___rbtree_add_recursive+0x36>
Instruction: 
	1d90:	00079f63          	bnez	a5,1dae <sglib___rbtree_add_recursive+0x36>


Basic_block Name: 46
In Function:      <sglib___rbtree_add_recursive>
Start address:    1d94
End address:      1d94
Start instruction: 
	1d94:	0095fd63          	bgeu	a1,s1,1dae <sglib___rbtree_add_recursive+0x36>
End instruction: 
	1d94:	0095fd63          	bgeu	a1,s1,1dae <sglib___rbtree_add_recursive+0x36>
Length:           1
Taken_Target address:       1dae
Taken_Target instruction: 
	1dae:	00c48513          	addi	a0,s1,12
Not_Taken_Target address:   1d98
Not_Taken_Target instruction: 
	1d98:	00848513          	addi	a0,s1,8
Instruction: 
	1d94:	0095fd63          	bgeu	a1,s1,1dae <sglib___rbtree_add_recursive+0x36>


Basic_block Name: 47
In Function:      <sglib___rbtree_add_recursive>
Start address:    1d98
End address:      1d9c
Start instruction: 
	1d98:	00848513          	addi	a0,s1,8
End instruction: 
	1d9c:	3ff1                	jal	1d78 <sglib___rbtree_add_recursive>
Length:           2
Taken_Target address:       1d78
Taken_Target instruction: 
	1d78:	1141                	addi	sp,sp,-16
Not_Taken_Target address:   
Not_Taken_Target instruction: 
	
Instruction: 
	1d98:	00848513          	addi	a0,s1,8
	1d9c:	3ff1                	jal	1d78 <sglib___rbtree_add_recursive>


Basic_block Name: 48
In Function:      <sglib___rbtree_add_recursive>
Start address:    1d9e
End address:      1da2
Start instruction: 
	1d9e:	0044c783          	lbu	a5,4(s1)
End instruction: 
	1da2:	cb9d                	beqz	a5,1dd8 <sglib___rbtree_add_recursive+0x60>
Length:           2
Taken_Target address:       1dd8
Taken_Target instruction: 
	1dd8:	8522                	mv	a0,s0
Not_Taken_Target address:   1da4
Not_Taken_Target instruction: 
	1da4:	40b2                	lw	ra,12(sp)
Instruction: 
	1d9e:	0044c783          	lbu	a5,4(s1)
	1da2:	cb9d                	beqz	a5,1dd8 <sglib___rbtree_add_recursive+0x60>


Basic_block Name: 49
In Function:      <sglib___rbtree_add_recursive>
Start address:    1da4
End address:      1dac
Start instruction: 
	1da4:	40b2                	lw	ra,12(sp)
End instruction: 
	1dac:	8082                	ret
Length:           5
Taken_Target address:       ['<benchmark> 253e']
Taken_Target instruction: 
	
Not_Taken_Target address:   
Not_Taken_Target instruction: 
	
Instruction: 
	1da4:	40b2                	lw	ra,12(sp)
	1da6:	4422                	lw	s0,8(sp)
	1da8:	4492                	lw	s1,4(sp)
	1daa:	0141                	addi	sp,sp,16
	1dac:	8082                	ret


Basic_block Name: 50
In Function:      <sglib___rbtree_add_recursive>
Start address:    1dae
End address:      1db2
Start instruction: 
	1dae:	00c48513          	addi	a0,s1,12
End instruction: 
	1db2:	37d9                	jal	1d78 <sglib___rbtree_add_recursive>
Length:           2
Taken_Target address:       1d78
Taken_Target instruction: 
	1d78:	1141                	addi	sp,sp,-16
Not_Taken_Target address:   
Not_Taken_Target instruction: 
	
Instruction: 
	1dae:	00c48513          	addi	a0,s1,12
	1db2:	37d9                	jal	1d78 <sglib___rbtree_add_recursive>


Basic_block Name: 51
In Function:      <sglib___rbtree_add_recursive>
Start address:    1db4
End address:      1db8
Start instruction: 
	1db4:	0044c783          	lbu	a5,4(s1)
End instruction: 
	1db8:	f7f5                	bnez	a5,1da4 <sglib___rbtree_add_recursive+0x2c>
Length:           2
Taken_Target address:       1da4
Taken_Target instruction: 
	1da4:	40b2                	lw	ra,12(sp)
Not_Taken_Target address:   1dba
Not_Taken_Target instruction: 
	1dba:	8522                	mv	a0,s0
Instruction: 
	1db4:	0044c783          	lbu	a5,4(s1)
	1db8:	f7f5                	bnez	a5,1da4 <sglib___rbtree_add_recursive+0x2c>


Basic_block Name: 52
In Function:      <sglib___rbtree_add_recursive>
Start address:    1dba
End address:      1dc4
Start instruction: 
	1dba:	8522                	mv	a0,s0
End instruction: 
	1dc4:	b999                	j	1a1a <sglib___rbtree_fix_right_insertion_discrepancy>
Length:           6
Taken_Target address:       1a1a
Taken_Target instruction: 
	1a1a:	411c                	lw	a5,0(a0)
Not_Taken_Target address:   
Not_Taken_Target instruction: 
	
Instruction: 
	1dba:	8522                	mv	a0,s0
	1dbc:	4422                	lw	s0,8(sp)
	1dbe:	40b2                	lw	ra,12(sp)
	1dc0:	4492                	lw	s1,4(sp)
	1dc2:	0141                	addi	sp,sp,16
	1dc4:	b999                	j	1a1a <sglib___rbtree_fix_right_insertion_discrepancy>


Basic_block Name: 53
In Function:      <sglib___rbtree_add_recursive>
Start address:    1dc6
End address:      1dd6
Start instruction: 
	1dc6:	40b2                	lw	ra,12(sp)
End instruction: 
	1dd6:	8082                	ret
Length:           8
Taken_Target address:       ['<benchmark> 253e']
Taken_Target instruction: 
	
Not_Taken_Target address:   
Not_Taken_Target instruction: 
	
Instruction: 
	1dc6:	40b2                	lw	ra,12(sp)
	1dc8:	4422                	lw	s0,8(sp)
	1dca:	4785                	li	a5,1
	1dcc:	00f58223          	sb	a5,4(a1)
	1dd0:	c10c                	sw	a1,0(a0)
	1dd2:	4492                	lw	s1,4(sp)
	1dd4:	0141                	addi	sp,sp,16
	1dd6:	8082                	ret


Basic_block Name: 54
In Function:      <sglib___rbtree_add_recursive>
Start address:    1dd8
End address:      1de2
Start instruction: 
	1dd8:	8522                	mv	a0,s0
End instruction: 
	1de2:	b64d                	j	1984 <sglib___rbtree_fix_left_insertion_discrepancy>
Length:           6
Taken_Target address:       1984
Taken_Target instruction: 
	1984:	411c                	lw	a5,0(a0)
Not_Taken_Target address:   
Not_Taken_Target instruction: 
	
Instruction: 
	1dd8:	8522                	mv	a0,s0
	1dda:	4422                	lw	s0,8(sp)
	1ddc:	40b2                	lw	ra,12(sp)
	1dde:	4492                	lw	s1,4(sp)
	1de0:	0141                	addi	sp,sp,16
	1de2:	b64d                	j	1984 <sglib___rbtree_fix_left_insertion_discrepancy>


Basic_block Name: 55
In Function:      <fputc>
Start address:    1e8a
End address:      1e96
Start instruction: 
	1e8a:	0ff57593          	andi	a1,a0,255
End instruction: 
	1e96:	1d30006f          	j	2868 <ck_uart_putc>
Length:           4
Taken_Target address:       2868
Taken_Target instruction: 
	2868:	4d5c                	lw	a5,28(a0)
Not_Taken_Target address:   
Not_Taken_Target instruction: 
	
Instruction: 
	1e8a:	0ff57593          	andi	a1,a0,255
	1e8e:	20000537          	lui	a0,0x20000
	1e92:	00450513          	addi	a0,a0,4 # 20000004 <uart0>
	1e96:	1d30006f          	j	2868 <ck_uart_putc>


Basic_block Name: 56
In Function:      <sglib__rbtree_it_compute_current_elem>
Start address:    2168
End address:      218c
Start instruction: 
	2168:	7179                	addi	sp,sp,-48
End instruction: 
	218c:	04f05363          	blez	a5,21d2 <sglib__rbtree_it_compute_current_elem+0x6a>
Length:           15
Taken_Target address:       21d2
Taken_Target instruction: 
	21d2:	50b2                	lw	ra,44(sp)
Not_Taken_Target address:   2190
Not_Taken_Target instruction: 
	2190:	84aa                	mv	s1,a0
Instruction: 
	2168:	7179                	addi	sp,sp,-48
	216a:	28451783          	lh	a5,644(a0)
	216e:	d04a                	sw	s2,32(sp)
	2170:	ce4e                	sw	s3,28(sp)
	2172:	d606                	sw	ra,44(sp)
	2174:	d422                	sw	s0,40(sp)
	2176:	d226                	sw	s1,36(sp)
	2178:	cc52                	sw	s4,24(sp)
	217a:	ca56                	sw	s5,20(sp)
	217c:	c85a                	sw	s6,16(sp)
	217e:	c65e                	sw	s7,12(sp)
	2180:	00052023          	sw	zero,0(a0)
	2184:	28852903          	lw	s2,648(a0)
	2188:	28c52983          	lw	s3,652(a0)
	218c:	04f05363          	blez	a5,21d2 <sglib__rbtree_it_compute_current_elem+0x6a>


Basic_block Name: 57
In Function:      <sglib__rbtree_it_compute_current_elem>
Start address:    2190
End address:      21a6
Start instruction: 
	2190:	84aa                	mv	s1,a0
End instruction: 
	21a6:	04da7163          	bgeu	s4,a3,21e8 <sglib__rbtree_it_compute_current_elem+0x80>
Length:           9
Taken_Target address:       21e8
Taken_Target instruction: 
	21e8:	00279b93          	slli	s7,a5,0x2
Not_Taken_Target address:   21aa
Not_Taken_Target instruction: 
	21aa:	87ba                	mv	a5,a4
Instruction: 
	2190:	84aa                	mv	s1,a0
	2192:	fff78713          	addi	a4,a5,-1
	2196:	4a05                	li	s4,1
	2198:	0742                	slli	a4,a4,0x10
	219a:	8741                	srai	a4,a4,0x10
	219c:	00e48ab3          	add	s5,s1,a4
	21a0:	004ac683          	lbu	a3,4(s5)
	21a4:	8b3e                	mv	s6,a5
	21a6:	04da7163          	bgeu	s4,a3,21e8 <sglib__rbtree_it_compute_current_elem+0x80>


Basic_block Name: 144 start_with_taken_target
In Function:      <sglib__rbtree_it_compute_current_elem>
Start address:    2198
End address:      21a6
Start instruction: 
	2198:	0742                	slli	a4,a4,0x10
End instruction: 
	21a6:	04da7163          	bgeu	s4,a3,21e8 <sglib__rbtree_it_compute_current_elem+0x80>
Length:           6
Taken_Target address:       21e8
Taken_Target instruction: 
	21e8:	00279b93          	slli	s7,a5,0x2
Not_Taken_Target address:   21aa
Not_Taken_Target instruction: 
	21aa:	87ba                	mv	a5,a4
Instruction: 
	2198:	0742                	slli	a4,a4,0x10
	219a:	8741                	srai	a4,a4,0x10
	219c:	00e48ab3          	add	s5,s1,a4
	21a0:	004ac683          	lbu	a3,4(s5)
	21a4:	8b3e                	mv	s6,a5
	21a6:	04da7163          	bgeu	s4,a3,21e8 <sglib__rbtree_it_compute_current_elem+0x80>


Basic_block Name: 58
In Function:      <sglib__rbtree_it_compute_current_elem>
Start address:    21aa
End address:      21b0
Start instruction: 
	21aa:	87ba                	mv	a5,a4
End instruction: 
	21b0:	02f05163          	blez	a5,21d2 <sglib__rbtree_it_compute_current_elem+0x6a>
Length:           3
Taken_Target address:       21d2
Taken_Target instruction: 
	21d2:	50b2                	lw	ra,44(sp)
Not_Taken_Target address:   21b4
Not_Taken_Target instruction: 
	21b4:	fff78713          	addi	a4,a5,-1
Instruction: 
	21aa:	87ba                	mv	a5,a4
	21ac:	28e49223          	sh	a4,644(s1)
	21b0:	02f05163          	blez	a5,21d2 <sglib__rbtree_it_compute_current_elem+0x6a>


Basic_block Name: 146 start_with_taken_target
In Function:      <sglib__rbtree_it_compute_current_elem>
Start address:    21b0
End address:      21b0
Start instruction: 
	21b0:	02f05163          	blez	a5,21d2 <sglib__rbtree_it_compute_current_elem+0x6a>
End instruction: 
	21b0:	02f05163          	blez	a5,21d2 <sglib__rbtree_it_compute_current_elem+0x6a>
Length:           1
Taken_Target address:       21d2
Taken_Target instruction: 
	21d2:	50b2                	lw	ra,44(sp)
Not_Taken_Target address:   21b4
Not_Taken_Target instruction: 
	21b4:	fff78713          	addi	a4,a5,-1
Instruction: 
	21b0:	02f05163          	blez	a5,21d2 <sglib__rbtree_it_compute_current_elem+0x6a>


Basic_block Name: 59
In Function:      <sglib__rbtree_it_compute_current_elem>
Start address:    21b4
End address:      21ca
Start instruction: 
	21b4:	fff78713          	addi	a4,a5,-1
End instruction: 
	21ca:	08c58363          	beq	a1,a2,2250 <sglib__rbtree_it_compute_current_elem+0xe8>
Length:           7
Taken_Target address:       2250
Taken_Target instruction: 
	2250:	02068693          	addi	a3,a3,32
Not_Taken_Target address:   21ce
Not_Taken_Target instruction: 
	21ce:	4094                	lw	a3,0(s1)
Instruction: 
	21b4:	fff78713          	addi	a4,a5,-1
	21b8:	01071693          	slli	a3,a4,0x10
	21bc:	86c1                	srai	a3,a3,0x10
	21be:	00d48633          	add	a2,s1,a3
	21c2:	28649583          	lh	a1,646(s1)
	21c6:	00464603          	lbu	a2,4(a2)
	21ca:	08c58363          	beq	a1,a2,2250 <sglib__rbtree_it_compute_current_elem+0xe8>


Basic_block Name: 60
In Function:      <sglib__rbtree_it_compute_current_elem>
Start address:    21ce
End address:      21d0
Start instruction: 
	21ce:	4094                	lw	a3,0(s1)
End instruction: 
	21d0:	d6e1                	beqz	a3,2198 <sglib__rbtree_it_compute_current_elem+0x30>
Length:           2
Taken_Target address:       2198
Taken_Target instruction: 
	2198:	0742                	slli	a4,a4,0x10
Not_Taken_Target address:   21d2
Not_Taken_Target instruction: 
	21d2:	50b2                	lw	ra,44(sp)
Instruction: 
	21ce:	4094                	lw	a3,0(s1)
	21d0:	d6e1                	beqz	a3,2198 <sglib__rbtree_it_compute_current_elem+0x30>


Basic_block Name: 61
In Function:      <sglib__rbtree_it_compute_current_elem>
Start address:    21d2
End address:      21e6
Start instruction: 
	21d2:	50b2                	lw	ra,44(sp)
End instruction: 
	21e6:	8082                	ret
Length:           11
Taken_Target address:       ['<benchmark> 2564', '<benchmark> 2572', '<benchmark> 2598', '<benchmark> 25a0']
Taken_Target instruction: 
	
Not_Taken_Target address:   
Not_Taken_Target instruction: 
	
Instruction: 
	21d2:	50b2                	lw	ra,44(sp)
	21d4:	5422                	lw	s0,40(sp)
	21d6:	5492                	lw	s1,36(sp)
	21d8:	5902                	lw	s2,32(sp)
	21da:	49f2                	lw	s3,28(sp)
	21dc:	4a62                	lw	s4,24(sp)
	21de:	4ad2                	lw	s5,20(sp)
	21e0:	4b42                	lw	s6,16(sp)
	21e2:	4bb2                	lw	s7,12(sp)
	21e4:	6145                	addi	sp,sp,48
	21e6:	8082                	ret


Basic_block Name: 62
In Function:      <sglib__rbtree_it_compute_current_elem>
Start address:    21e8
End address:      21f2
Start instruction: 
	21e8:	00279b93          	slli	s7,a5,0x2
End instruction: 
	21f2:	ee85                	bnez	a3,222a <sglib__rbtree_it_compute_current_elem+0xc2>
Length:           4
Taken_Target address:       222a
Taken_Target instruction: 
	222a:	47c0                	lw	s0,12(a5)
Not_Taken_Target address:   21f4
Not_Taken_Target instruction: 
	21f4:	4780                	lw	s0,8(a5)
Instruction: 
	21e8:	00279b93          	slli	s7,a5,0x2
	21ec:	9ba6                	add	s7,s7,s1
	21ee:	080ba783          	lw	a5,128(s7)
	21f2:	ee85                	bnez	a3,222a <sglib__rbtree_it_compute_current_elem+0xc2>


Basic_block Name: 63
In Function:      <sglib__rbtree_it_compute_current_elem>
Start address:    21f4
End address:      21f6
Start instruction: 
	21f4:	4780                	lw	s0,8(a5)
End instruction: 
	21f6:	02090d63          	beqz	s2,2230 <sglib__rbtree_it_compute_current_elem+0xc8>
Length:           2
Taken_Target address:       2230
Taken_Target instruction: 
	2230:	28449783          	lh	a5,644(s1)
Not_Taken_Target address:   21fa
Not_Taken_Target instruction: 
	21fa:	06098363          	beqz	s3,2260 <sglib__rbtree_it_compute_current_elem+0xf8>
Instruction: 
	21f4:	4780                	lw	s0,8(a5)
	21f6:	02090d63          	beqz	s2,2230 <sglib__rbtree_it_compute_current_elem+0xc8>


Basic_block Name: 64
In Function:      <sglib__rbtree_it_compute_current_elem>
Start address:    21fa
End address:      21fa
Start instruction: 
	21fa:	06098363          	beqz	s3,2260 <sglib__rbtree_it_compute_current_elem+0xf8>
End instruction: 
	21fa:	06098363          	beqz	s3,2260 <sglib__rbtree_it_compute_current_elem+0xf8>
Length:           1
Taken_Target address:       2260
Taken_Target instruction: 
	2260:	28449783          	lh	a5,644(s1)
Not_Taken_Target address:   21fe
Not_Taken_Target instruction: 
	21fe:	00040d63          	beqz	s0,2218 <sglib__rbtree_it_compute_current_elem+0xb0>
Instruction: 
	21fa:	06098363          	beqz	s3,2260 <sglib__rbtree_it_compute_current_elem+0xf8>


Basic_block Name: 65
In Function:      <sglib__rbtree_it_compute_current_elem>
Start address:    21fe
End address:      21fe
Start instruction: 
	21fe:	00040d63          	beqz	s0,2218 <sglib__rbtree_it_compute_current_elem+0xb0>
End instruction: 
	21fe:	00040d63          	beqz	s0,2218 <sglib__rbtree_it_compute_current_elem+0xb0>
Length:           1
Taken_Target address:       2218
Taken_Target instruction: 
	2218:	28449783          	lh	a5,644(s1)
Not_Taken_Target address:   2202
Not_Taken_Target instruction: 
	2202:	85a2                	mv	a1,s0
Instruction: 
	21fe:	00040d63          	beqz	s0,2218 <sglib__rbtree_it_compute_current_elem+0xb0>


Basic_block Name: 66
In Function:      <sglib__rbtree_it_compute_current_elem>
Start address:    2202
End address:      2206
Start instruction: 
	2202:	85a2                	mv	a1,s0
End instruction: 
	2206:	9982                	jalr	s3
Length:           3
Taken_Target address:       register: s3
Taken_Target instruction: 
	FFFFFFFF
Not_Taken_Target address:   
Not_Taken_Target instruction: 
	
Instruction: 
	2202:	85a2                	mv	a1,s0
	2204:	854a                	mv	a0,s2
	2206:	9982                	jalr	s3


Basic_block Name: 67
In Function:      <sglib__rbtree_it_compute_current_elem>
Start address:    2208
End address:      2208
Start instruction: 
	2208:	00054e63          	bltz	a0,2224 <sglib__rbtree_it_compute_current_elem+0xbc>
End instruction: 
	2208:	00054e63          	bltz	a0,2224 <sglib__rbtree_it_compute_current_elem+0xbc>
Length:           1
Taken_Target address:       2224
Taken_Target instruction: 
	2224:	4400                	lw	s0,8(s0)
Not_Taken_Target address:   220c
Not_Taken_Target instruction: 
	220c:	08050063          	beqz	a0,228c <sglib__rbtree_it_compute_current_elem+0x124>
Instruction: 
	2208:	00054e63          	bltz	a0,2224 <sglib__rbtree_it_compute_current_elem+0xbc>


Basic_block Name: 68
In Function:      <sglib__rbtree_it_compute_current_elem>
Start address:    220c
End address:      220c
Start instruction: 
	220c:	08050063          	beqz	a0,228c <sglib__rbtree_it_compute_current_elem+0x124>
End instruction: 
	220c:	08050063          	beqz	a0,228c <sglib__rbtree_it_compute_current_elem+0x124>
Length:           1
Taken_Target address:       228c
Taken_Target instruction: 
	228c:	28449783          	lh	a5,644(s1)
Not_Taken_Target address:   2210
Not_Taken_Target instruction: 
	2210:	4440                	lw	s0,12(s0)
Instruction: 
	220c:	08050063          	beqz	a0,228c <sglib__rbtree_it_compute_current_elem+0x124>


Basic_block Name: 69
In Function:      <sglib__rbtree_it_compute_current_elem>
Start address:    2210
End address:      2212
Start instruction: 
	2210:	4440                	lw	s0,12(s0)
End instruction: 
	2212:	f865                	bnez	s0,2202 <sglib__rbtree_it_compute_current_elem+0x9a>
Length:           2
Taken_Target address:       2202
Taken_Target instruction: 
	2202:	85a2                	mv	a1,s0
Not_Taken_Target address:   2214
Not_Taken_Target instruction: 
	2214:	004ac683          	lbu	a3,4(s5)
Instruction: 
	2210:	4440                	lw	s0,12(s0)
	2212:	f865                	bnez	s0,2202 <sglib__rbtree_it_compute_current_elem+0x9a>


Basic_block Name: 70
In Function:      <sglib__rbtree_it_compute_current_elem>
Start address:    2214
End address:      2222
Start instruction: 
	2214:	004ac683          	lbu	a3,4(s5)
End instruction: 
	2222:	b779                	j	21b0 <sglib__rbtree_it_compute_current_elem+0x48>
Length:           5
Taken_Target address:       21b0
Taken_Target instruction: 
	21b0:	02f05163          	blez	a5,21d2 <sglib__rbtree_it_compute_current_elem+0x6a>
Not_Taken_Target address:   
Not_Taken_Target instruction: 
	
Instruction: 
	2214:	004ac683          	lbu	a3,4(s5)
	2218:	28449783          	lh	a5,644(s1)
	221c:	0685                	addi	a3,a3,1
	221e:	00da8223          	sb	a3,4(s5)
	2222:	b779                	j	21b0 <sglib__rbtree_it_compute_current_elem+0x48>


Basic_block Name: 145 start_with_taken_target
In Function:      <sglib__rbtree_it_compute_current_elem>
Start address:    2218
End address:      2222
Start instruction: 
	2218:	28449783          	lh	a5,644(s1)
End instruction: 
	2222:	b779                	j	21b0 <sglib__rbtree_it_compute_current_elem+0x48>
Length:           4
Taken_Target address:       21b0
Taken_Target instruction: 
	21b0:	02f05163          	blez	a5,21d2 <sglib__rbtree_it_compute_current_elem+0x6a>
Not_Taken_Target address:   
Not_Taken_Target instruction: 
	
Instruction: 
	2218:	28449783          	lh	a5,644(s1)
	221c:	0685                	addi	a3,a3,1
	221e:	00da8223          	sb	a3,4(s5)
	2222:	b779                	j	21b0 <sglib__rbtree_it_compute_current_elem+0x48>


Basic_block Name: 147 start_with_taken_target
In Function:      <sglib__rbtree_it_compute_current_elem>
Start address:    221c
End address:      2222
Start instruction: 
	221c:	0685                	addi	a3,a3,1
End instruction: 
	2222:	b779                	j	21b0 <sglib__rbtree_it_compute_current_elem+0x48>
Length:           3
Taken_Target address:       21b0
Taken_Target instruction: 
	21b0:	02f05163          	blez	a5,21d2 <sglib__rbtree_it_compute_current_elem+0x6a>
Not_Taken_Target address:   
Not_Taken_Target instruction: 
	
Instruction: 
	221c:	0685                	addi	a3,a3,1
	221e:	00da8223          	sb	a3,4(s5)
	2222:	b779                	j	21b0 <sglib__rbtree_it_compute_current_elem+0x48>


Basic_block Name: 71
In Function:      <sglib__rbtree_it_compute_current_elem>
Start address:    2224
End address:      2226
Start instruction: 
	2224:	4400                	lw	s0,8(s0)
End instruction: 
	2226:	fc71                	bnez	s0,2202 <sglib__rbtree_it_compute_current_elem+0x9a>
Length:           2
Taken_Target address:       2202
Taken_Target instruction: 
	2202:	85a2                	mv	a1,s0
Not_Taken_Target address:   2228
Not_Taken_Target instruction: 
	2228:	b7f5                	j	2214 <sglib__rbtree_it_compute_current_elem+0xac>
Instruction: 
	2224:	4400                	lw	s0,8(s0)
	2226:	fc71                	bnez	s0,2202 <sglib__rbtree_it_compute_current_elem+0x9a>


Basic_block Name: 72
In Function:      <sglib__rbtree_it_compute_current_elem>
Start address:    2228
End address:      2228
Start instruction: 
	2228:	b7f5                	j	2214 <sglib__rbtree_it_compute_current_elem+0xac>
End instruction: 
	2228:	b7f5                	j	2214 <sglib__rbtree_it_compute_current_elem+0xac>
Length:           1
Taken_Target address:       2214
Taken_Target instruction: 
	2214:	004ac683          	lbu	a3,4(s5)
Not_Taken_Target address:   
Not_Taken_Target instruction: 
	
Instruction: 
	2228:	b7f5                	j	2214 <sglib__rbtree_it_compute_current_elem+0xac>


Basic_block Name: 73
In Function:      <sglib__rbtree_it_compute_current_elem>
Start address:    222a
End address:      222c
Start instruction: 
	222a:	47c0                	lw	s0,12(a5)
End instruction: 
	222c:	fc0917e3          	bnez	s2,21fa <sglib__rbtree_it_compute_current_elem+0x92>
Length:           2
Taken_Target address:       21fa
Taken_Target instruction: 
	21fa:	06098363          	beqz	s3,2260 <sglib__rbtree_it_compute_current_elem+0xf8>
Not_Taken_Target address:   2230
Not_Taken_Target instruction: 
	2230:	28449783          	lh	a5,644(s1)
Instruction: 
	222a:	47c0                	lw	s0,12(a5)
	222c:	fc0917e3          	bnez	s2,21fa <sglib__rbtree_it_compute_current_elem+0x92>


Basic_block Name: 74
In Function:      <sglib__rbtree_it_compute_current_elem>
Start address:    2230
End address:      2234
Start instruction: 
	2230:	28449783          	lh	a5,644(s1)
End instruction: 
	2234:	d465                	beqz	s0,221c <sglib__rbtree_it_compute_current_elem+0xb4>
Length:           2
Taken_Target address:       221c
Taken_Target instruction: 
	221c:	0685                	addi	a3,a3,1
Not_Taken_Target address:   2236
Not_Taken_Target instruction: 
	2236:	0785                	addi	a5,a5,1
Instruction: 
	2230:	28449783          	lh	a5,644(s1)
	2234:	d465                	beqz	s0,221c <sglib__rbtree_it_compute_current_elem+0xb4>


Basic_block Name: 75
In Function:      <sglib__rbtree_it_compute_current_elem>
Start address:    2236
End address:      224e
Start instruction: 
	2236:	0785                	addi	a5,a5,1
End instruction: 
	224e:	b7f9                	j	221c <sglib__rbtree_it_compute_current_elem+0xb4>
Length:           9
Taken_Target address:       221c
Taken_Target instruction: 
	221c:	0685                	addi	a3,a3,1
Not_Taken_Target address:   
Not_Taken_Target instruction: 
	
Instruction: 
	2236:	0785                	addi	a5,a5,1
	2238:	088ba223          	sw	s0,132(s7)
	223c:	9b26                	add	s6,s6,s1
	223e:	07c2                	slli	a5,a5,0x10
	2240:	000b0223          	sb	zero,4(s6)
	2244:	87c1                	srai	a5,a5,0x10
	2246:	28f49223          	sh	a5,644(s1)
	224a:	004ac683          	lbu	a3,4(s5)
	224e:	b7f9                	j	221c <sglib__rbtree_it_compute_current_elem+0xb4>


Basic_block Name: 76
In Function:      <sglib__rbtree_it_compute_current_elem>
Start address:    2250
End address:      225c
Start instruction: 
	2250:	02068693          	addi	a3,a3,32
End instruction: 
	225c:	de95                	beqz	a3,2198 <sglib__rbtree_it_compute_current_elem+0x30>
Length:           6
Taken_Target address:       2198
Taken_Target instruction: 
	2198:	0742                	slli	a4,a4,0x10
Not_Taken_Target address:   225e
Not_Taken_Target instruction: 
	225e:	bf95                	j	21d2 <sglib__rbtree_it_compute_current_elem+0x6a>
Instruction: 
	2250:	02068693          	addi	a3,a3,32
	2254:	068a                	slli	a3,a3,0x2
	2256:	96a6                	add	a3,a3,s1
	2258:	42d4                	lw	a3,4(a3)
	225a:	c094                	sw	a3,0(s1)
	225c:	de95                	beqz	a3,2198 <sglib__rbtree_it_compute_current_elem+0x30>


Basic_block Name: 77
In Function:      <sglib__rbtree_it_compute_current_elem>
Start address:    225e
End address:      225e
Start instruction: 
	225e:	bf95                	j	21d2 <sglib__rbtree_it_compute_current_elem+0x6a>
End instruction: 
	225e:	bf95                	j	21d2 <sglib__rbtree_it_compute_current_elem+0x6a>
Length:           1
Taken_Target address:       21d2
Taken_Target instruction: 
	21d2:	50b2                	lw	ra,44(sp)
Not_Taken_Target address:   
Not_Taken_Target instruction: 
	
Instruction: 
	225e:	bf95                	j	21d2 <sglib__rbtree_it_compute_current_elem+0x6a>


Basic_block Name: 78
In Function:      <sglib__rbtree_it_compute_current_elem>
Start address:    2260
End address:      2264
Start instruction: 
	2260:	28449783          	lh	a5,644(s1)
End instruction: 
	2264:	dc45                	beqz	s0,221c <sglib__rbtree_it_compute_current_elem+0xb4>
Length:           2
Taken_Target address:       221c
Taken_Target instruction: 
	221c:	0685                	addi	a3,a3,1
Not_Taken_Target address:   2266
Not_Taken_Target instruction: 
	2266:	00092603          	lw	a2,0(s2)
Instruction: 
	2260:	28449783          	lh	a5,644(s1)
	2264:	dc45                	beqz	s0,221c <sglib__rbtree_it_compute_current_elem+0xb4>


Basic_block Name: 79
In Function:      <sglib__rbtree_it_compute_current_elem>
Start address:    2266
End address:      2270
Start instruction: 
	2266:	00092603          	lw	a2,0(s2)
End instruction: 
	2270:	00074b63          	bltz	a4,2286 <sglib__rbtree_it_compute_current_elem+0x11e>
Length:           4
Taken_Target address:       2286
Taken_Target instruction: 
	2286:	4400                	lw	s0,8(s0)
Not_Taken_Target address:   2274
Not_Taken_Target instruction: 
	2274:	fc0701e3          	beqz	a4,2236 <sglib__rbtree_it_compute_current_elem+0xce>
Instruction: 
	2266:	00092603          	lw	a2,0(s2)
	226a:	4018                	lw	a4,0(s0)
	226c:	40e60733          	sub	a4,a2,a4
	2270:	00074b63          	bltz	a4,2286 <sglib__rbtree_it_compute_current_elem+0x11e>


Basic_block Name: 80
In Function:      <sglib__rbtree_it_compute_current_elem>
Start address:    2274
End address:      2274
Start instruction: 
	2274:	fc0701e3          	beqz	a4,2236 <sglib__rbtree_it_compute_current_elem+0xce>
End instruction: 
	2274:	fc0701e3          	beqz	a4,2236 <sglib__rbtree_it_compute_current_elem+0xce>
Length:           1
Taken_Target address:       2236
Taken_Target instruction: 
	2236:	0785                	addi	a5,a5,1
Not_Taken_Target address:   2278
Not_Taken_Target instruction: 
	2278:	4440                	lw	s0,12(s0)
Instruction: 
	2274:	fc0701e3          	beqz	a4,2236 <sglib__rbtree_it_compute_current_elem+0xce>


Basic_block Name: 81
In Function:      <sglib__rbtree_it_compute_current_elem>
Start address:    2278
End address:      227a
Start instruction: 
	2278:	4440                	lw	s0,12(s0)
End instruction: 
	227a:	d04d                	beqz	s0,221c <sglib__rbtree_it_compute_current_elem+0xb4>
Length:           2
Taken_Target address:       221c
Taken_Target instruction: 
	221c:	0685                	addi	a3,a3,1
Not_Taken_Target address:   227c
Not_Taken_Target instruction: 
	227c:	4018                	lw	a4,0(s0)
Instruction: 
	2278:	4440                	lw	s0,12(s0)
	227a:	d04d                	beqz	s0,221c <sglib__rbtree_it_compute_current_elem+0xb4>


Basic_block Name: 82
In Function:      <sglib__rbtree_it_compute_current_elem>
Start address:    227c
End address:      2282
Start instruction: 
	227c:	4018                	lw	a4,0(s0)
End instruction: 
	2282:	fe0759e3          	bgez	a4,2274 <sglib__rbtree_it_compute_current_elem+0x10c>
Length:           3
Taken_Target address:       2274
Taken_Target instruction: 
	2274:	fc0701e3          	beqz	a4,2236 <sglib__rbtree_it_compute_current_elem+0xce>
Not_Taken_Target address:   2286
Not_Taken_Target instruction: 
	2286:	4400                	lw	s0,8(s0)
Instruction: 
	227c:	4018                	lw	a4,0(s0)
	227e:	40e60733          	sub	a4,a2,a4
	2282:	fe0759e3          	bgez	a4,2274 <sglib__rbtree_it_compute_current_elem+0x10c>


Basic_block Name: 83
In Function:      <sglib__rbtree_it_compute_current_elem>
Start address:    2286
End address:      2288
Start instruction: 
	2286:	4400                	lw	s0,8(s0)
End instruction: 
	2288:	f875                	bnez	s0,227c <sglib__rbtree_it_compute_current_elem+0x114>
Length:           2
Taken_Target address:       227c
Taken_Target instruction: 
	227c:	4018                	lw	a4,0(s0)
Not_Taken_Target address:   228a
Not_Taken_Target instruction: 
	228a:	bf49                	j	221c <sglib__rbtree_it_compute_current_elem+0xb4>
Instruction: 
	2286:	4400                	lw	s0,8(s0)
	2288:	f875                	bnez	s0,227c <sglib__rbtree_it_compute_current_elem+0x114>


Basic_block Name: 84
In Function:      <sglib__rbtree_it_compute_current_elem>
Start address:    228a
End address:      228a
Start instruction: 
	228a:	bf49                	j	221c <sglib__rbtree_it_compute_current_elem+0xb4>
End instruction: 
	228a:	bf49                	j	221c <sglib__rbtree_it_compute_current_elem+0xb4>
Length:           1
Taken_Target address:       221c
Taken_Target instruction: 
	221c:	0685                	addi	a3,a3,1
Not_Taken_Target address:   
Not_Taken_Target instruction: 
	
Instruction: 
	228a:	bf49                	j	221c <sglib__rbtree_it_compute_current_elem+0xb4>


Basic_block Name: 85
In Function:      <sglib__rbtree_it_compute_current_elem>
Start address:    228c
End address:      2290
Start instruction: 
	228c:	28449783          	lh	a5,644(s1)
End instruction: 
	2290:	b75d                	j	2236 <sglib__rbtree_it_compute_current_elem+0xce>
Length:           2
Taken_Target address:       2236
Taken_Target instruction: 
	2236:	0785                	addi	a5,a5,1
Not_Taken_Target address:   
Not_Taken_Target instruction: 
	
Instruction: 
	228c:	28449783          	lh	a5,644(s1)
	2290:	b75d                	j	2236 <sglib__rbtree_it_compute_current_elem+0xce>


Basic_block Name: 86
In Function:      <benchmark>
Start address:    24ce
End address:      2504
Start instruction: 
	24ce:	d4010113          	addi	sp,sp,-704
End instruction: 
	2504:	ca19                	beqz	a2,251a <benchmark+0x4c>
Length:           16
Taken_Target address:       251a
Taken_Target instruction: 
	251a:	a7092583          	lw	a1,-1424(s2) # 20002a70 <heap_ptr>
Not_Taken_Target address:   2506
Not_Taken_Target instruction: 
	2506:	8732                	mv	a4,a2
Instruction: 
	24ce:	d4010113          	addi	sp,sp,-704
	24d2:	2a912a23          	sw	s1,692(sp)
	24d6:	200004b7          	lui	s1,0x20000
	24da:	00448493          	addi	s1,s1,4 # 20000004 <uart0>
	24de:	2a812c23          	sw	s0,696(sp)
	24e2:	2b212823          	sw	s2,688(sp)
	24e6:	2b312623          	sw	s3,684(sp)
	24ea:	02048413          	addi	s0,s1,32
	24ee:	2a112e23          	sw	ra,700(sp)
	24f2:	c602                	sw	zero,12(sp)
	24f4:	1b048493          	addi	s1,s1,432
	24f8:	4601                	li	a2,0
	24fa:	20003937          	lui	s2,0x20003
	24fe:	200039b7          	lui	s3,0x20003
	2502:	4014                	lw	a3,0(s0)
	2504:	ca19                	beqz	a2,251a <benchmark+0x4c>


Basic_block Name: 150 start_with_taken_target
In Function:      <benchmark>
Start address:    2502
End address:      2504
Start instruction: 
	2502:	4014                	lw	a3,0(s0)
End instruction: 
	2504:	ca19                	beqz	a2,251a <benchmark+0x4c>
Length:           2
Taken_Target address:       251a
Taken_Target instruction: 
	251a:	a7092583          	lw	a1,-1424(s2) # 20002a70 <heap_ptr>
Not_Taken_Target address:   2506
Not_Taken_Target instruction: 
	2506:	8732                	mv	a4,a2
Instruction: 
	2502:	4014                	lw	a3,0(s0)
	2504:	ca19                	beqz	a2,251a <benchmark+0x4c>


Basic_block Name: 87
In Function:      <benchmark>
Start address:    2506
End address:      250e
Start instruction: 
	2506:	8732                	mv	a4,a2
End instruction: 
	250e:	0a07c963          	bltz	a5,25c0 <benchmark+0xf2>
Length:           4
Taken_Target address:       25c0
Taken_Target instruction: 
	25c0:	4718                	lw	a4,8(a4)
Not_Taken_Target address:   2512
Not_Taken_Target instruction: 
	2512:	02078963          	beqz	a5,2544 <benchmark+0x76>
Instruction: 
	2506:	8732                	mv	a4,a2
	2508:	431c                	lw	a5,0(a4)
	250a:	40f687b3          	sub	a5,a3,a5
	250e:	0a07c963          	bltz	a5,25c0 <benchmark+0xf2>


Basic_block Name: 149 start_with_taken_target
In Function:      <benchmark>
Start address:    2508
End address:      250e
Start instruction: 
	2508:	431c                	lw	a5,0(a4)
End instruction: 
	250e:	0a07c963          	bltz	a5,25c0 <benchmark+0xf2>
Length:           3
Taken_Target address:       25c0
Taken_Target instruction: 
	25c0:	4718                	lw	a4,8(a4)
Not_Taken_Target address:   2512
Not_Taken_Target instruction: 
	2512:	02078963          	beqz	a5,2544 <benchmark+0x76>
Instruction: 
	2508:	431c                	lw	a5,0(a4)
	250a:	40f687b3          	sub	a5,a3,a5
	250e:	0a07c963          	bltz	a5,25c0 <benchmark+0xf2>


Basic_block Name: 88
In Function:      <benchmark>
Start address:    2512
End address:      2512
Start instruction: 
	2512:	02078963          	beqz	a5,2544 <benchmark+0x76>
End instruction: 
	2512:	02078963          	beqz	a5,2544 <benchmark+0x76>
Length:           1
Taken_Target address:       2544
Taken_Target instruction: 
	2544:	0411                	addi	s0,s0,4
Not_Taken_Target address:   2516
Not_Taken_Target instruction: 
	2516:	4758                	lw	a4,12(a4)
Instruction: 
	2512:	02078963          	beqz	a5,2544 <benchmark+0x76>


Basic_block Name: 89
In Function:      <benchmark>
Start address:    2516
End address:      2518
Start instruction: 
	2516:	4758                	lw	a4,12(a4)
End instruction: 
	2518:	fb65                	bnez	a4,2508 <benchmark+0x3a>
Length:           2
Taken_Target address:       2508
Taken_Target instruction: 
	2508:	431c                	lw	a5,0(a4)
Not_Taken_Target address:   251a
Not_Taken_Target instruction: 
	251a:	a7092583          	lw	a1,-1424(s2) # 20002a70 <heap_ptr>
Instruction: 
	2516:	4758                	lw	a4,12(a4)
	2518:	fb65                	bnez	a4,2508 <benchmark+0x3a>


Basic_block Name: 90
In Function:      <benchmark>
Start address:    251a
End address:      2526
Start instruction: 
	251a:	a7092583          	lw	a1,-1424(s2) # 20002a70 <heap_ptr>
End instruction: 
	2526:	0af76063          	bltu	a4,a5,25c6 <benchmark+0xf8>
Length:           4
Taken_Target address:       25c6
Taken_Target instruction: 
	25c6:	4581                	li	a1,0
Not_Taken_Target address:   252a
Not_Taken_Target instruction: 
	252a:	a6f92823          	sw	a5,-1424(s2)
Instruction: 
	251a:	a7092583          	lw	a1,-1424(s2) # 20002a70 <heap_ptr>
	251e:	a6c9a703          	lw	a4,-1428(s3) # 20002a6c <heap_end>
	2522:	01058793          	addi	a5,a1,16
	2526:	0af76063          	bltu	a4,a5,25c6 <benchmark+0xf8>


Basic_block Name: 91
In Function:      <benchmark>
Start address:    252a
End address:      253a
Start instruction: 
	252a:	a6f92823          	sw	a5,-1424(s2)
End instruction: 
	253a:	83fff0ef          	jal	ra,1d78 <sglib___rbtree_add_recursive>
Length:           6
Taken_Target address:       1d78
Taken_Target instruction: 
	1d78:	1141                	addi	sp,sp,-16
Not_Taken_Target address:   
Not_Taken_Target instruction: 
	
Instruction: 
	252a:	a6f92823          	sw	a5,-1424(s2)
	252e:	c194                	sw	a3,0(a1)
	2530:	0005a623          	sw	zero,12(a1)
	2534:	0005a423          	sw	zero,8(a1)
	2538:	0068                	addi	a0,sp,12
	253a:	83fff0ef          	jal	ra,1d78 <sglib___rbtree_add_recursive>


Basic_block Name: 152 start_with_taken_target
In Function:      <benchmark>
Start address:    252e
End address:      253a
Start instruction: 
	252e:	c194                	sw	a3,0(a1)
End instruction: 
	253a:	83fff0ef          	jal	ra,1d78 <sglib___rbtree_add_recursive>
Length:           5
Taken_Target address:       1d78
Taken_Target instruction: 
	1d78:	1141                	addi	sp,sp,-16
Not_Taken_Target address:   
Not_Taken_Target instruction: 
	
Instruction: 
	252e:	c194                	sw	a3,0(a1)
	2530:	0005a623          	sw	zero,12(a1)
	2534:	0005a423          	sw	zero,8(a1)
	2538:	0068                	addi	a0,sp,12
	253a:	83fff0ef          	jal	ra,1d78 <sglib___rbtree_add_recursive>


Basic_block Name: 92
In Function:      <benchmark>
Start address:    253e
End address:      2546
Start instruction: 
	253e:	4632                	lw	a2,12(sp)
End instruction: 
	2546:	fa849ee3          	bne	s1,s0,2502 <benchmark+0x34>
Length:           4
Taken_Target address:       2502
Taken_Target instruction: 
	2502:	4014                	lw	a3,0(s0)
Not_Taken_Target address:   254a
Not_Taken_Target instruction: 
	254a:	67c1                	lui	a5,0x10
Instruction: 
	253e:	4632                	lw	a2,12(sp)
	2540:	00060223          	sb	zero,4(a2)
	2544:	0411                	addi	s0,s0,4
	2546:	fa849ee3          	bne	s1,s0,2502 <benchmark+0x34>


Basic_block Name: 148 start_with_taken_target
In Function:      <benchmark>
Start address:    2544
End address:      2546
Start instruction: 
	2544:	0411                	addi	s0,s0,4
End instruction: 
	2546:	fa849ee3          	bne	s1,s0,2502 <benchmark+0x34>
Length:           2
Taken_Target address:       2502
Taken_Target instruction: 
	2502:	4014                	lw	a3,0(s0)
Not_Taken_Target address:   254a
Not_Taken_Target instruction: 
	254a:	67c1                	lui	a5,0x10
Instruction: 
	2544:	0411                	addi	s0,s0,4
	2546:	fa849ee3          	bne	s1,s0,2502 <benchmark+0x34>


Basic_block Name: 93
In Function:      <benchmark>
Start address:    254a
End address:      2562
Start instruction: 
	254a:	67c1                	lui	a5,0x10
End instruction: 
	2562:	3119                	jal	2168 <sglib__rbtree_it_compute_current_elem>
Length:           9
Taken_Target address:       2168
Taken_Target instruction: 
	2168:	7179                	addi	sp,sp,-48
Not_Taken_Target address:   
Not_Taken_Target instruction: 
	
Instruction: 
	254a:	67c1                	lui	a5,0x10
	254c:	0785                	addi	a5,a5,1
	254e:	0808                	addi	a0,sp,16
	2550:	28f12a23          	sw	a5,660(sp)
	2554:	28012c23          	sw	zero,664(sp)
	2558:	28012e23          	sw	zero,668(sp)
	255c:	00010a23          	sb	zero,20(sp)
	2560:	cb32                	sw	a2,148(sp)
	2562:	3119                	jal	2168 <sglib__rbtree_it_compute_current_elem>


Basic_block Name: 94
In Function:      <benchmark>
Start address:    2564
End address:      2566
Start instruction: 
	2564:	47c2                	lw	a5,16(sp)
End instruction: 
	2566:	c3b5                	beqz	a5,25ca <benchmark+0xfc>
Length:           2
Taken_Target address:       25ca
Taken_Target instruction: 
	25ca:	47b2                	lw	a5,12(sp)
Not_Taken_Target address:   2568
Not_Taken_Target instruction: 
	2568:	4401                	li	s0,0
Instruction: 
	2564:	47c2                	lw	a5,16(sp)
	2566:	c3b5                	beqz	a5,25ca <benchmark+0xfc>


Basic_block Name: 95
In Function:      <benchmark>
Start address:    2568
End address:      2570
Start instruction: 
	2568:	4401                	li	s0,0
End instruction: 
	2570:	3ee5                	jal	2168 <sglib__rbtree_it_compute_current_elem>
Length:           5
Taken_Target address:       2168
Taken_Target instruction: 
	2168:	7179                	addi	sp,sp,-48
Not_Taken_Target address:   
Not_Taken_Target instruction: 
	
Instruction: 
	2568:	4401                	li	s0,0
	256a:	439c                	lw	a5,0(a5)
	256c:	0808                	addi	a0,sp,16
	256e:	943e                	add	s0,s0,a5
	2570:	3ee5                	jal	2168 <sglib__rbtree_it_compute_current_elem>


Basic_block Name: 151 start_with_taken_target
In Function:      <benchmark>
Start address:    256a
End address:      2570
Start instruction: 
	256a:	439c                	lw	a5,0(a5)
End instruction: 
	2570:	3ee5                	jal	2168 <sglib__rbtree_it_compute_current_elem>
Length:           4
Taken_Target address:       2168
Taken_Target instruction: 
	2168:	7179                	addi	sp,sp,-48
Not_Taken_Target address:   
Not_Taken_Target instruction: 
	
Instruction: 
	256a:	439c                	lw	a5,0(a5)
	256c:	0808                	addi	a0,sp,16
	256e:	943e                	add	s0,s0,a5
	2570:	3ee5                	jal	2168 <sglib__rbtree_it_compute_current_elem>


Basic_block Name: 96
In Function:      <benchmark>
Start address:    2572
End address:      2574
Start instruction: 
	2572:	47c2                	lw	a5,16(sp)
End instruction: 
	2574:	fbfd                	bnez	a5,256a <benchmark+0x9c>
Length:           2
Taken_Target address:       256a
Taken_Target instruction: 
	256a:	439c                	lw	a5,0(a5)
Not_Taken_Target address:   2576
Not_Taken_Target instruction: 
	2576:	47b2                	lw	a5,12(sp)
Instruction: 
	2572:	47c2                	lw	a5,16(sp)
	2574:	fbfd                	bnez	a5,256a <benchmark+0x9c>


Basic_block Name: 97
In Function:      <benchmark>
Start address:    2576
End address:      2586
Start instruction: 
	2576:	47b2                	lw	a5,12(sp)
End instruction: 
	2586:	cf99                	beqz	a5,25a4 <benchmark+0xd6>
Length:           6
Taken_Target address:       25a4
Taken_Target instruction: 
	25a4:	2bc12083          	lw	ra,700(sp)
Not_Taken_Target address:   2588
Not_Taken_Target instruction: 
	2588:	4705                	li	a4,1
Instruction: 
	2576:	47b2                	lw	a5,12(sp)
	2578:	4709                	li	a4,2
	257a:	28e11b23          	sh	a4,662(sp)
	257e:	28012c23          	sw	zero,664(sp)
	2582:	28012e23          	sw	zero,668(sp)
	2586:	cf99                	beqz	a5,25a4 <benchmark+0xd6>


Basic_block Name: 153 start_with_taken_target
In Function:      <benchmark>
Start address:    2578
End address:      2586
Start instruction: 
	2578:	4709                	li	a4,2
End instruction: 
	2586:	cf99                	beqz	a5,25a4 <benchmark+0xd6>
Length:           5
Taken_Target address:       25a4
Taken_Target instruction: 
	25a4:	2bc12083          	lw	ra,700(sp)
Not_Taken_Target address:   2588
Not_Taken_Target instruction: 
	2588:	4705                	li	a4,1
Instruction: 
	2578:	4709                	li	a4,2
	257a:	28e11b23          	sh	a4,662(sp)
	257e:	28012c23          	sw	zero,664(sp)
	2582:	28012e23          	sw	zero,668(sp)
	2586:	cf99                	beqz	a5,25a4 <benchmark+0xd6>


Basic_block Name: 98
In Function:      <benchmark>
Start address:    2588
End address:      2596
Start instruction: 
	2588:	4705                	li	a4,1
End instruction: 
	2596:	3ec9                	jal	2168 <sglib__rbtree_it_compute_current_elem>
Length:           6
Taken_Target address:       2168
Taken_Target instruction: 
	2168:	7179                	addi	sp,sp,-48
Not_Taken_Target address:   
Not_Taken_Target instruction: 
	
Instruction: 
	2588:	4705                	li	a4,1
	258a:	0808                	addi	a0,sp,16
	258c:	cb3e                	sw	a5,148(sp)
	258e:	28e11a23          	sh	a4,660(sp)
	2592:	00010a23          	sb	zero,20(sp)
	2596:	3ec9                	jal	2168 <sglib__rbtree_it_compute_current_elem>


Basic_block Name: 99
In Function:      <benchmark>
Start address:    2598
End address:      259a
Start instruction: 
	2598:	47c2                	lw	a5,16(sp)
End instruction: 
	259a:	c789                	beqz	a5,25a4 <benchmark+0xd6>
Length:           2
Taken_Target address:       25a4
Taken_Target instruction: 
	25a4:	2bc12083          	lw	ra,700(sp)
Not_Taken_Target address:   259c
Not_Taken_Target instruction: 
	259c:	0808                	addi	a0,sp,16
Instruction: 
	2598:	47c2                	lw	a5,16(sp)
	259a:	c789                	beqz	a5,25a4 <benchmark+0xd6>


Basic_block Name: 100
In Function:      <benchmark>
Start address:    259c
End address:      259e
Start instruction: 
	259c:	0808                	addi	a0,sp,16
End instruction: 
	259e:	36e9                	jal	2168 <sglib__rbtree_it_compute_current_elem>
Length:           2
Taken_Target address:       2168
Taken_Target instruction: 
	2168:	7179                	addi	sp,sp,-48
Not_Taken_Target address:   
Not_Taken_Target instruction: 
	
Instruction: 
	259c:	0808                	addi	a0,sp,16
	259e:	36e9                	jal	2168 <sglib__rbtree_it_compute_current_elem>


Basic_block Name: 101
In Function:      <benchmark>
Start address:    25a0
End address:      25a2
Start instruction: 
	25a0:	47c2                	lw	a5,16(sp)
End instruction: 
	25a2:	ffed                	bnez	a5,259c <benchmark+0xce>
Length:           2
Taken_Target address:       259c
Taken_Target instruction: 
	259c:	0808                	addi	a0,sp,16
Not_Taken_Target address:   25a4
Not_Taken_Target instruction: 
	25a4:	2bc12083          	lw	ra,700(sp)
Instruction: 
	25a0:	47c2                	lw	a5,16(sp)
	25a2:	ffed                	bnez	a5,259c <benchmark+0xce>


Basic_block Name: 102
In Function:      <benchmark>
Start address:    25a4
End address:      25be
Start instruction: 
	25a4:	2bc12083          	lw	ra,700(sp)
End instruction: 
	25be:	8082                	ret
Length:           8
Taken_Target address:       ['<main> 260e']
Taken_Target instruction: 
	
Not_Taken_Target address:   
Not_Taken_Target instruction: 
	
Instruction: 
	25a4:	2bc12083          	lw	ra,700(sp)
	25a8:	8522                	mv	a0,s0
	25aa:	2b812403          	lw	s0,696(sp)
	25ae:	2b412483          	lw	s1,692(sp)
	25b2:	2b012903          	lw	s2,688(sp)
	25b6:	2ac12983          	lw	s3,684(sp)
	25ba:	2c010113          	addi	sp,sp,704
	25be:	8082                	ret


Basic_block Name: 103
In Function:      <benchmark>
Start address:    25c0
End address:      25c2
Start instruction: 
	25c0:	4718                	lw	a4,8(a4)
End instruction: 
	25c2:	f339                	bnez	a4,2508 <benchmark+0x3a>
Length:           2
Taken_Target address:       2508
Taken_Target instruction: 
	2508:	431c                	lw	a5,0(a4)
Not_Taken_Target address:   25c4
Not_Taken_Target instruction: 
	25c4:	bf99                	j	251a <benchmark+0x4c>
Instruction: 
	25c0:	4718                	lw	a4,8(a4)
	25c2:	f339                	bnez	a4,2508 <benchmark+0x3a>


Basic_block Name: 104
In Function:      <benchmark>
Start address:    25c4
End address:      25c4
Start instruction: 
	25c4:	bf99                	j	251a <benchmark+0x4c>
End instruction: 
	25c4:	bf99                	j	251a <benchmark+0x4c>
Length:           1
Taken_Target address:       251a
Taken_Target instruction: 
	251a:	a7092583          	lw	a1,-1424(s2) # 20002a70 <heap_ptr>
Not_Taken_Target address:   
Not_Taken_Target instruction: 
	
Instruction: 
	25c4:	bf99                	j	251a <benchmark+0x4c>


Basic_block Name: 105
In Function:      <benchmark>
Start address:    25c6
End address:      25c8
Start instruction: 
	25c6:	4581                	li	a1,0
End instruction: 
	25c8:	b79d                	j	252e <benchmark+0x60>
Length:           2
Taken_Target address:       252e
Taken_Target instruction: 
	252e:	c194                	sw	a3,0(a1)
Not_Taken_Target address:   
Not_Taken_Target instruction: 
	
Instruction: 
	25c6:	4581                	li	a1,0
	25c8:	b79d                	j	252e <benchmark+0x60>


Basic_block Name: 106
In Function:      <benchmark>
Start address:    25ca
End address:      25ce
Start instruction: 
	25ca:	47b2                	lw	a5,12(sp)
End instruction: 
	25ce:	b76d                	j	2578 <benchmark+0xaa>
Length:           3
Taken_Target address:       2578
Taken_Target instruction: 
	2578:	4709                	li	a4,2
Not_Taken_Target address:   
Not_Taken_Target instruction: 
	
Instruction: 
	25ca:	47b2                	lw	a5,12(sp)
	25cc:	4401                	li	s0,0
	25ce:	b76d                	j	2578 <benchmark+0xaa>


Basic_block Name: 107
In Function:      <main>
Start address:    25de
End address:      2602
Start instruction: 
	25de:	6795                	lui	a5,0x5
End instruction: 
	2602:	2a51                	jal	2796 <ck_uart_open>
Length:           16
Taken_Target address:       2796
Taken_Target instruction: 
	2796:	e981                	bnez	a1,27a6 <ck_uart_open+0x10>
Not_Taken_Target address:   
Not_Taken_Target instruction: 
	
Instruction: 
	25de:	6795                	lui	a5,0x5
	25e0:	7179                	addi	sp,sp,-48
	25e2:	b0078793          	addi	a5,a5,-1280 # 4b00 <__subdf3+0x406>
	25e6:	d422                	sw	s0,40(sp)
	25e8:	c43e                	sw	a5,8(sp)
	25ea:	20000437          	lui	s0,0x20000
	25ee:	478d                	li	a5,3
	25f0:	ca3e                	sw	a5,20(sp)
	25f2:	4581                	li	a1,0
	25f4:	4785                	li	a5,1
	25f6:	00440513          	addi	a0,s0,4 # 20000004 <uart0>
	25fa:	d606                	sw	ra,44(sp)
	25fc:	ce3e                	sw	a5,28(sp)
	25fe:	c802                	sw	zero,16(sp)
	2600:	c602                	sw	zero,12(sp)
	2602:	2a51                	jal	2796 <ck_uart_open>


Basic_block Name: 108
In Function:      <main>
Start address:    2604
End address:      260a
Start instruction: 
	2604:	002c                	addi	a1,sp,8
End instruction: 
	260a:	2245                	jal	27aa <ck_uart_init>
Length:           3
Taken_Target address:       27aa
Taken_Target instruction: 
	27aa:	4118                	lw	a4,0(a0)
Not_Taken_Target address:   
Not_Taken_Target instruction: 
	
Instruction: 
	2604:	002c                	addi	a1,sp,8
	2606:	00440513          	addi	a0,s0,4
	260a:	2245                	jal	27aa <ck_uart_init>


Basic_block Name: 109
In Function:      <main>
Start address:    260c
End address:      260c
Start instruction: 
	260c:	35c9                	jal	24ce <benchmark>
End instruction: 
	260c:	35c9                	jal	24ce <benchmark>
Length:           1
Taken_Target address:       24ce
Taken_Target instruction: 
	24ce:	d4010113          	addi	sp,sp,-704
Not_Taken_Target address:   
Not_Taken_Target instruction: 
	
Instruction: 
	260c:	35c9                	jal	24ce <benchmark>


Basic_block Name: 110
In Function:      <main>
Start address:    260e
End address:      2614
Start instruction: 
	260e:	6519                	lui	a0,0x6
End instruction: 
	2614:	a4cff0ef          	jal	ra,1860 <puts>
Length:           3
Taken_Target address:       1860
Taken_Target instruction: 
	1860:	1141                	addi	sp,sp,-16
Not_Taken_Target address:   
Not_Taken_Target instruction: 
	
Instruction: 
	260e:	6519                	lui	a0,0x6
	2610:	07850513          	addi	a0,a0,120 # 6078 <pow10.0+0x50>
	2614:	a4cff0ef          	jal	ra,1860 <puts>


Basic_block Name: 111
In Function:      <main>
Start address:    2618
End address:      2620
Start instruction: 
	2618:	50b2                	lw	ra,44(sp)
End instruction: 
	2620:	8082                	ret
Length:           5
Taken_Target address:       ['<__exit> e4']
Taken_Target instruction: 
	
Not_Taken_Target address:   
Not_Taken_Target instruction: 
	
Instruction: 
	2618:	50b2                	lw	ra,44(sp)
	261a:	5422                	lw	s0,40(sp)
	261c:	4501                	li	a0,0
	261e:	6145                	addi	sp,sp,48
	2620:	8082                	ret


Basic_block Name: 112
In Function:      <ck_uart_set_parity>
Start address:    2672
End address:      2676
Start instruction: 
	2672:	c54c                	sw	a1,12(a0)
End instruction: 
	2676:	04f58363          	beq	a1,a5,26bc <ck_uart_set_parity+0x4a>
Length:           3
Taken_Target address:       26bc
Taken_Target instruction: 
	26bc:	4158                	lw	a4,4(a0)
Not_Taken_Target address:   267a
Not_Taken_Target instruction: 
	267a:	4789                	li	a5,2
Instruction: 
	2672:	c54c                	sw	a1,12(a0)
	2674:	4785                	li	a5,1
	2676:	04f58363          	beq	a1,a5,26bc <ck_uart_set_parity+0x4a>


Basic_block Name: 113
In Function:      <ck_uart_set_parity>
Start address:    267a
End address:      267c
Start instruction: 
	267a:	4789                	li	a5,2
End instruction: 
	267c:	00f58d63          	beq	a1,a5,2696 <ck_uart_set_parity+0x24>
Length:           2
Taken_Target address:       2696
Taken_Target instruction: 
	2696:	4158                	lw	a4,4(a0)
Not_Taken_Target address:   2680
Not_Taken_Target instruction: 
	2680:	00058363          	beqz	a1,2686 <ck_uart_set_parity+0x14>
Instruction: 
	267a:	4789                	li	a5,2
	267c:	00f58d63          	beq	a1,a5,2696 <ck_uart_set_parity+0x24>


Basic_block Name: 114
In Function:      <ck_uart_set_parity>
Start address:    2680
End address:      2680
Start instruction: 
	2680:	00058363          	beqz	a1,2686 <ck_uart_set_parity+0x14>
End instruction: 
	2680:	00058363          	beqz	a1,2686 <ck_uart_set_parity+0x14>
Length:           1
Taken_Target address:       2686
Taken_Target instruction: 
	2686:	4158                	lw	a4,4(a0)
Not_Taken_Target address:   2684
Not_Taken_Target instruction: 
	2684:	8082                	ret
Instruction: 
	2680:	00058363          	beqz	a1,2686 <ck_uart_set_parity+0x14>


Basic_block Name: 115
In Function:      <ck_uart_set_parity>
Start address:    2684
End address:      2684
Start instruction: 
	2684:	8082                	ret
End instruction: 
	2684:	8082                	ret
Length:           1
Taken_Target address:       ['<ck_uart_init> 2808']
Taken_Target instruction: 
	
Not_Taken_Target address:   
Not_Taken_Target instruction: 
	
Instruction: 
	2684:	8082                	ret


Basic_block Name: 116
In Function:      <ck_uart_set_parity>
Start address:    2686
End address:      2694
Start instruction: 
	2686:	4158                	lw	a4,4(a0)
End instruction: 
	2694:	8082                	ret
Length:           5
Taken_Target address:       ['<ck_uart_init> 2808']
Taken_Target instruction: 
	
Not_Taken_Target address:   
Not_Taken_Target instruction: 
	
Instruction: 
	2686:	4158                	lw	a4,4(a0)
	2688:	00c74783          	lbu	a5,12(a4)
	268c:	0f77f793          	andi	a5,a5,247
	2690:	00f70623          	sb	a5,12(a4)
	2694:	8082                	ret


Basic_block Name: 117
In Function:      <ck_uart_set_parity>
Start address:    2696
End address:      26ba
Start instruction: 
	2696:	4158                	lw	a4,4(a0)
End instruction: 
	26ba:	8082                	ret
Length:           11
Taken_Target address:       ['<ck_uart_init> 2808']
Taken_Target instruction: 
	
Not_Taken_Target address:   
Not_Taken_Target instruction: 
	
Instruction: 
	2696:	4158                	lw	a4,4(a0)
	2698:	00c74783          	lbu	a5,12(a4)
	269c:	0ff7f793          	andi	a5,a5,255
	26a0:	0087e793          	ori	a5,a5,8
	26a4:	00f70623          	sb	a5,12(a4)
	26a8:	4158                	lw	a4,4(a0)
	26aa:	00c74783          	lbu	a5,12(a4)
	26ae:	0ff7f793          	andi	a5,a5,255
	26b2:	0107e793          	ori	a5,a5,16
	26b6:	00f70623          	sb	a5,12(a4)
	26ba:	8082                	ret


Basic_block Name: 118
In Function:      <ck_uart_set_parity>
Start address:    26bc
End address:      26dc
Start instruction: 
	26bc:	4158                	lw	a4,4(a0)
End instruction: 
	26dc:	8082                	ret
Length:           10
Taken_Target address:       ['<ck_uart_init> 2808']
Taken_Target instruction: 
	
Not_Taken_Target address:   
Not_Taken_Target instruction: 
	
Instruction: 
	26bc:	4158                	lw	a4,4(a0)
	26be:	00c74783          	lbu	a5,12(a4)
	26c2:	0ff7f793          	andi	a5,a5,255
	26c6:	0087e793          	ori	a5,a5,8
	26ca:	00f70623          	sb	a5,12(a4)
	26ce:	4158                	lw	a4,4(a0)
	26d0:	00c74783          	lbu	a5,12(a4)
	26d4:	0ef7f793          	andi	a5,a5,239
	26d8:	00f70623          	sb	a5,12(a4)
	26dc:	8082                	ret


Basic_block Name: 119
In Function:      <ck_uart_set_wordsize>
Start address:    26de
End address:      26e2
Start instruction: 
	26de:	c94c                	sw	a1,20(a0)
End instruction: 
	26e2:	04f58d63          	beq	a1,a5,273c <ck_uart_set_wordsize+0x5e>
Length:           3
Taken_Target address:       273c
Taken_Target instruction: 
	273c:	4158                	lw	a4,4(a0)
Not_Taken_Target address:   26e6
Not_Taken_Target instruction: 
	26e6:	02b7e563          	bltu	a5,a1,2710 <ck_uart_set_wordsize+0x32>
Instruction: 
	26de:	c94c                	sw	a1,20(a0)
	26e0:	4789                	li	a5,2
	26e2:	04f58d63          	beq	a1,a5,273c <ck_uart_set_wordsize+0x5e>


Basic_block Name: 120
In Function:      <ck_uart_set_wordsize>
Start address:    26e6
End address:      26e6
Start instruction: 
	26e6:	02b7e563          	bltu	a5,a1,2710 <ck_uart_set_wordsize+0x32>
End instruction: 
	26e6:	02b7e563          	bltu	a5,a1,2710 <ck_uart_set_wordsize+0x32>
Length:           1
Taken_Target address:       2710
Taken_Target instruction: 
	2710:	478d                	li	a5,3
Not_Taken_Target address:   26ea
Not_Taken_Target instruction: 
	26ea:	04058163          	beqz	a1,272c <ck_uart_set_wordsize+0x4e>
Instruction: 
	26e6:	02b7e563          	bltu	a5,a1,2710 <ck_uart_set_wordsize+0x32>


Basic_block Name: 121
In Function:      <ck_uart_set_wordsize>
Start address:    26ea
End address:      26ea
Start instruction: 
	26ea:	04058163          	beqz	a1,272c <ck_uart_set_wordsize+0x4e>
End instruction: 
	26ea:	04058163          	beqz	a1,272c <ck_uart_set_wordsize+0x4e>
Length:           1
Taken_Target address:       272c
Taken_Target instruction: 
	272c:	4158                	lw	a4,4(a0)
Not_Taken_Target address:   26ee
Not_Taken_Target instruction: 
	26ee:	4158                	lw	a4,4(a0)
Instruction: 
	26ea:	04058163          	beqz	a1,272c <ck_uart_set_wordsize+0x4e>


Basic_block Name: 122
In Function:      <ck_uart_set_wordsize>
Start address:    26ee
End address:      270e
Start instruction: 
	26ee:	4158                	lw	a4,4(a0)
End instruction: 
	270e:	8082                	ret
Length:           10
Taken_Target address:       ['<ck_uart_init> 280e']
Taken_Target instruction: 
	
Not_Taken_Target address:   
Not_Taken_Target instruction: 
	
Instruction: 
	26ee:	4158                	lw	a4,4(a0)
	26f0:	00c74783          	lbu	a5,12(a4)
	26f4:	0fd7f793          	andi	a5,a5,253
	26f8:	00f70623          	sb	a5,12(a4)
	26fc:	4158                	lw	a4,4(a0)
	26fe:	00c74783          	lbu	a5,12(a4)
	2702:	0ff7f793          	andi	a5,a5,255
	2706:	0017e793          	ori	a5,a5,1
	270a:	00f70623          	sb	a5,12(a4)
	270e:	8082                	ret


Basic_block Name: 123
In Function:      <ck_uart_set_wordsize>
Start address:    2710
End address:      2712
Start instruction: 
	2710:	478d                	li	a5,3
End instruction: 
	2712:	00f59c63          	bne	a1,a5,272a <ck_uart_set_wordsize+0x4c>
Length:           2
Taken_Target address:       272a
Taken_Target instruction: 
	272a:	8082                	ret
Not_Taken_Target address:   2716
Not_Taken_Target instruction: 
	2716:	4158                	lw	a4,4(a0)
Instruction: 
	2710:	478d                	li	a5,3
	2712:	00f59c63          	bne	a1,a5,272a <ck_uart_set_wordsize+0x4c>


Basic_block Name: 124
In Function:      <ck_uart_set_wordsize>
Start address:    2716
End address:      2728
Start instruction: 
	2716:	4158                	lw	a4,4(a0)
End instruction: 
	2728:	8082                	ret
Length:           6
Taken_Target address:       ['<ck_uart_init> 280e']
Taken_Target instruction: 
	
Not_Taken_Target address:   
Not_Taken_Target instruction: 
	
Instruction: 
	2716:	4158                	lw	a4,4(a0)
	2718:	00c74783          	lbu	a5,12(a4)
	271c:	0ff7f793          	andi	a5,a5,255
	2720:	0037e793          	ori	a5,a5,3
	2724:	00f70623          	sb	a5,12(a4)
	2728:	8082                	ret


Basic_block Name: 125
In Function:      <ck_uart_set_wordsize>
Start address:    272a
End address:      272a
Start instruction: 
	272a:	8082                	ret
End instruction: 
	272a:	8082                	ret
Length:           1
Taken_Target address:       ['<ck_uart_init> 280e']
Taken_Target instruction: 
	
Not_Taken_Target address:   
Not_Taken_Target instruction: 
	
Instruction: 
	272a:	8082                	ret


Basic_block Name: 126
In Function:      <ck_uart_set_wordsize>
Start address:    272c
End address:      273a
Start instruction: 
	272c:	4158                	lw	a4,4(a0)
End instruction: 
	273a:	8082                	ret
Length:           5
Taken_Target address:       ['<ck_uart_init> 280e']
Taken_Target instruction: 
	
Not_Taken_Target address:   
Not_Taken_Target instruction: 
	
Instruction: 
	272c:	4158                	lw	a4,4(a0)
	272e:	00c74783          	lbu	a5,12(a4)
	2732:	0fc7f793          	andi	a5,a5,252
	2736:	00f70623          	sb	a5,12(a4)
	273a:	8082                	ret


Basic_block Name: 127
In Function:      <ck_uart_set_wordsize>
Start address:    273c
End address:      275c
Start instruction: 
	273c:	4158                	lw	a4,4(a0)
End instruction: 
	275c:	8082                	ret
Length:           10
Taken_Target address:       ['<ck_uart_init> 280e']
Taken_Target instruction: 
	
Not_Taken_Target address:   
Not_Taken_Target instruction: 
	
Instruction: 
	273c:	4158                	lw	a4,4(a0)
	273e:	00c74783          	lbu	a5,12(a4)
	2742:	0fe7f793          	andi	a5,a5,254
	2746:	00f70623          	sb	a5,12(a4)
	274a:	4158                	lw	a4,4(a0)
	274c:	00c74783          	lbu	a5,12(a4)
	2750:	0ff7f793          	andi	a5,a5,255
	2754:	0027e793          	ori	a5,a5,2
	2758:	00f70623          	sb	a5,12(a4)
	275c:	8082                	ret


Basic_block Name: 128
In Function:      <ck_uart_open>
Start address:    2796
End address:      2796
Start instruction: 
	2796:	e981                	bnez	a1,27a6 <ck_uart_open+0x10>
End instruction: 
	2796:	e981                	bnez	a1,27a6 <ck_uart_open+0x10>
Length:           1
Taken_Target address:       27a6
Taken_Target instruction: 
	27a6:	4505                	li	a0,1
Not_Taken_Target address:   2798
Not_Taken_Target instruction: 
	2798:	400157b7          	lui	a5,0x40015
Instruction: 
	2796:	e981                	bnez	a1,27a6 <ck_uart_open+0x10>


Basic_block Name: 129
In Function:      <ck_uart_open>
Start address:    2798
End address:      27a4
Start instruction: 
	2798:	400157b7          	lui	a5,0x40015
End instruction: 
	27a4:	8082                	ret
Length:           5
Taken_Target address:       ['<main> 2604']
Taken_Target instruction: 
	
Not_Taken_Target address:   
Not_Taken_Target instruction: 
	
Instruction: 
	2798:	400157b7          	lui	a5,0x40015
	279c:	00052023          	sw	zero,0(a0)
	27a0:	c15c                	sw	a5,4(a0)
	27a2:	4501                	li	a0,0
	27a4:	8082                	ret


Basic_block Name: 130
In Function:      <ck_uart_open>
Start address:    27a6
End address:      27a8
Start instruction: 
	27a6:	4505                	li	a0,1
End instruction: 
	27a8:	8082                	ret
Length:           2
Taken_Target address:       ['<main> 2604']
Taken_Target instruction: 
	
Not_Taken_Target address:   
Not_Taken_Target instruction: 
	
Instruction: 
	27a6:	4505                	li	a0,1
	27a8:	8082                	ret


Basic_block Name: 131
In Function:      <ck_uart_init>
Start address:    27aa
End address:      27b0
Start instruction: 
	27aa:	4118                	lw	a4,0(a0)
End instruction: 
	27b0:	0af70163          	beq	a4,a5,2852 <ck_uart_init+0xa8>
Length:           4
Taken_Target address:       2852
Taken_Target instruction: 
	2852:	4505                	li	a0,1
Not_Taken_Target address:   27b4
Not_Taken_Target instruction: 
	27b4:	4194                	lw	a3,0(a1)
Instruction: 
	27aa:	4118                	lw	a4,0(a0)
	27ac:	67c1                	lui	a5,0x10
	27ae:	17fd                	addi	a5,a5,-1
	27b0:	0af70163          	beq	a4,a5,2852 <ck_uart_init+0xa8>


Basic_block Name: 132
In Function:      <ck_uart_init>
Start address:    27b4
End address:      2806
Start instruction: 
	27b4:	4194                	lw	a3,0(a1)
End instruction: 
	2806:	35b5                	jal	2672 <ck_uart_set_parity>
Length:           27
Taken_Target address:       2672
Taken_Target instruction: 
	2672:	c54c                	sw	a1,12(a0)
Not_Taken_Target address:   
Not_Taken_Target instruction: 
	
Instruction: 
	27b4:	4194                	lw	a3,0(a1)
	27b6:	05f5e7b7          	lui	a5,0x5f5e
	27ba:	10078793          	addi	a5,a5,256 # 5f5e100 <_global_impure_ptr+0x5f57e58>
	27be:	02d7d7b3          	divu	a5,a5,a3
	27c2:	4158                	lw	a4,4(a0)
	27c4:	1141                	addi	sp,sp,-16
	27c6:	c606                	sw	ra,12(sp)
	27c8:	c422                	sw	s0,8(sp)
	27ca:	c226                	sw	s1,4(sp)
	27cc:	c514                	sw	a3,8(a0)
	27ce:	00c74683          	lbu	a3,12(a4)
	27d2:	84ae                	mv	s1,a1
	27d4:	842a                	mv	s0,a0
	27d6:	f806e693          	ori	a3,a3,-128
	27da:	0ff6f693          	andi	a3,a3,255
	27de:	00d70623          	sb	a3,12(a4)
	27e2:	0047d693          	srli	a3,a5,0x4
	27e6:	0ff6f693          	andi	a3,a3,255
	27ea:	83b1                	srli	a5,a5,0xc
	27ec:	00d70023          	sb	a3,0(a4)
	27f0:	0ff7f793          	andi	a5,a5,255
	27f4:	00f70223          	sb	a5,4(a4)
	27f8:	00c74783          	lbu	a5,12(a4)
	27fc:	07f7f793          	andi	a5,a5,127
	2800:	00f70623          	sb	a5,12(a4)
	2804:	458c                	lw	a1,8(a1)
	2806:	35b5                	jal	2672 <ck_uart_set_parity>


Basic_block Name: 133
In Function:      <ck_uart_init>
Start address:    2808
End address:      280c
Start instruction: 
	2808:	44cc                	lw	a1,12(s1)
End instruction: 
	280c:	3dc9                	jal	26de <ck_uart_set_wordsize>
Length:           3
Taken_Target address:       26de
Taken_Target instruction: 
	26de:	c94c                	sw	a1,20(a0)
Not_Taken_Target address:   
Not_Taken_Target instruction: 
	
Instruction: 
	2808:	44cc                	lw	a1,12(s1)
	280a:	8522                	mv	a0,s0
	280c:	3dc9                	jal	26de <ck_uart_set_wordsize>


Basic_block Name: 134
In Function:      <ck_uart_init>
Start address:    280e
End address:      2812
Start instruction: 
	280e:	40dc                	lw	a5,4(s1)
End instruction: 
	2812:	cb85                	beqz	a5,2842 <ck_uart_init+0x98>
Length:           3
Taken_Target address:       2842
Taken_Target instruction: 
	2842:	4058                	lw	a4,4(s0)
Not_Taken_Target address:   2814
Not_Taken_Target instruction: 
	2814:	4705                	li	a4,1
Instruction: 
	280e:	40dc                	lw	a5,4(s1)
	2810:	c81c                	sw	a5,16(s0)
	2812:	cb85                	beqz	a5,2842 <ck_uart_init+0x98>


Basic_block Name: 135
In Function:      <ck_uart_init>
Start address:    2814
End address:      2816
Start instruction: 
	2814:	4705                	li	a4,1
End instruction: 
	2816:	00e78c63          	beq	a5,a4,282e <ck_uart_init+0x84>
Length:           2
Taken_Target address:       282e
Taken_Target instruction: 
	282e:	4058                	lw	a4,4(s0)
Not_Taken_Target address:   281a
Not_Taken_Target instruction: 
	281a:	4898                	lw	a4,16(s1)
Instruction: 
	2814:	4705                	li	a4,1
	2816:	00e78c63          	beq	a5,a4,282e <ck_uart_init+0x84>


Basic_block Name: 136
In Function:      <ck_uart_init>
Start address:    281a
End address:      282c
Start instruction: 
	281a:	4898                	lw	a4,16(s1)
End instruction: 
	282c:	8082                	ret
Length:           10
Taken_Target address:       ['<main> 260c']
Taken_Target instruction: 
	
Not_Taken_Target address:   
Not_Taken_Target instruction: 
	
Instruction: 
	281a:	4898                	lw	a4,16(s1)
	281c:	48dc                	lw	a5,20(s1)
	281e:	40b2                	lw	ra,12(sp)
	2820:	cc18                	sw	a4,24(s0)
	2822:	cc5c                	sw	a5,28(s0)
	2824:	4422                	lw	s0,8(sp)
	2826:	4492                	lw	s1,4(sp)
	2828:	4501                	li	a0,0
	282a:	0141                	addi	sp,sp,16
	282c:	8082                	ret


Basic_block Name: 137
In Function:      <ck_uart_init>
Start address:    282e
End address:      2840
Start instruction: 
	282e:	4058                	lw	a4,4(s0)
End instruction: 
	2840:	bfe9                	j	281a <ck_uart_init+0x70>
Length:           6
Taken_Target address:       281a
Taken_Target instruction: 
	281a:	4898                	lw	a4,16(s1)
Not_Taken_Target address:   
Not_Taken_Target instruction: 
	
Instruction: 
	282e:	4058                	lw	a4,4(s0)
	2830:	00c74783          	lbu	a5,12(a4)
	2834:	0ff7f793          	andi	a5,a5,255
	2838:	0047e793          	ori	a5,a5,4
	283c:	00f70623          	sb	a5,12(a4)
	2840:	bfe9                	j	281a <ck_uart_init+0x70>


Basic_block Name: 138
In Function:      <ck_uart_init>
Start address:    2842
End address:      2850
Start instruction: 
	2842:	4058                	lw	a4,4(s0)
End instruction: 
	2850:	b7e9                	j	281a <ck_uart_init+0x70>
Length:           5
Taken_Target address:       281a
Taken_Target instruction: 
	281a:	4898                	lw	a4,16(s1)
Not_Taken_Target address:   
Not_Taken_Target instruction: 
	
Instruction: 
	2842:	4058                	lw	a4,4(s0)
	2844:	00c74783          	lbu	a5,12(a4)
	2848:	0fb7f793          	andi	a5,a5,251
	284c:	00f70623          	sb	a5,12(a4)
	2850:	b7e9                	j	281a <ck_uart_init+0x70>


Basic_block Name: 139
In Function:      <ck_uart_init>
Start address:    2852
End address:      2854
Start instruction: 
	2852:	4505                	li	a0,1
End instruction: 
	2854:	8082                	ret
Length:           2
Taken_Target address:       ['<main> 260c']
Taken_Target instruction: 
	
Not_Taken_Target address:   
Not_Taken_Target instruction: 
	
Instruction: 
	2852:	4505                	li	a0,1
	2854:	8082                	ret


Basic_block Name: 140
In Function:      <ck_uart_putc>
Start address:    2868
End address:      286a
Start instruction: 
	2868:	4d5c                	lw	a5,28(a0)
End instruction: 
	286a:	cb99                	beqz	a5,2880 <ck_uart_putc+0x18>
Length:           2
Taken_Target address:       2880
Taken_Target instruction: 
	2880:	4505                	li	a0,1
Not_Taken_Target address:   286c
Not_Taken_Target instruction: 
	286c:	4158                	lw	a4,4(a0)
Instruction: 
	2868:	4d5c                	lw	a5,28(a0)
	286a:	cb99                	beqz	a5,2880 <ck_uart_putc+0x18>


Basic_block Name: 141
In Function:      <ck_uart_putc>
Start address:    286c
End address:      2876
Start instruction: 
	286c:	4158                	lw	a4,4(a0)
End instruction: 
	2876:	dfe5                	beqz	a5,286e <ck_uart_putc+0x6>
Length:           4
Taken_Target address:       286e
Taken_Target instruction: 
	286e:	01474783          	lbu	a5,20(a4)
Not_Taken_Target address:   2878
Not_Taken_Target instruction: 
	2878:	00b70023          	sb	a1,0(a4)
Instruction: 
	286c:	4158                	lw	a4,4(a0)
	286e:	01474783          	lbu	a5,20(a4)
	2872:	0207f793          	andi	a5,a5,32
	2876:	dfe5                	beqz	a5,286e <ck_uart_putc+0x6>


Basic_block Name: 154 start_with_taken_target
In Function:      <ck_uart_putc>
Start address:    286e
End address:      2876
Start instruction: 
	286e:	01474783          	lbu	a5,20(a4)
End instruction: 
	2876:	dfe5                	beqz	a5,286e <ck_uart_putc+0x6>
Length:           3
Taken_Target address:       286e
Taken_Target instruction: 
	286e:	01474783          	lbu	a5,20(a4)
Not_Taken_Target address:   2878
Not_Taken_Target instruction: 
	2878:	00b70023          	sb	a1,0(a4)
Instruction: 
	286e:	01474783          	lbu	a5,20(a4)
	2872:	0207f793          	andi	a5,a5,32
	2876:	dfe5                	beqz	a5,286e <ck_uart_putc+0x6>


Basic_block Name: 142
In Function:      <ck_uart_putc>
Start address:    2878
End address:      287e
Start instruction: 
	2878:	00b70023          	sb	a1,0(a4)
End instruction: 
	287e:	8082                	ret
Length:           3
Taken_Target address:       ['<puts> 1876', '<puts> 1884']
Taken_Target instruction: 
	
Not_Taken_Target address:   
Not_Taken_Target instruction: 
	
Instruction: 
	2878:	00b70023          	sb	a1,0(a4)
	287c:	4501                	li	a0,0
	287e:	8082                	ret


Basic_block Name: 143
In Function:      <ck_uart_putc>
Start address:    2880
End address:      2882
Start instruction: 
	2880:	4505                	li	a0,1
End instruction: 
	2882:	8082                	ret
Length:           2
Taken_Target address:       ['<puts> 1876', '<puts> 1884']
Taken_Target instruction: 
	
Not_Taken_Target address:   
Not_Taken_Target instruction: 
	
Instruction: 
	2880:	4505                	li	a0,1
	2882:	8082                	ret


